ccopy_reg
_reconstructor
p0
(ctraits.trait_handlers
TraitListObject
p1
c__builtin__
list
p2
(lp3
ctraits.traits
__newobj__
p4
(c__main__
SubPlot
p5
tp6
Rp7
(dp8
S'__traits_version__'
p9
S'4.0.0'
p10
sS'index'
p11
I10
sS'datasets'
p12
g0
(g1
g2
(lp13
g4
(c__main__
DataSet
p14
tp15
Rp16
(dp17
g9
g10
sS'mfc'
p18
S'green'
p19
sS'Ymax'
p20
Fnan
sS'fit1'
p21
g4
(cfitlibrary
Fits
p22
tp23
Rp24
(dp25
S'a'
p26
cnumpy.core.multiarray
_reconstruct
p27
(cnumpy
ndarray
p28
(I0
tp29
S'b'
p30
tp31
Rp32
(I1
(I5
I1
tp33
cnumpy
dtype
p34
(S'f8'
p35
I0
I1
tp36
Rp37
(I3
S'<'
p38
NNNI-1
I-1
I0
tp39
bI00
S'\x00\x00\x00\x00\x00\x00\x00\x00\x00\x00\x00\x00\x00\x00\x00\x00\x00\x00\x00\x00\x00\x00\x00\x00\x00\x00\x00\x00\x00\x00\x00\x00\x00\x00\x00\x00\x00\x00\x00\x00'
p40
tp41
bsg9
g10
sS'ae'
p42
g27
(g28
(I0
tp43
g30
tp44
Rp45
(I1
(I5
I1
tp46
g37
I00
S'\x00\x00\x00\x00\x00\x00\x00\x00\x00\x00\x00\x00\x00\x00\x00\x00\x00\x00\x00\x00\x00\x00\x00\x00\x00\x00\x00\x00\x00\x00\x00\x00\x00\x00\x00\x00\x00\x00\x00\x00'
p47
tp48
bsS'column_labels'
p49
S'A0   |   Afit   |   Aerr   |   Fit Mask'
p50
sS'px0'
p51
Fnan
sS'xf'
p52
F1000000000000000.0
sS'yf'
p53
F1000000000000000.0
sS'fit_mask'
p54
g0
(g1
g2
(lp55
I01
aI01
aI01
aI01
aI01
atp56
Rp57
(dp58
S'name_items'
p59
S'fit_mask_items'
p60
sS'name'
p61
g54
sbsS'a0'
p62
g27
(g28
(I0
tp63
g30
tp64
Rp65
(I1
(I5
I1
tp66
g37
I00
S'\x00\x00\x00\x00\x00\x00\x00\x00\x00\x00\x00\x00\x00\x00\x00\x00\x00\x00\x00\x00\x00\x00\x00\x00\x00\x00\x00\x00\x00\x00\x00\x00\x00\x00\x00\x00\x00\x00\x00\x00'
p67
tp68
bsS'fitexpr'
p69
S'a[0]*sinc^2( 2*pi * (x-a[1]) * a[2]/2 ) +a[3]'
p70
sS'pxf'
p71
Fnan
sS'func'
p72
S'RabiResonance'
p73
sS'y0'
p74
F-1000000000000000.0
sS'x0'
p75
F-1000000000000000.0
sS'doplot'
p76
I00
sS'dofit'
p77
I00
sbsS'xticks'
p78
I01
sS'descr_label'
p79
S'Description:'
p80
sS'stats'
p81
I00
sS'plotme'
p82
I00
sS'descr'
p83
Vvary uvdet image ODT
p84
sS'title'
p85
S''
p86
sS'logscaleY'
p87
I00
sS'logscaleX'
p88
I00
sS'gridlines'
p89
I00
sS'datadir'
p90
V/lab/data/app3/2013/1309/130923/
p91
sS'ylabel'
p92
g86
sS'X2'
p93
I00
sS'match'
p94
I01
sS'stat'
p95
S'Mean                   =  64.136842\nStd. deviation         =   0.212901\nStd. error of the mean =   0.050181\nPk-Pk                  =   0.580000\n\nMean                   = 1247741.405263\nStd. deviation         = 222871.108898\nStd. error of the mean = 52531.224144\nPk-Pk                  = 796824.100000\n\n'
p96
sS'leg'
p97
g86
sS'Xmax'
p98
Fnan
sS'Y'
p99
VCPP:nfit
p100
sS'X'
p101
VUV:uv_f
p102
sS'legend'
p103
g86
sS'me'
p104
F1.0
sS'c'
p105
g19
sS'Ymin'
p106
Fnan
sg61
Vuvdet
p107
sS'raw_data'
p108
S'#\n# Column index\n#  0  SEQ:shot\n#  1  UV:uv_f\n#  2  CPP:nfit\n\n7663\t\t63.8300\t\t1.277e+06\t\t\n7664\t\t63.8300\t\t1.039e+06\t\t\n7665\t\t63.8300\t\t9.974e+05\t\t\n7666\t\t63.8300\t\t7.683e+05\t\t\n7667\t\t63.8300\t\t8.396e+05\t\t\n7670\t\t64.1200\t\t1.423e+06\t\t\n7671\t\t64.1200\t\t1.443e+06\t\t\n7672\t\t64.1200\t\t1.284e+06\t\t\n7673\t\t64.1200\t\t1.490e+06\t\t\n7674\t\t64.1200\t\t1.565e+06\t\t\n7675\t\t64.4100\t\t1.176e+06\t\t\n7676\t\t64.4100\t\t9.925e+05\t\t\n7677\t\t64.4100\t\t1.216e+06\t\t\n7678\t\t64.4100\t\t1.334e+06\t\t\n7679\t\t64.4100\t\t1.234e+06\t\t\n7680\t\t64.2000\t\t1.503e+06\t\t\n7681\t\t64.2000\t\t1.470e+06\t\t\n7682\t\t64.2000\t\t1.280e+06\t\t\n7683\t\t64.2000\t\t1.376e+06\t\t'
p109
sS'm'
p110
S'o'
p111
sS'ST'
p112
I00
sS'range'
p113
V7663:7683,-7668,-7669
p114
sS'xlabel'
p115
g86
sS'ms'
p116
F10.0
sS'yticks'
p117
I01
sS'Xmin'
p118
Fnan
sS'title_label'
p119
S'Title:'
p120
sS'Y2'
p121
I00
sbag4
(g14
tp122
Rp123
(dp124
g9
g10
sg18
g19
sg20
Fnan
sg21
g4
(g22
tp125
Rp126
(dp127
g26
g27
(g28
(I0
tp128
g30
tp129
Rp130
(I1
(I5
I1
tp131
g34
(S'f8'
p132
I0
I1
tp133
Rp134
(I3
S'<'
p135
NNNI-1
I-1
I0
tp136
bI00
S'\xea\xe2\x85\xf4\xa40\x0cB\x17\xf8B\xd6r\xe7\x15\xc0\xb2\xe6;~\xe8\xa9\x1e@{\x9d\xea\xd7U\x02v\xc1\x00\x00\x00\x00\x00\x00\x00\x00'
p137
tp138
bsg9
g10
sg42
g27
(g28
(I0
tp139
g30
tp140
Rp141
(I1
(I5
I1
tp142
g134
I00
S'\xa4\x91\xb8k\xf8]\xecA0&@d\xdb\x9e\xe9?\xc8NI\xe8\x0cu\xfb?>Wj/\xd5v\x89A\x00\x00\x00\x00\x00\x00\x00\x00'
p143
tp144
bsg49
g50
sg51
Fnan
sg52
F1000000000000000.0
sg53
F1000000000000000.0
sg54
g0
(g1
g2
(lp145
I01
aI01
aI01
aI01
aI01
atp146
Rp147
(dp148
g59
S'fit_mask_items'
p149
sg61
g54
sbsg62
g27
(g28
(I0
tp150
g30
tp151
Rp152
(I1
(I5
I1
tp153
g37
I00
S'\x00\x00\x00 _\xa0\x02B\x9a\x99\x99\x99\x99\x99\xb9?\x9a\x99\x99\x99\x99\x99\x17@\x00\x00\x00\x00\x00\x00\x00\x00\x00\x00\x00\x00\x00\x00\x00\x00'
p154
tp155
bsg69
S' a[0]*( 1 / ( pi * a[2] * ( 1 + (( x - a[1] ) / a[2])**2 ) ) ) + a[3] )'
p156
sg71
Fnan
sg72
S'Lorentzian'
p157
sg74
F-1000000000000000.0
sg75
F-1000000000000000.0
sg76
I01
sg77
I01
sbsg78
I01
sg79
g80
sg81
I00
sg82
I00
sg83
Vresonance of red lasers
p158
sg85
g86
sg87
I00
sg88
I00
sg89
I00
sg90
V/lab/data/app3/2013/1309/130923/
p159
sg92
g86
sg93
I00
sg94
I01
sg95
S'Mean                   =  -7.500000\nStd. deviation         =  14.361407\nStd. error of the mean =   4.787136\nPk-Pk                  =  45.000000\n\nMean                   = 219912250.110000\nStd. deviation         = 186248400.780969\nStd. error of the mean = 62082800.260323\nPk-Pk                  = 549348357.000000\n\n'
p160
sg97
g86
sg98
Fnan
sg99
VANALYSIS:num
p161
sg101
VBASLER:imgdettrap
p162
sg103
g86
sg104
F1.0
sg105
g19
sg106
Fnan
sg61
VredRes
p163
sg108
S'#\n# Column index\n#  0  SEQ:shot\n#  1  BASLER:imgdettrap\n#  2  ANALYSIS:num\n\n7608\t\t-30.0000\t\t6.068e+07\t\t\n7609\t\t-25.0000\t\t8.473e+07\t\t\n7610\t\t-20.0000\t\t1.366e+08\t\t\n7611\t\t-15.0000\t\t2.358e+08\t\t\n7612\t\t-10.0000\t\t4.294e+08\t\t\n7613\t\t-5.0000\t\t5.874e+08\t\t\n7614\t\t0.0000\t\t4.414e+08\t\t\n7615\t\t5.0000\t\t1.286e+08\t\t\n7616\t\t10.0000\t\t5.650e+07\t\t\n7617\t\t15.0000\t\t3.802e+07\t\t'
p164
sg110
g111
sg112
I00
sg113
V7608:7617
p165
sg115
g86
sg116
F10.0
sg117
I01
sg118
Fnan
sg119
g120
sg121
I00
sbag4
(g14
tp166
Rp167
(dp168
g9
g10
sg18
g19
sg20
Fnan
sg21
g4
(g22
tp169
Rp170
(dp171
g26
g27
(g28
(I0
tp172
g30
tp173
Rp174
(I1
(I5
I1
tp175
g34
(S'f8'
p176
I0
I1
tp177
Rp178
(I3
S'<'
p179
NNNI-1
I-1
I0
tp180
bI00
S'\x8c\xd8$\x12\xd3\xb5aB\x07\x0c\xf4\xc3S\x84\xa3@.\xa8@\x9b\xb2\xb0p\xc0\x9e\x93\xba\xba!\x08PA\x00\x00\x00\x00\x00\x00\x00\x00'
p181
tp182
bsg9
g10
sg42
g27
(g28
(I0
tp183
g30
tp184
Rp185
(I1
(I5
I1
tp186
g178
I00
S'\x08J\xadn\xa4\x05wB\xde_\xa6\xc3\xf1\x02\xbe@\xf1/\xc4\xfc\x86\xd1\x92@k:\x9d\xeb\x1f\xf2nA\x00\x00\x00\x00\x00\x00\x00\x00'
p187
tp188
bsg49
g50
sg51
Fnan
sg52
F1000000000000000.0
sg53
F1000000000000000.0
sg54
g0
(g1
g2
(lp189
I01
aI01
aI01
aI01
aI01
atp190
Rp191
(dp192
g59
S'fit_mask_items'
p193
sg61
g54
sbsg62
g152
sg69
g156
sg71
Fnan
sg72
g157
sg74
F-1000000000000000.0
sg75
F-1000000000000000.0
sg76
I00
sg77
I00
sbsg78
I01
sg79
g80
sg81
I00
sg82
I00
sg83
Vnumber vs phcdet
p194
sg85
g86
sg87
I00
sg88
I00
sg89
I00
sg90
V/lab/data/app3/2013/1302/130228/
p195
sg92
g86
sg93
I00
sg94
I01
sg95
S'Mean                   = 685.000000\nStd. deviation         =  64.807407\nStd. error of the mean =  17.320508\nPk-Pk                  = 210.000000\n\nMean                   = 737914.226667\nStd. deviation         = 83029.203926\nStd. error of the mean = 22190.488156\nPk-Pk                  = 250183.100000\n\n'
p196
sg97
g86
sg98
Fnan
sg99
VCPP:nfit
p197
sg101
VANDOR:hfimg
p198
sg103
g86
sg104
F1.0
sg105
g19
sg106
Fnan
sg61
Vphcdet
p199
sg108
S'#\n# Column index\n#  0  SEQ:shot\n#  1  ANDOR:hfimg\n#  2  CPP:nfit\n\n3082\t\t580.0000\t\t8.538e+05\t\t\n3083\t\t595.0000\t\t8.365e+05\t\t\n3084\t\t610.0000\t\t6.301e+05\t\t\n3085\t\t625.0000\t\t6.793e+05\t\t\n3086\t\t640.0000\t\t6.036e+05\t\t\n3087\t\t655.0000\t\t7.668e+05\t\t\n3088\t\t670.0000\t\t7.084e+05\t\t\n3089\t\t685.0000\t\t7.985e+05\t\t\n3090\t\t700.0000\t\t8.004e+05\t\t\n3091\t\t715.0000\t\t7.119e+05\t\t\n3092\t\t730.0000\t\t6.134e+05\t\t\n3093\t\t745.0000\t\t8.387e+05\t\t\n3094\t\t760.0000\t\t7.529e+05\t\t\n3095\t\t775.0000\t\t6.621e+05\t\t\n3096\t\t790.0000\t\t8.125e+05\t\t'
p200
sg110
g111
sg112
I00
sg113
V3082:3096
p201
sg115
g86
sg116
F10.0
sg117
I01
sg118
Fnan
sg119
g120
sg121
I00
sbag4
(g14
tp202
Rp203
(dp204
g9
g10
sg18
g19
sg20
F100.0
sg21
g4
(g22
tp205
Rp206
(dp207
g26
g27
(g28
(I0
tp208
g30
tp209
Rp210
(I1
(I5
I1
tp211
g34
(S'f8'
p212
I0
I1
tp213
Rp214
(I3
S'<'
p215
NNNI-1
I-1
I0
tp216
bI00
S'FmQ\x0f\x1c\xe2*@\xfa\xb5\x05\x0e\x9b\xf9@@\x8d\x99\x99\x99\x99\x99\x17@\x00\x00\x00\x00\x00\x00\x00\x00\x00\x00\x00\x00\x00\x00\x00\x00'
p217
tp218
bsg9
g10
sg42
g27
(g28
(I0
tp219
g30
tp220
Rp221
(I1
(I5
I1
tp222
g214
I00
S'\xdc`\xa8\xd9.\x86\xfd?\xd3\xd2\xf7\x1c6+\xf0?\x00\x00\x00\x00\x00\x00\x1a=\x00\x00\x00\x00\x00\x00\x00\x00\x00\x00\x00\x00\x00\x00\x00\x00'
p223
tp224
bsg49
g50
sg51
Fnan
sg52
F1000000000000000.0
sg53
F1000000000000000.0
sg54
g0
(g1
g2
(lp225
I01
aI01
aI01
aI01
aI01
atp226
Rp227
(dp228
g59
S'fit_mask_items'
p229
sg61
g54
sbsg62
g152
sg69
S'(a[0]^2+2*kb/M*a[1]*x^2)^0.5'
p230
sg71
Fnan
sg72
S'Temperature'
p231
sg74
F-1000000000000000.0
sg75
F-1000000000000000.0
sg76
I01
sg77
I01
sbsg78
I01
sg79
g80
sg81
I00
sg82
I00
sg83
Vtemp of atoms loaded to ODT
p232
sg85
g86
sg87
I00
sg88
I00
sg89
I00
sg90
V/lab/data/app3/2013/1304/130411/
p233
sg92
g86
sg93
I00
sg94
I01
sg95
S'Mean                   =   0.150000\nStd. deviation         =   0.102470\nStd. error of the mean =   0.045826\nPk-Pk                  =   0.300000\n\nMean                   =  49.844953\nStd. deviation         =  28.300239\nStd. error of the mean =  12.656252\nPk-Pk                  =  79.660490\n\n'
p234
sg97
g86
sg98
Fnan
sg99
VCPP:ax0w
p235
sg101
VODT:odttof
p236
sg103
g86
sg104
F1.0
sg105
g19
sg106
Fnan
sg61
V50ms-temp
p237
sg108
S'#\n# Column index\n#  0  SEQ:shot\n#  1  ODT:odttof\n#  2  CPP:ax0w\n\n7555\t\t0.0000\t\t14.3411\t\t\n7556\t\t0.0600\t\t22.3111\t\t\n7557\t\t0.1200\t\t37.3420\t\t\n7558\t\t0.1800\t\t55.8371\t\t\n7559\t\t0.2400\t\t75.2368\t\t\n7560\t\t0.3000\t\t94.0016\t\t'
p238
sg110
g111
sg112
I00
sg113
V7555:7560
p239
sg115
g86
sg116
F10.0
sg117
I01
sg118
Fnan
sg119
g120
sg121
I00
sbag4
(g14
tp240
Rp241
(dp242
g9
g10
sg18
VNone
p243
sg20
Fnan
sg21
g4
(g22
tp244
Rp245
(dp246
g26
g27
(g28
(I0
tp247
g30
tp248
Rp249
(I1
(I5
I1
tp250
g178
I00
S'\x00\xe0\x8e\xc2@H.@1\x91\xd0\x9d\xe0\x1b6@\x8d\x99\x99\x99\x99\x99\x17@\x00\x00\x00\x00\x00\x00\x00\x00\x00\x00\x00\x00\x00\x00\x00\x00'
p251
tp252
bsg9
g10
sg42
g27
(g28
(I0
tp253
g30
tp254
Rp255
(I1
(I5
I1
tp256
g178
I00
S'\xfdv\xe1\xe5R\x84\xf8?I\xe8\xa0D\xac\xea\xf0?\x00\x00\x00\x00\x00\x00\x1a=\x00\x00\x00\x00\x00\x00\x00\x00\x00\x00\x00\x00\x00\x00\x00\x00'
p257
tp258
bsg49
g50
sg51
Fnan
sg52
F1000000000000000.0
sg53
F1000000000000000.0
sg54
g0
(g1
g2
(lp259
I01
aI01
aI01
aI01
aI01
atp260
Rp261
(dp262
g59
S'fit_mask_items'
p263
sg61
g54
sbsg62
g152
sg69
g230
sg71
Fnan
sg72
g231
sg74
F-1000000000000000.0
sg75
F-1000000000000000.0
sg76
I00
sg77
I00
sbsg78
I01
sg79
g80
sg81
I00
sg82
I00
sg83
VN loaded to ODT
p264
sg85
g86
sg87
I00
sg88
I00
sg89
I00
sg90
V/lab/data/app3/2013/1304/130411/
p265
sg92
g86
sg93
I00
sg94
I00
sg95
S'Mean                   =   0.150000\nStd. deviation         =   0.102470\nStd. error of the mean =   0.045826\nPk-Pk                  =   0.300000\n\nMean                   = 6001129.666667\nStd. deviation         = 405972.978610\nStd. error of the mean = 181556.635440\nPk-Pk                  = 1130967.000000\n\n'
p266
sg97
g86
sg98
Fnan
sg99
VCPP:nfit
p267
sg101
g236
sg103
g86
sg104
F1.0
sg105
g19
sg106
Fnan
sg61
VN loaded 
p268
sg108
S'#\n# Column index\n#  0  SEQ:shot\n#  1  ODT:odttof\n#  2  CPP:nfit\n\n7555\t\t0.0000\t\t6.407e+06\t\t\n7556\t\t0.0600\t\t6.673e+06\t\t\n7557\t\t0.1200\t\t5.945e+06\t\t\n7558\t\t0.1800\t\t5.542e+06\t\t\n7559\t\t0.2400\t\t5.729e+06\t\t\n7560\t\t0.3000\t\t5.710e+06\t\t'
p269
sg110
Vs
p270
sg112
I00
sg113
V7555:7560
p271
sg115
g86
sg116
F10.0
sg117
I01
sg118
Fnan
sg119
g120
sg121
I00
sbag4
(g14
tp272
Rp273
(dp274
g9
g10
sg18
Vblack
p275
sg20
Fnan
sg21
g4
(g22
tp276
Rp277
(dp278
g26
g27
(g28
(I0
tp279
g30
tp280
Rp281
(I1
(I5
I1
tp282
g134
I00
S'%I\xb2\xdf\xbe\xa0E\xc2X\x1b\xa8\x10\x13\xe9\x80@\x00\xd0\x8c\xc7U[\x88B\x00\x00\x00\x00\x00\x00\x00\x00\x00\x00\x00\x00\x00\x00\x00\x00'
p283
tp284
bsg9
g10
sg42
g27
(g28
(I0
tp285
g30
tp286
Rp287
(I1
(I5
I1
tp288
g134
I00
S'\x8f\x82\xe1oV"\x17BA\xe3\xce[\xe7v\xc5?\xb9\x06\xa1\x01A\xc7CB\x00\x00\x00\x00\x00\x00\x00\x00\x00\x00\x00\x00\x00\x00\x00\x00'
p289
tp290
bsg49
g50
sg51
Fnan
sg52
F1000000000000000.0
sg53
F1000000000000000.0
sg54
g0
(g1
g2
(lp291
I01
aI01
aI01
aI00
aI01
atp292
Rp293
(dp294
g59
S'fit_mask_items'
p295
sg61
g54
sbsg62
g27
(g28
(I0
tp296
g30
tp297
Rp298
(I1
(I5
I1
tp299
g37
I00
S'\x00\x00\x00\x00\x00j\xf8@\x00\x00\x00\x00\x00\xe0\x80@\x00\x00\x00\x00\x00X\xcb@\x00\x00\x00\x00\x00\x00\x00\x00\x00\x00\x00\x00\x00\x00\x00\x00'
p300
tp301
bsg69
S'p[0]*(x-p[1])**2 + p[2]'
p302
sg71
Fnan
sg72
S'Parabola'
p303
sg74
F-1000000000000000.0
sg75
F-1000000000000000.0
sg76
I01
sg77
I01
sbsg78
I01
sg79
g80
sg81
I00
sg82
I00
sg83
Vz2
p304
sg85
g86
sg87
I00
sg88
I00
sg89
I00
sg90
V/lab/data/app3/2013/1310/131001/
p305
sg92
g86
sg93
I00
sg94
I01
sg95
S'Mean                   = 541.133333\nStd. deviation         =   2.217105\nStd. error of the mean =   0.592546\nPk-Pk                  =   7.000000\n\nMean                   = 2432960100000.000000\nStd. deviation         = 1003567476946.777832\nStd. error of the mean = 268214690231.714172\nPk-Pk                  = 3234230100000.000000\n\n'
p306
sg97
g86
sg98
Fnan
sg99
VCPP:peakd
p307
sg101
VODTPOS:z2
p308
sg103
g86
sg104
F1.0
sg105
g275
sg106
Fnan
sg61
Vz2wig peakd
p309
sg108
S'#\n# Column index\n#  0  SEQ:shot\n#  1  ODTPOS:z2\n#  2  CPP:peakd\n\n8980\t\t540.0000\t\t3.401e+12\t\t\n8981\t\t540.0000\t\t3.255e+12\t\t\n8982\t\t540.0000\t\t3.240e+12\t\t\n8983\t\t543.0000\t\t2.347e+12\t\t\n8984\t\t543.0000\t\t2.791e+12\t\t\n8986\t\t543.0000\t\t2.536e+12\t\t\n8987\t\t545.0000\t\t7.213e+11\t\t\n8989\t\t545.0000\t\t6.181e+11\t\t\n8992\t\t538.0000\t\t1.395e+12\t\t\n8993\t\t538.0000\t\t1.634e+12\t\t\n8994\t\t538.0000\t\t1.350e+12\t\t\n8995\t\t541.0000\t\t3.387e+12\t\t\n8996\t\t541.0000\t\t2.820e+12\t\t\n8997\t\t541.0000\t\t3.852e+12\t\t\n8998\t\t541.0000\t\t3.146e+12\t\t'
p310
sg110
g111
sg112
I00
sg113
V8980:8998,-8985,-8988,-8990,-8991
p311
sg115
g86
sg116
F10.0
sg117
I01
sg118
Fnan
sg119
g120
sg121
I00
sbag4
(g14
tp312
Rp313
(dp314
g9
g10
sg18
g275
sg20
Fnan
sg21
g4
(g22
tp315
Rp316
(dp317
g26
g27
(g28
(I0
tp318
g30
tp319
Rp320
(I1
(I5
I1
tp321
g134
I00
S'\xa9\xf3LY-\x9d\xc8\xc0\xa4\xdb\xa1`QD\x84@\xdaD\t\xf9\xac\xf0 A\x00\x00\x00\x00\x00\x00\x00\x00\x00\x00\x00\x00\x00\x00\x00\x00'
p322
tp323
bsg9
g10
sg42
g27
(g28
(I0
tp324
g30
tp325
Rp326
(I1
(I5
I1
tp327
g134
I00
S'\xf9O\xcag\n\x93\xd5@\x97\xeb\x1b\x8b\xa1\x91S@p\xba\xd6s&\x93@A\x00\x00\x00\x00\x00\x00\x00\x00\x00\x00\x00\x00\x00\x00\x00\x00'
p328
tp329
bsg49
g50
sg51
Fnan
sg52
F1000000000000000.0
sg53
F1000000000000000.0
sg54
g0
(g1
g2
(lp330
I01
aI01
aI01
aI01
aI01
atp331
Rp332
(dp333
g59
S'fit_mask_items'
p334
sg61
g54
sbsg62
g27
(g28
(I0
tp335
g30
tp336
Rp337
(I1
(I5
I1
tp338
g37
I00
S'\x00\x00\x00 _\xa0\x02\xc2\x00\x00\x00\x00\x00@\x84@\x00\x00\x00\x00\x80O"A\x00\x00\x00\x00\x00\x00\x00\x00\x00\x00\x00\x00\x00\x00\x00\x00'
p339
tp340
bsg69
g302
sg71
Fnan
sg72
S'Parabola'
p341
sg74
F-1000000000000000.0
sg75
F-1000000000000000.0
sg76
I01
sg77
I01
sbsg78
I01
sg79
g80
sg81
I00
sg82
I00
sg83
Vy1
p342
sg85
g86
sg87
I00
sg88
I00
sg89
I00
sg90
V/lab/data/app3/2013/1309/130918/
p343
sg92
g86
sg93
I00
sg94
I01
sg95
S'Mean                   = 644.461538\nStd. deviation         =   3.597336\nStd. error of the mean =   1.038462\nPk-Pk                  =   9.000000\n\nMean                   = 488700.630769\nStd. deviation         = 361354.410491\nStd. error of the mean = 104314.033085\nPk-Pk                  = 1350262.900000\n\n'
p344
sg97
g86
sg98
Fnan
sg99
VCPP:nfit
p345
sg101
VODTPOS:y1
p346
sg103
g86
sg104
F1.0
sg105
g275
sg106
Fnan
sg61
Vy1wig
p347
sg108
S'#\n# Column index\n#  0  SEQ:shot\n#  1  ODTPOS:y1\n#  2  CPP:nfit\n\n7285\t\t645.5000\t\t6.896e+05\t\t\n7286\t\t645.5000\t\t6.640e+05\t\t\n7287\t\t645.5000\t\t7.333e+05\t\t\n7288\t\t650.0000\t\t3.388e+05\t\t\n7289\t\t650.0000\t\t2.577e+05\t\t\n7290\t\t650.0000\t\t3.040e+05\t\t\n7291\t\t641.0000\t\t2.770e+05\t\t\n7292\t\t641.0000\t\t2.635e+05\t\t\n7293\t\t641.0000\t\t2.122e+05\t\t\n7294\t\t641.0000\t\t1.561e+06\t\t\n7295\t\t641.0000\t\t2.104e+05\t\t\n7296\t\t641.0000\t\t2.646e+05\t\t\n7297\t\t645.5000\t\t5.775e+05\t\t'
p348
sg110
g111
sg112
I00
sg113
V7285:7320
p349
sg115
g86
sg116
F10.0
sg117
I01
sg118
Fnan
sg119
g120
sg121
I00
sbag4
(g14
tp350
Rp351
(dp352
g9
g10
sg18
g19
sg20
Fnan
sg21
g4
(g22
tp353
Rp354
(dp355
g26
g32
sg9
g10
sg42
g45
sg49
g50
sg51
Fnan
sg52
F1000000000000000.0
sg53
F1000000000000000.0
sg54
g0
(g1
g2
(lp356
I01
aI01
aI01
aI01
aI01
atp357
Rp358
(dp359
g59
S'fit_mask_items'
p360
sg61
g54
sbsg62
g65
sg69
g70
sg71
Fnan
sg72
g73
sg74
F-1000000000000000.0
sg75
F-1000000000000000.0
sg76
I00
sg77
I00
sbsg78
I01
sg79
g80
sg81
I00
sg82
I00
sg83
g84
sg85
g86
sg87
I00
sg88
I00
sg89
I00
sg90
V/lab/data/app3/2013/1306/130617/
p361
sg92
g86
sg93
I00
sg94
I01
sg95
S'Mean                   =  97.602207\nStd. deviation         =   0.639473\nStd. error of the mean =   0.120849\nPk-Pk                  =   2.300000\n\nMean                   = 1174101.503448\nStd. deviation         = 181580.222294\nStd. error of the mean = 34315.436514\nPk-Pk                  = 665109.400000\n\n'
p362
sg97
g86
sg98
Fnan
sg99
g100
sg101
VUV:uvrepump_de
p363
sg103
g86
sg104
F1.0
sg105
g19
sg106
Fnan
sg61
Vuv rep det
p364
sg108
S'#\n# Column index\n#  0  SEQ:shot\n#  1  UV:uvrepump_de\n#  2  CPP:nfit\n\n0960\t\t97.5900\t\t1.366e+06\t\t\n0961\t\t97.5900\t\t1.269e+06\t\t\n0962\t\t97.5900\t\t1.374e+06\t\t\n0963\t\t96.6500\t\t7.526e+05\t\t\n0964\t\t96.6500\t\t9.252e+05\t\t\n0965\t\t96.6500\t\t1.093e+06\t\t\n0966\t\t96.6500\t\t9.566e+05\t\t\n0967\t\t98.9500\t\t9.309e+05\t\t\n0968\t\t98.9500\t\t8.437e+05\t\t\n0969\t\t98.9500\t\t8.896e+05\t\t\n0970\t\t98.2580\t\t1.046e+06\t\t\n0971\t\t98.2580\t\t1.071e+06\t\t\n0972\t\t98.2580\t\t1.051e+06\t\t\n0973\t\t97.9000\t\t1.333e+06\t\t\n0974\t\t97.9000\t\t1.332e+06\t\t\n0975\t\t97.9000\t\t1.260e+06\t\t\n0976\t\t97.9000\t\t1.277e+06\t\t\n0977\t\t97.1200\t\t1.238e+06\t\t\n0978\t\t97.1200\t\t1.109e+06\t\t\n0979\t\t97.1200\t\t1.209e+06\t\t\n0980\t\t97.4000\t\t1.335e+06\t\t\n0981\t\t97.4000\t\t1.390e+06\t\t\n0982\t\t97.4000\t\t1.255e+06\t\t\n0983\t\t97.3100\t\t1.364e+06\t\t\n0984\t\t97.3100\t\t1.309e+06\t\t\n0985\t\t97.3100\t\t1.139e+06\t\t\n0986\t\t97.4600\t\t1.241e+06\t\t\n0987\t\t97.4600\t\t1.418e+06\t\t\n0988\t\t97.4600\t\t1.271e+06\t\t'
p365
sg110
g111
sg112
I00
sg113
V0960:0988
p366
sg115
g86
sg116
F10.0
sg117
I01
sg118
Fnan
sg119
g120
sg121
I00
sbag4
(g14
tp367
Rp368
(dp369
g9
g10
sg18
Vlightblue
p370
sg20
Fnan
sg21
g4
(g22
tp371
Rp372
(dp373
g26
g27
(g28
(I0
tp374
g30
tp375
Rp376
(I1
(I5
I1
tp377
g34
(S'f8'
p378
I0
I1
tp379
Rp380
(I3
S'<'
p381
NNNI-1
I-1
I0
tp382
bI00
S'84j\xe0\xbec1\xc1L3\x04\x8b4\xda\xf8?_\x07rG\tF1A\x00\x00\x00\x00\x00\x00\x00\x00\x00\x00\x00\x00\x00\x00\x00\x00'
p383
tp384
bsg9
g10
sg42
g27
(g28
(I0
tp385
g30
tp386
Rp387
(I1
(I5
I1
tp388
g380
I00
S'\xa2\x98X\x8axs\x1cA\xb8\xae@?\xd7i\xc0?\x9f\x0f\x01\xffs\x89\xf9@\x00\x00\x00\x00\x00\x00\x00\x00\x00\x00\x00\x00\x00\x00\x00\x00'
p389
tp390
bsg49
g50
sg51
Fnan
sg52
F1000000000000000.0
sg53
F1000000000000000.0
sg54
g0
(g1
g2
(lp391
I01
aI01
aI01
aI00
aI01
atp392
Rp393
(dp394
g59
S'fit_mask_items'
p395
sg61
g54
sbsg62
g27
(g28
(I0
tp396
g30
tp397
Rp398
(I1
(I5
I1
tp399
g37
I00
S'\x00\x00\x00\x00\x00j\xf8\xc0333333\xf3?\x00\x00\x00\x00\xc0\\5A\x00\x00\x00\x00\x00\x00\x00\x00\x00\x00\x00\x00\x00\x00\x00\x00'
p400
tp401
bsg69
g302
sg71
Fnan
sg72
g341
sg74
F-1000000000000000.0
sg75
F-1000000000000000.0
sg76
I00
sg77
I00
sbsg78
I01
sg79
g80
sg81
I00
sg82
I00
sg83
Vuvpow2
p402
sg85
g86
sg87
I00
sg88
I00
sg89
I00
sg90
V/lab/data/app3/2013/1310/131001/
p403
sg92
V
p404
sg93
I00
sg94
I00
sg95
S'Mean                   =   2.000000\nStd. deviation         =   0.742967\nStd. error of the mean =   0.170448\nPk-Pk                  =   3.200000\n\nMean                   = 1003170.745000\nStd. deviation         = 252779.073788\nStd. error of the mean = 57991.496720\nPk-Pk                  = 1159773.800000\n\n'
p405
sg97
g86
sg98
Fnan
sg99
VCPP:nfit
p406
sg101
VUV:uvpow2
p407
sg103
g404
sg104
F2.0
sg105
Vblack
p408
sg106
Fnan
sg61
Vuvpow2_
p409
sg108
S'#\n# Column index\n#  0  SEQ:shot\n#  1  UV:uvpow2\n#  2  CPP:nfit\n\n9012\t\t0.5000\t\t1.198e+05\t\t\n9015\t\t1.1000\t\t8.694e+05\t\t\n9016\t\t1.3000\t\t9.891e+05\t\t\n9017\t\t1.5000\t\t1.210e+06\t\t\n9018\t\t1.7000\t\t1.269e+06\t\t\n9019\t\t1.9000\t\t1.098e+06\t\t\n9020\t\t2.1000\t\t1.084e+06\t\t\n9021\t\t2.3000\t\t1.052e+06\t\t\n9022\t\t2.5000\t\t1.087e+06\t\t\n9023\t\t2.7000\t\t9.198e+05\t\t\n9025\t\t3.1000\t\t8.483e+05\t\t\n9026\t\t3.3000\t\t7.389e+05\t\t\n9028\t\t3.7000\t\t8.207e+05\t\t\n9029\t\t1.6000\t\t1.145e+06\t\t\n9030\t\t1.8000\t\t1.280e+06\t\t\n9031\t\t1.8000\t\t1.095e+06\t\t\n9032\t\t1.7000\t\t1.051e+06\t\t\n9033\t\t2.0000\t\t9.428e+05\t\t\n9034\t\t1.7000\t\t1.232e+06\t\t\n9035\t\t1.7000\t\t1.213e+06\t\t'
p410
sg110
g111
sg112
I00
sg113
V9012:9035,-9013,-9014,-9024,-9027
p411
sg115
g404
sg116
F9.0
sg117
I01
sg118
Fnan
sg119
g120
sg121
I00
sbag4
(g14
tp412
Rp413
(dp414
g9
g10
sg18
Vlightblue
p415
sg20
Fnan
sg21
g4
(g22
tp416
Rp417
(dp418
g26
g32
sg9
g10
sg42
g45
sg49
g50
sg51
Fnan
sg52
F1000000000000000.0
sg53
F1000000000000000.0
sg54
g0
(g1
g2
(lp419
I01
aI01
aI01
aI00
aI01
atp420
Rp421
(dp422
g59
S'fit_mask_items'
p423
sg61
g54
sbsg62
g65
sg69
g70
sg71
Fnan
sg72
g73
sg74
F-1000000000000000.0
sg75
F-1000000000000000.0
sg76
I00
sg77
I00
sbsg78
I01
sg79
g80
sg81
I00
sg82
I00
sg83
Vuvpow
p424
sg85
g86
sg87
I00
sg88
I00
sg89
I00
sg90
V/lab/data/app3/2013/1310/131001/
p425
sg92
g404
sg93
I00
sg94
I00
sg95
S'Mean                   =  16.076923\nStd. deviation         =   0.609103\nStd. error of the mean =   0.175833\nPk-Pk                  =   2.000000\n\nMean                   = 1199244.584615\nStd. deviation         = 116795.410769\nStd. error of the mean = 33715.930924\nPk-Pk                  = 395148.400000\n\n'
p426
sg97
g86
sg98
Fnan
sg99
g406
sg101
VUV:uvpow
p427
sg103
g404
sg104
F2.0
sg105
g275
sg106
Fnan
sg61
Vuvpow
p428
sg108
S'#\n# Column index\n#  0  SEQ:shot\n#  1  UV:uvpow\n#  2  CPP:nfit\n\n8999\t\t16.5000\t\t1.229e+06\t\t\n9000\t\t16.5000\t\t1.285e+06\t\t\n9001\t\t15.0000\t\t1.213e+06\t\t\n9002\t\t15.2000\t\t1.196e+06\t\t\n9003\t\t15.4000\t\t1.062e+06\t\t\n9004\t\t15.6000\t\t1.386e+06\t\t\n9005\t\t15.8000\t\t1.279e+06\t\t\n9006\t\t16.0000\t\t1.121e+06\t\t\n9007\t\t16.2000\t\t1.170e+06\t\t\n9008\t\t16.4000\t\t1.030e+06\t\t\n9009\t\t16.6000\t\t1.356e+06\t\t\n9010\t\t16.8000\t\t9.911e+05\t\t\n9011\t\t17.0000\t\t1.271e+06\t\t'
p429
sg110
g111
sg112
I00
sg113
V8999:9011
p430
sg115
g404
sg116
F9.0
sg117
I01
sg118
Fnan
sg119
g120
sg121
I00
sbag4
(g14
tp431
Rp432
(dp433
g9
g10
sg18
g275
sg20
Fnan
sg21
g4
(g22
tp434
Rp435
(dp436
g26
g27
(g28
(I0
tp437
g30
tp438
Rp439
(I1
(I5
I1
tp440
g134
I00
S'\xffQ\x9aw\x1dM\xf3\xc0\xf9\xfbY\xd3\x9b\xe1\x80@\x8b\xea\x9f\xd0\x9d_2A\x00\x00\x00\x00\x00\x00\x00\x00\x00\x00\x00\x00\x00\x00\x00\x00'
p441
tp442
bsg9
g10
sg42
g27
(g28
(I0
tp443
g30
tp444
Rp445
(I1
(I5
I1
tp446
g134
I00
S'b\xd2\xa7\x1b5\x19\xcc@\x88\xd1\xb3\x8c@\xac\xc8?;\xef\x1f\xb2\x94\x89\xe0@\x00\x00\x00\x00\x00\x00\x00\x00\x00\x00\x00\x00\x00\x00\x00\x00'
p447
tp448
bsg49
g50
sg51
Fnan
sg52
F1000000000000000.0
sg53
F1000000000000000.0
sg54
g0
(g1
g2
(lp449
I01
aI01
aI01
aI00
aI01
atp450
Rp451
(dp452
g59
S'fit_mask_items'
p453
sg61
g54
sbsg62
g27
(g28
(I0
tp454
g30
tp455
Rp456
(I1
(I5
I1
tp457
g37
I00
S'\x00\x00\x00\x00p\xd6\xf8\xc0\x00\x00\x00\x00\x00\xe0\x80@\x00\x00\x00\x00\xd0\x12cA\x00\x00\x00\x00\x00\x00\x00\x00\x00\x00\x00\x00\x00\x00\x00\x00'
p458
tp459
bsg69
g302
sg71
Fnan
sg72
g303
sg74
F-1000000000000000.0
sg75
F-1000000000000000.0
sg76
I00
sg77
I01
sbsg78
I01
sg79
g80
sg81
I00
sg82
I01
sg83
g304
sg85
g86
sg87
I00
sg88
I00
sg89
I00
sg90
V/lab/data/app3/2013/1310/131002/
p460
sg92
g86
sg93
I00
sg94
I01
sg95
S'Mean                   = 540.545455\nStd. deviation         =   1.372697\nStd. error of the mean =   0.434085\nPk-Pk                  =   4.000000\n\nMean                   = 1045794.372727\nStd. deviation         = 224791.129325\nStd. error of the mean = 71085.196647\nPk-Pk                  = 685181.100000\n\n'
p461
sg97
g86
sg98
Fnan
sg99
VCPP:nfit
p462
sg101
g308
sg103
g86
sg104
F1.0
sg105
g275
sg106
Fnan
sg61
Vz2 wig nfit
p463
sg108
S'#\n# Column index\n#  0  SEQ:shot\n#  1  ODTPOS:z2\n#  2  CPP:nfit\n\n9451\t\t541.0000\t\t1.157e+06\t\t\n9452\t\t541.0000\t\t1.127e+06\t\t\n9453\t\t541.0000\t\t1.212e+06\t\t\n9454\t\t539.0000\t\t1.090e+06\t\t\n9455\t\t539.0000\t\t1.037e+06\t\t\n9456\t\t539.0000\t\t1.160e+06\t\t\n9457\t\t543.0000\t\t5.264e+05\t\t\n9458\t\t543.0000\t\t6.388e+05\t\t\n9460\t\t540.0000\t\t1.175e+06\t\t\n9462\t\t540.0000\t\t1.181e+06\t\t\n9463\t\t540.0000\t\t1.200e+06\t\t'
p464
sg110
g111
sg112
I00
sg113
V9451:9500,-9461,-9459
p465
sg115
g86
sg116
F10.0
sg117
I01
sg118
Fnan
sg119
g120
sg121
I00
sbatp466
Rp467
(dp468
g59
S'datasets_items'
p469
sg61
g12
sbsg82
I00
sg83
VODT Tasks
p470
sS'gridR'
p471
I1
sS'selected'
p472
g432
sS'grids'
p473
g0
(g1
g2
(lp474
I1
aI2
aI3
aI4
aI5
aI6
aI7
aI8
aI9
aI10
aI11
atp475
Rp476
(dp477
g59
S'grids_items'
p478
sg61
g473
sbsS'gridC'
p479
I1
sg61
VODT Tasks
p480
sbag4
(g5
tp481
Rp482
(dp483
g9
g10
sg11
I10
sg12
g0
(g1
g2
(lp484
g4
(g14
tp485
Rp486
(dp487
g9
g10
sg18
g275
sg20
Fnan
sg21
g4
(g22
tp488
Rp489
(dp490
g26
g27
(g28
(I0
tp491
g30
tp492
Rp493
(I1
(I5
I1
tp494
g34
(S'f8'
p495
I0
I1
tp496
Rp497
(I3
S'<'
p498
NNNI-1
I-1
I0
tp499
bI00
S'\t;\xc7\xad\r\x06;A\n\xf4\x02\x95~\x1cQ\xc0\xa5I1\x02\xfdl\x1d@o\xc4\xfb\x1aIa\x9c@\xff\xba\xb2\x99L\x15\x1f@'
p500
tp501
bsg9
g10
sg42
g27
(g28
(I0
tp502
g30
tp503
Rp504
(I1
(I5
I1
tp505
g497
I00
S'O\xe8\x97s9\x02\x13A,\xc9\x9bQ\x91\x9c\xe4?t\xed[m\x81\xce\xf7?\x18\\n]W\xa0\xb1@\xda\xf7\x1fs>N\xe1?'
p506
tp507
bsg49
g50
sg51
Fnan
sg52
F1000000000000000.0
sg53
F1000000000000000.0
sg54
g0
(g1
g2
(lp508
I01
aI01
aI01
aI01
aI01
atp509
Rp510
(dp511
g59
S'fit_mask_items'
p512
sg61
g54
sbsg62
g27
(g28
(I0
tp513
g30
tp514
Rp515
(I1
(I5
I1
tp516
g37
I00
S'\x00\x00\x00\x00\xc0\\%A\x00\x00\x00\x00\x00\x80Q\xc0\x9a\x99\x99\x99\x99\x99\x17@\x00\x00\x00\x00\x00\x00\x00\x00\x00\x00\x00\x00\x00\x00\x08@'
p517
tp518
bsg69
S' a[0]*( 1 / ( pi * a[2] * ( 1 + (( x - a[1] ) / a[2])**2 ) ) ) + a[3] + a[0]*( 1 / ( pi * a[2] * ( 1 + (( x - a[4] ) / a[2])**2 ) ) )'
p519
sg71
Fnan
sg72
S'DoubleLorentzian'
p520
sg74
F-1000000000000000.0
sg75
F-1000000000000000.0
sg76
I00
sg77
I00
sbsg78
I01
sg79
g80
sg81
I00
sg82
I00
sg83
g404
sg85
g86
sg87
I00
sg88
I00
sg89
I00
sg90
V/lab/data/app3/2013/1305/130521/
p521
sg92
g86
sg93
I00
sg94
I01
sg95
S'Mean                   = -31.000000\nStd. deviation         =  30.243457\nStd. error of the mean =   8.082904\nPk-Pk                  =  98.000000\n\nMean                   = 29585.337333\nStd. deviation         = 22753.843417\nStd. error of the mean = 6081.220450\nPk-Pk                  = 65288.596000\n\n'
p522
sg97
g86
sg98
Fnan
sg99
VCPP:nfit
p523
sg101
VDIMPLELATTICE:imgdet
p524
sg103
g86
sg104
F1.0
sg105
g275
sg106
Fnan
sg61
Vresonances
p525
sg108
S'#\n# Column index\n#  0  SEQ:shot\n#  1  DIMPLELATTICE:imgdet\n#  2  CPP:nfit\n\n5230\t\t-80.0000\t\t28056.2100\t\t\n5231\t\t-73.0000\t\t55828.6900\t\t\n5232\t\t-66.0000\t\t72033.1900\t\t\n5233\t\t-59.0000\t\t31055.8100\t\t\n5234\t\t-52.0000\t\t13487.0500\t\t\n5235\t\t-45.0000\t\t8600.9800\t\t\n5236\t\t-38.0000\t\t6867.5060\t\t\n5237\t\t-31.0000\t\t6744.5940\t\t\n5238\t\t-24.0000\t\t8280.8600\t\t\n5239\t\t-17.0000\t\t10061.5800\t\t\n5240\t\t-10.0000\t\t18459.8600\t\t\n5241\t\t-3.0000\t\t32499.3400\t\t\n5242\t\t4.0000\t\t59771.3700\t\t\n5243\t\t11.0000\t\t69630.4900\t\t\n5244\t\t18.0000\t\t22402.5300\t\t'
p526
sg110
g111
sg112
I00
sg113
V5230:5244
p527
sg115
g86
sg116
F10.0
sg117
I01
sg118
Fnan
sg119
g120
sg121
I00
sbag4
(g14
tp528
Rp529
(dp530
g9
g10
sg18
g275
sg20
Fnan
sg21
g4
(g22
tp531
Rp532
(dp533
g26
g27
(g28
(I0
tp534
g30
tp535
Rp536
(I1
(I5
I1
tp537
g380
I00
S'oc\x97>\n_\t\xc0\x9c\xda\xe9\xa9t\x19\x8c@\x8a\x12a\xd1J@\xc5@\x00\x00\x00\x00\x00\x00\x00\x00\x00\x00\x00\x00\x00\x00\x08@'
p538
tp539
bsg9
g10
sg42
g27
(g28
(I0
tp540
g30
tp541
Rp542
(I1
(I5
I1
tp543
g380
I00
S'kh\x91\xc1\xde\xb6\x06@\\\x0f\x13q(]M@r\x97\x1d,\xec\xe7\xab@\x00\x00\x00\x00\x00\x00\x00\x00\x00\x00\x00\x00\x00\x00\x00\x00'
p544
tp545
bsg49
g50
sg51
Fnan
sg52
F1000000000000000.0
sg53
F1000000000000000.0
sg54
g0
(g1
g2
(lp546
I01
aI01
aI01
aI01
aI01
atp547
Rp548
(dp549
g59
S'fit_mask_items'
p550
sg61
g54
sbsg62
g27
(g28
(I0
tp551
g30
tp552
Rp553
(I1
(I5
I1
tp554
g37
I00
S'\x00\x00\x00\x00\x00@\x8f@\x00\x00\x00\x00\x00`\x8d@\x00\x00\x00\x00\x00L\xcd@\x00\x00\x00\x00\x00\x00\x00\x00\x00\x00\x00\x00\x00\x00\x08@'
p555
tp556
bsg69
g302
sg71
Fnan
sg72
S'Parabola'
p557
sg74
F-1000000000000000.0
sg75
F-1000000000000000.0
sg76
I00
sg77
I00
sbsg78
I01
sg79
g80
sg81
I00
sg82
I00
sg83
g404
sg85
g86
sg87
I00
sg88
I00
sg89
I00
sg90
V/lab/data/app3/2013/1306/130624/
p558
sg92
g86
sg93
I00
sg94
I01
sg95
S'Mean                   = 882.000000\nStd. deviation         =  16.000000\nStd. error of the mean =   8.000000\nPk-Pk                  =  50.000000\n\nMean                   = 102353.341697\nStd. deviation         = 15661.661703\nStd. error of the mean = 7830.830852\nPk-Pk                  = 39141.814813\n\n'
p559
sg97
g86
sg98
Fnan
sg99
VANDOR1EIGEN:signal
p560
sg101
VBRAGGPOS:Xfiberhalf
p561
sg103
g86
sg104
F1.0
sg105
g275
sg106
Fnan
sg61
Vhhh_Xwig
p562
sg108
S'#\n# Column index\n#  0  SEQ:shot\n#  1  BRAGGPOS:Xfiberhalf\n#  2  ANDOR1EIGEN:signal\n\n3166\t\t885.0000\t\t1.215e+05\t\t\n3167\t\t855.0000\t\t85420.1882\t\t\n3168\t\t905.0000\t\t82350.3040\t\t\n3169\t\t880.0000\t\t1.085e+05\t\t\n3170\t\t885.0000\t\t1.140e+05\t\t'
p563
sg110
g111
sg112
I00
sg113
V3166:3170
p564
sg115
g86
sg116
F10.0
sg117
I01
sg118
Fnan
sg119
g120
sg121
I00
sbag4
(g14
tp565
Rp566
(dp567
g9
g10
sg18
g275
sg20
Fnan
sg21
g4
(g22
tp568
Rp569
(dp570
g26
g27
(g28
(I0
tp571
g30
tp572
Rp573
(I1
(I5
I1
tp574
g380
I00
S')]i?`\x86\x1d\xc0j\xdd\xfb%8w\x95@\xe2l\x81c\x0b\x0f\xc2@\x00\x00\x00\x00\x00\x00\x00\x00\x00\x00\x00\x00\x00\x00\x08@'
p575
tp576
bsg9
g10
sg42
g27
(g28
(I0
tp577
g30
tp578
Rp579
(I1
(I5
I1
tp580
g380
I00
S'\xa6\x08\x0b\xccL\x9b\x03@\x88u\xbb\xd7\xd0\x92\t@\xd9d\t\x05\xaa\xa4\x87@\x00\x00\x00\x00\x00\x00\x00\x00\x00\x00\x00\x00\x00\x00\x00\x00'
p581
tp582
bsg49
g50
sg51
Fnan
sg52
F1000000000000000.0
sg53
F1000000000000000.0
sg54
g0
(g1
g2
(lp583
I01
aI01
aI01
aI01
aI01
atp584
Rp585
(dp586
g59
S'fit_mask_items'
p587
sg61
g54
sbsg62
g27
(g28
(I0
tp588
g30
tp589
Rp590
(I1
(I5
I1
tp591
g37
I00
S'\x00\x00\x00\x00\x00@\x8f@\x00\x00\x00\x00\x00\x90\x95@\x00\x00\x00\x00\x00\x88\xc3@\x00\x00\x00\x00\x00\x00\x00\x00\x00\x00\x00\x00\x00\x00\x08@'
p592
tp593
bsg69
g302
sg71
Fnan
sg72
g557
sg74
F-1000000000000000.0
sg75
F-1000000000000000.0
sg76
I00
sg77
I00
sbsg78
I01
sg79
g80
sg81
I00
sg82
I00
sg83
g404
sg85
g86
sg87
I00
sg88
I00
sg89
I00
sg90
V/lab/data/app3/2013/1306/130624/
p594
sg92
g86
sg93
I00
sg94
I01
sg95
S'Mean                   = 2235.000000\nStd. deviation         =   8.944272\nStd. error of the mean =   2.981424\nPk-Pk                  =  40.000000\n\nMean                   = 61029.809780\nStd. deviation         = 51158.372331\nStd. error of the mean = 17052.790777\nPk-Pk                  = 124898.667780\n\n'
p595
sg97
g86
sg98
Fnan
sg99
VANDOR1EIGEN:signal
p596
sg101
VBRAGGPOS:Yfiberhalf
p597
sg103
g86
sg104
F1.0
sg105
g275
sg106
Fnan
sg61
Vhhh_Ywig
p598
sg108
S'#\n# Column index\n#  0  SEQ:shot\n#  1  BRAGGPOS:Yfiberhalf\n#  2  ANDOR1EIGEN:signal\n\n3170\t\t2235.0000\t\t1.140e+05\t\t\n3171\t\t2255.0000\t\t98076.5886\t\t\n3172\t\t2215.0000\t\t94213.4961\t\t\n3173\t\t2235.0000\t\t1.117e+05\t\t\n3174\t\t2235.0000\t\t-82.5345\t\t\n3175\t\t\n3176\t\t2235.0000\t\t1.248e+05\t\t\n3177\t\t2235.0000\t\t62046.0528\t\t\n3178\t\t2235.0000\t\t309.3916\t\t\n3179\t\t2235.0000\t\t1188.5063\t\t\n3180\t\t2235.0000\t\t4013.6832\t\t'
p599
sg110
g111
sg112
I00
sg113
V3170:3180
p600
sg115
g86
sg116
F10.0
sg117
I01
sg118
Fnan
sg119
g120
sg121
I00
sbag4
(g14
tp601
Rp602
(dp603
g9
g10
sg18
g275
sg20
Fnan
sg21
g4
(g22
tp604
Rp605
(dp606
g26
g27
(g28
(I0
tp607
g30
tp608
Rp609
(I1
(I5
I1
tp610
g134
I00
S'\x1c\xac7\x00\xf9\x991\xc0eS|\x8d\x85\x96p@\xa1ok]X\x0e\xf3@\x00\x00\x00\x00\x00\x00\x00\x00\x00\x00\x00\x00\x00\x00\x08@'
p611
tp612
bsg9
g10
sg42
g27
(g28
(I0
tp613
g30
tp614
Rp615
(I1
(I5
I1
tp616
g134
I00
S'\xea\xf7\xcf*\x14\xbd4@M\x8a\xcc\xbb1Gu@sL\x81\x1c\x0bQ\xe0@\x00\x00\x00\x00\x00\x00\x00\x00\x00\x00\x00\x00\x00\x00\x00\x00'
p617
tp618
bsg49
g50
sg51
Fnan
sg52
F1000000000000000.0
sg53
F1000000000000000.0
sg54
g0
(g1
g2
(lp619
I01
aI01
aI01
aI01
aI01
atp620
Rp621
(dp622
g59
S'fit_mask_items'
p623
sg61
g54
sbsg62
g27
(g28
(I0
tp624
g30
tp625
Rp626
(I1
(I5
I1
tp627
g37
I00
S'\x00\x00\x00\x00\x00p\x97@\x00\x00\x00\x00\x00\x90p@\x9a\x99\x99\x99\x99\x99\x17@\x00\x00\x00\x00\x00\x00\x00\x00\x00\x00\x00\x00\x00\x00\x08@'
p628
tp629
bsg69
g302
sg71
Fnan
sg72
S'Parabola'
p630
sg74
F-1000000000000000.0
sg75
F-1000000000000000.0
sg76
I01
sg77
I01
sbsg78
I01
sg79
g80
sg81
I00
sg82
I00
sg83
g404
sg85
g86
sg87
I00
sg88
I00
sg89
I00
sg90
V/lab/data/app3/2013/1305/130521/
p631
sg92
g86
sg93
I00
sg94
I01
sg95
S'Mean                   = 253.250000\nStd. deviation         =  21.545011\nStd. error of the mean =   8.143249\nPk-Pk                  =  57.000000\n\nMean                   = 70348.335000\nStd. deviation         = 10914.556840\nStd. error of the mean = 4125.314724\nPk-Pk                  = 30215.850000\n\n'
p632
sg97
g86
sg98
Fnan
sg99
g523
sg101
VBRAGGPOS:Xfiberone
p633
sg103
g86
sg104
F1.0
sg105
g275
sg106
Fnan
sg61
V100_Xwig
p634
sg108
S'#\n# Column index\n#  0  SEQ:shot\n#  1  BRAGGPOS:Xfiberone\n#  2  CPP:nfit\n\n5304\t\t275.0000\t\t67978.1200\t\t\n5305\t\t275.0000\t\t72629.4500\t\t\n5306\t\t265.0000\t\t57713.1500\t\t\n5307\t\t265.0000\t\t57675.8800\t\t\n5308\t\t255.0000\t\t86823.6800\t\t\n5309\t\t255.0000\t\t87891.7300\t\t\n5310\t\t218.0000\t\t64366.5800\t\t\n5311\t\t218.0000\t\t67708.0900\t\t'
p635
sg110
g111
sg112
I00
sg113
V5304:5311
p636
sg115
g86
sg116
F10.0
sg117
I01
sg118
Fnan
sg119
g120
sg121
I00
sbag4
(g14
tp637
Rp638
(dp639
g9
g10
sg18
g275
sg20
Fnan
sg21
g4
(g22
tp640
Rp641
(dp642
g26
g27
(g28
(I0
tp643
g30
tp644
Rp645
(I1
(I5
I1
tp646
g34
(S'f8'
p647
I0
I1
tp648
Rp649
(I3
S'<'
p650
NNNI-1
I-1
I0
tp651
bI00
S'tV\xb3"\x9f\xbdh@w\xdf\x866\x02\xc2l@\xee\xfe\xbf\x9cT\xe6\xe1@\x00\x00\x00\x00\x00\x00\x00\x00\x00\x00\x00\x00\x00\x00\x08@'
p652
tp653
bsg9
g10
sg42
g27
(g28
(I0
tp654
g30
tp655
Rp656
(I1
(I5
I1
tp657
g649
I00
S'\x1e\xdc\x9dY\xf59J@l\xf9\x11\xa5\xa5\x18\xf0?\xed1\xe3\xf1 /\xae@\x00\x00\x00\x00\x00\x00\x00\x00\x00\x00\x00\x00\x00\x00\x00\x00'
p658
tp659
bsg49
g50
sg51
Fnan
sg52
F1000000000000000.0
sg53
F1000000000000000.0
sg54
g0
(g1
g2
(lp660
I01
aI01
aI01
aI01
aI01
atp661
Rp662
(dp663
g59
S'fit_mask_items'
p664
sg61
g54
sbsg62
g626
sg69
g302
sg71
Fnan
sg72
g630
sg74
F-1000000000000000.0
sg75
F-1000000000000000.0
sg76
I01
sg77
I01
sbsg78
I01
sg79
g80
sg81
I00
sg82
I00
sg83
g404
sg85
g86
sg87
I00
sg88
I00
sg89
I00
sg90
g631
sg92
g86
sg93
I00
sg94
I01
sg95
S'Mean                   = 227.000000\nStd. deviation         =   7.874008\nStd. error of the mean =   2.976095\nPk-Pk                  =  20.000000\n\nMean                   = 50862.923750\nStd. deviation         = 12798.140510\nStd. error of the mean = 4837.242433\nPk-Pk                  = 35929.670000\n\n'
p665
sg97
g86
sg98
Fnan
sg99
g523
sg101
VBRAGGPOS:Yfiberone
p666
sg103
g86
sg104
F1.0
sg105
g275
sg106
Fnan
sg61
V100_Ywig
p667
sg108
S'#\n# Column index\n#  0  SEQ:shot\n#  1  BRAGGPOS:Yfiberone\n#  2  CPP:nfit\n\n5310\t\t218.0000\t\t64366.5800\t\t\n5311\t\t218.0000\t\t67708.0900\t\t\n5312\t\t218.0000\t\t64765.7700\t\t\n5313\t\t228.0000\t\t39166.6600\t\t\n5314\t\t228.0000\t\t31778.4200\t\t\n5315\t\t238.0000\t\t53475.8100\t\t\n5316\t\t238.0000\t\t45443.0100\t\t\n5317\t\t230.0000\t\t40199.0500\t\t'
p668
sg110
g111
sg112
I00
sg113
V5310:5318
p669
sg115
g86
sg116
F10.0
sg117
I01
sg118
Fnan
sg119
g120
sg121
I00
sbag4
(g14
tp670
Rp671
(dp672
g9
g10
sg18
g275
sg20
Fnan
sg21
g4
(g22
tp673
Rp674
(dp675
g26
g27
(g28
(I0
tp676
g30
tp677
Rp678
(I1
(I5
I1
tp679
g649
I00
S',\xfdf\xd3\xd4\xa28@\x83\xf4!O\xe5\xe3Z@n%y\xa2\x80\xb0\xd8@\x00\x00\x00\x00\x00\x00\x00\x00\x00\x00\x00\x00\x00\x00\x08@'
p680
tp681
bsg9
g10
sg42
g27
(g28
(I0
tp682
g30
tp683
Rp684
(I1
(I5
I1
tp685
g649
I00
S'\xd8\xfbV\xc4\x02\xb1H@\xf8\x99\xe7\xc3\x08yk@\x85E\x89\x12\r{\xef@\x00\x00\x00\x00\x00\x00\x00\x00\x00\x00\x00\x00\x00\x00\x00\x00'
p686
tp687
bsg49
g50
sg51
Fnan
sg52
F1000000000000000.0
sg53
F1000000000000000.0
sg54
g0
(g1
g2
(lp688
I01
aI01
aI01
aI01
aI01
atp689
Rp690
(dp691
g59
S'fit_mask_items'
p692
sg61
g54
sbsg62
g626
sg69
g302
sg71
Fnan
sg72
g630
sg74
F-1000000000000000.0
sg75
F-1000000000000000.0
sg76
I00
sg77
I00
sbsg78
I01
sg79
g80
sg81
I00
sg82
I00
sg83
g404
sg85
g86
sg87
I00
sg88
I00
sg89
I00
sg90
g631
sg92
g86
sg93
I00
sg94
I01
sg95
S'Mean                   =  85.000000\nStd. deviation         =  10.000000\nStd. error of the mean =   3.333333\nPk-Pk                  =  30.000000\n\nMean                   = 34555.740000\nStd. deviation         = 3344.024099\nStd. error of the mean = 1114.674700\nPk-Pk                  = 11450.600000\n\n'
p693
sg97
g86
sg98
Fnan
sg99
g523
sg101
VBRAGGPOS:braggwpone
p694
sg103
g86
sg104
F1.0
sg105
g275
sg106
Fnan
sg61
V100_WP
p695
sg108
S'#\n# Column index\n#  0  SEQ:shot\n#  1  BRAGGPOS:braggwpone\n#  2  CPP:nfit\n\n5320\t\t70.0000\t\t36538.1700\t\t\n5321\t\t70.0000\t\t40727.3900\t\t\n5322\t\t80.0000\t\t36024.5000\t\t\n5323\t\t80.0000\t\t29276.7900\t\t\n5324\t\t90.0000\t\t31388.4700\t\t\n5325\t\t90.0000\t\t35809.8800\t\t\n5326\t\t100.0000\t\t35275.9800\t\t\n5327\t\t100.0000\t\t33979.6100\t\t\n5328\t\t85.0000\t\t36733.2000\t\t\n5329\t\t85.0000\t\t29803.4100\t\t'
p696
sg110
g111
sg112
I00
sg113
V5320:5329
p697
sg115
g86
sg116
F10.0
sg117
I01
sg118
Fnan
sg119
g120
sg121
I00
sbag4
(g14
tp698
Rp699
(dp700
g9
g10
sg18
Vblue
p701
sg20
Fnan
sg21
g4
(g22
tp702
Rp703
(dp704
g26
g27
(g28
(I0
tp705
g30
tp706
Rp707
(I1
(I5
I1
tp708
g497
I00
S'?\xafv\x9fe\xac)A!\x83\x1ca\x9feP\xc0\xdf\x8cDPso\x1e@\x8d\x93@\xdb(\xd6\xc3@\x00\x00\x00\x00\x00\x00\x08@'
p709
tp710
bsg9
g10
sg42
g27
(g28
(I0
tp711
g30
tp712
Rp713
(I1
(I5
I1
tp714
g497
I00
S'\xea\xc9\xd5\xd3\xf16 Af\x03*\xe0;S\xf2?V\xf6\x81fV\t\x0e@\xa7\t\xa4RY\xdf\xbe@\x00\x00\x00\x00\x00\x00\x00\x00'
p715
tp716
bsg49
g50
sg51
Fnan
sg52
F1000000000000000.0
sg53
F1000000000000000.0
sg54
g0
(g1
g2
(lp717
I01
aI01
aI01
aI01
aI01
atp718
Rp719
(dp720
g59
S'fit_mask_items'
p721
sg61
g54
sbsg62
g515
sg69
g156
sg71
Fnan
sg72
S'Lorentzian'
p722
sg74
F-1000000000000000.0
sg75
F-1000000000000000.0
sg76
I01
sg77
I00
sbsg78
I01
sg79
g80
sg81
I00
sg82
I00
sg83
g404
sg85
g86
sg87
I00
sg88
I00
sg89
I00
sg90
V/lab/data/app3/2013/1309/130923/
p723
sg92
g86
sg93
I00
sg94
I01
sg95
S'Mean                   = -63.941176\nStd. deviation         =  11.794668\nStd. error of the mean =   2.948667\nPk-Pk                  =  45.000000\n\nMean                   = 27588.482059\nStd. deviation         = 11213.855093\nStd. error of the mean = 2803.463773\nPk-Pk                  = 37454.535000\n\n'
p724
sg97
g86
sg98
Fnan
sg99
VCPP:nfit
p725
sg101
g524
sg103
g86
sg104
F1.0
sg105
g701
sg106
Fnan
sg61
Vresonances
p726
sg108
S'#\n# Column index\n#  0  SEQ:shot\n#  1  DIMPLELATTICE:imgdet\n#  2  CPP:nfit\n\n8266\t\t-85.0000\t\t18058.4800\t\t\n8267\t\t-80.0000\t\t20135.6700\t\t\n8268\t\t-75.0000\t\t15572.2600\t\t\n8269\t\t-70.0000\t\t28236.1700\t\t\n8270\t\t-65.0000\t\t44912.4600\t\t\n8271\t\t-60.0000\t\t30199.7500\t\t\n8272\t\t-55.0000\t\t25748.0900\t\t\n8273\t\t-50.0000\t\t17528.1800\t\t\n8274\t\t-45.0000\t\t15098.4500\t\t\n8275\t\t-40.0000\t\t7519.0050\t\t\n8276\t\t-75.0000\t\t23720.8100\t\t\n8277\t\t-72.0000\t\t38757.0900\t\t\n8278\t\t-69.0000\t\t42435.2700\t\t\n8279\t\t-66.0000\t\t44973.5400\t\t\n8280\t\t-63.0000\t\t38403.7900\t\t\n8281\t\t-60.0000\t\t35698.5200\t\t\n8282\t\t-57.0000\t\t22006.6600\t\t'
p727
sg110
g111
sg112
I00
sg113
V7698:7800
p728
sg115
g86
sg116
F10.0
sg117
I01
sg118
Fnan
sg119
g120
sg121
I00
sbag4
(g14
tp729
Rp730
(dp731
g9
g10
sg18
g275
sg20
Fnan
sg21
g4
(g22
tp732
Rp733
(dp734
g26
g27
(g28
(I0
tp735
g30
tp736
Rp737
(I1
(I5
I1
tp738
g380
I00
S'\xd3\xec\xc7\xf6`"2?\xe9gCF/\x90\x8e@\xec\x87\x8e\x81I\xad\xe3?\x00\x00\x00\x00\x00\x00\x00\x00\x00\x00\x00\x00\x00\x00\x08@'
p739
tp740
bsg9
g10
sg42
g27
(g28
(I0
tp741
g30
tp742
Rp743
(I1
(I5
I1
tp744
g380
I00
S'1\xb5\x8co\xd0Z$?\x93L\xd3\xc0\x10<\x17@H.v\x90\x0fm\xb4?\x00\x00\x00\x00\x00\x00\x00\x00\x00\x00\x00\x00\x00\x00\x00\x00'
p745
tp746
bsg49
g50
sg51
Fnan
sg52
F1000000000000000.0
sg53
F1000000000000000.0
sg54
g0
(g1
g2
(lp747
I01
aI01
aI01
aI01
aI01
atp748
Rp749
(dp750
g59
S'fit_mask_items'
p751
sg61
g54
sbsg62
g553
sg69
g302
sg71
Fnan
sg72
g557
sg74
F-1000000000000000.0
sg75
F-1000000000000000.0
sg76
I01
sg77
I01
sbsg78
I01
sg79
g80
sg81
I00
sg82
I00
sg83
g404
sg85
g86
sg87
I00
sg88
I00
sg89
I00
sg90
V/lab/data/app3/2013/1306/130620/
p752
sg92
g86
sg93
I00
sg94
I01
sg95
S'Mean                   = 979.230769\nStd. deviation         =  19.299876\nStd. error of the mean =   5.571394\nPk-Pk                  =  60.000000\n\nMean                   =   0.717239\nStd. deviation         =   0.147546\nStd. error of the mean =   0.042593\nPk-Pk                  =   0.496265\n\n'
p753
sg97
g86
sg98
Fnan
sg99
VHHHEIGEN:andor2norm
p754
sg101
VBRAGGPOS:Xfiberhalf
p755
sg103
g86
sg104
F1.0
sg105
g275
sg106
Fnan
sg61
VXwig_HHH
p756
sg108
S'#\n# Column index\n#  0  SEQ:shot\n#  1  BRAGGPOS:Xfiberhalf\n#  2  HHHEIGEN:andor2norm\n\n2112\t\t945.0000\t\t0.8818\t\t\n2113\t\t945.0000\t\t0.9439\t\t\n2114\t\t965.0000\t\t0.5659\t\t\n2115\t\t965.0000\t\t0.7031\t\t\n2116\t\t985.0000\t\t0.7573\t\t\n2117\t\t985.0000\t\t0.7123\t\t\n2118\t\t985.0000\t\t0.6110\t\t\n2119\t\t1005.0000\t\t0.7127\t\t\n2120\t\t1005.0000\t\t1.0403\t\t\n2121\t\t1005.0000\t\t0.6689\t\t\n2122\t\t980.0000\t\t0.5854\t\t\n2123\t\t980.0000\t\t0.5972\t\t\n2124\t\t980.0000\t\t0.5440\t\t'
p757
sg110
g111
sg112
I00
sg113
V2112:2124
p758
sg115
g86
sg116
F10.0
sg117
I01
sg118
Fnan
sg119
g120
sg121
I00
sbag4
(g14
tp759
Rp760
(dp761
g9
g10
sg18
g275
sg20
Fnan
sg21
g4
(g22
tp762
Rp763
(dp764
g26
g27
(g28
(I0
tp765
g30
tp766
Rp767
(I1
(I5
I1
tp768
g380
I00
S'\xce\x1c\xd1\x7f\xd5\xf70?\x0e%\xa2iv\x89\x95@\xaaE\x1b\xf5\x11_\xe3?\x00\x00\x00\x00\x00\x00\x00\x00\x00\x00\x00\x00\x00\x00\x08@'
p769
tp770
bsg9
g10
sg42
g27
(g28
(I0
tp771
g30
tp772
Rp773
(I1
(I5
I1
tp774
g380
I00
S'n\x10_\xccY~(?\xe7\x12\x98\xe5\x19\x8d#@\xfc\xc2}\xc1q(\xa8?\x00\x00\x00\x00\x00\x00\x00\x00\x00\x00\x00\x00\x00\x00\x00\x00'
p775
tp776
bsg49
g50
sg51
Fnan
sg52
F1000000000000000.0
sg53
F1000000000000000.0
sg54
g0
(g1
g2
(lp777
I01
aI01
aI01
aI01
aI01
atp778
Rp779
(dp780
g59
S'fit_mask_items'
p781
sg61
g54
sbsg62
g590
sg69
g302
sg71
Fnan
sg72
g557
sg74
F-1000000000000000.0
sg75
F-1000000000000000.0
sg76
I01
sg77
I01
sbsg78
I01
sg79
g80
sg81
I00
sg82
I00
sg83
g404
sg85
g86
sg87
I00
sg88
I00
sg89
I00
sg90
V/lab/data/app3/2013/1306/130620/
p782
sg92
g86
sg93
I00
sg94
I01
sg95
S'Mean                   = 1371.363636\nStd. deviation         =  14.791107\nStd. error of the mean =   4.677359\nPk-Pk                  =  40.000000\n\nMean                   =   0.672213\nStd. deviation         =   0.088712\nStd. error of the mean =   0.028053\nPk-Pk                  =   0.300101\n\n'
p783
sg97
g86
sg98
Fnan
sg99
VHHHEIGEN:andor2norm
p784
sg101
VBRAGGPOS:Yfiberhalf
p785
sg103
g86
sg104
F1.0
sg105
g275
sg106
Fnan
sg61
VYwig_HHH
p786
sg108
S'#\n# Column index\n#  0  SEQ:shot\n#  1  BRAGGPOS:Yfiberhalf\n#  2  HHHEIGEN:andor2norm\n\n2122\t\t1371.0000\t\t0.5854\t\t\n2123\t\t1371.0000\t\t0.5972\t\t\n2124\t\t1371.0000\t\t0.5440\t\t\n2125\t\t1391.0000\t\t0.5975\t\t\n2126\t\t1391.0000\t\t0.7018\t\t\n2127\t\t1391.0000\t\t0.6667\t\t\n2128\t\t1351.0000\t\t0.8011\t\t\n2129\t\t1351.0000\t\t0.7051\t\t\n2130\t\t1351.0000\t\t0.8441\t\t\n2131\t\t1373.0000\t\t0.7158\t\t\n2132\t\t1373.0000\t\t0.6356\t\t'
p787
sg110
g111
sg112
I00
sg113
V2122:2132
p788
sg115
g86
sg116
F10.0
sg117
I01
sg118
Fnan
sg119
g120
sg121
I00
sbag4
(g14
tp789
Rp790
(dp791
g9
g10
sg18
g275
sg20
Fnan
sg21
g4
(g22
tp792
Rp793
(dp794
g26
g27
(g28
(I0
tp795
g30
tp796
Rp797
(I1
(I5
I1
tp798
g134
I00
S'&\x9bG\x05{\xd0\x84\xc0\xd1\xb0h\xd08\xdaf@\xc4\xac\xe7\xac\xf8\xdc\xd3@\x00\x00\x00\x00\x00\x00\x00\x00\x00\x00\x00\x00\x00\x00\x08@'
p799
tp800
bsg9
g10
sg42
g27
(g28
(I0
tp801
g30
tp802
Rp803
(I1
(I5
I1
tp804
g134
I00
S'"(\x90\xdb\xf5\x0bi@\xfe\xce\xaeg\'"\xdb?\x95h`\xf0\x98\xde\x91@\x00\x00\x00\x00\x00\x00\x00\x00\x00\x00\x00\x00\x00\x00\x00\x00'
p805
tp806
bsg49
g50
sg51
Fnan
sg52
F1000000000000000.0
sg53
F1000000000000000.0
sg54
g0
(g1
g2
(lp807
I01
aI01
aI01
aI00
aI00
atp808
Rp809
(dp810
g59
S'fit_mask_items'
p811
sg61
g54
sbsg62
g27
(g28
(I0
tp812
g30
tp813
Rp814
(I1
(I5
I1
tp815
g37
I00
S'\x00\x00\x00\x00\x00@\x9f\xc0\x00\x00\x00\x00\x00`f@\x00\x00\x00\x00\x00X\xbb@\x00\x00\x00\x00\x00\x00\x00\x00\x00\x00\x00\x00\x00\x00\x08@'
p816
tp817
bsg69
g302
sg71
Fnan
sg72
S'Parabola'
p818
sg74
F-1000000000000000.0
sg75
F-1000000000000000.0
sg76
I01
sg77
I01
sbsg78
I01
sg79
g80
sg81
I00
sg82
I01
sg83
g404
sg85
g86
sg87
I00
sg88
I00
sg89
I00
sg90
V/lab/data/app3/2013/1310/131004/
p819
sg92
g86
sg93
I00
sg94
I01
sg95
S'Mean                   = 182.250000\nStd. deviation         =   2.165064\nStd. error of the mean =   0.652791\nPk-Pk                  =   6.000000\n\nMean                   = 16899.640718\nStd. deviation         = 4098.961667\nStd. error of the mean = 1235.883444\nPk-Pk                  = 12441.735874\n\n'
p820
sg97
g86
sg98
Fnan
sg99
VANDOR1EIGEN_re:signal
p821
sg101
VBRAGGPOS:Hgimblehalf
p822
sg103
g86
sg104
F1.0
sg105
g275
sg106
Fnan
sg61
VHGimblehalf_half
p823
sg108
S'#\n# Column index\n#  0  SEQ:shot\n#  1  BRAGGPOS:Hgimblehalf\n#  2  ANDOR1EIGEN_re:signal\n\n1236\t\t182.0000\t\t21559.7056\t\t\n1237\t\t182.0000\t\t19807.2899\t\t\n1238\t\t182.0000\t\t17666.1324\t\t\n1239\t\t185.0000\t\t14960.0696\t\t\n1240\t\t185.0000\t\t16937.7248\t\t\n1241\t\t185.0000\t\t19412.7916\t\t\n1242\t\t179.0000\t\t9641.3058\t\t\n1243\t\t179.0000\t\t11405.5077\t\t\n1244\t\t179.0000\t\t10654.1241\t\t\n1245\t\t183.0000\t\t19638.2627\t\t\n1246\t\t183.0000\t\t19029.7329\t\t\n1247\t\t183.0000\t\t22083.0417\t\t'
p824
sg110
g111
sg112
I00
sg113
V1236:1247
p825
sg115
g404
sg116
F10.0
sg117
I01
sg118
Fnan
sg119
g120
sg121
I00
sbag4
(g14
tp826
Rp827
(dp828
g9
g10
sg18
g275
sg20
Fnan
sg21
g4
(g22
tp829
Rp830
(dp831
g26
g27
(g28
(I0
tp832
g30
tp833
Rp834
(I1
(I5
I1
tp835
g134
I00
S'c(Y\xde\xb8\\\x87\xc0\xf6\xd7\x17\xa3G~\x82@\xd3\xd4F\xd2\xc2\xbc\xd4@\x00\x00\x00\x00\x00\x00\x00\x00\x00\x00\x00\x00\x00\x00\x08@'
p836
tp837
bsg9
g10
sg42
g27
(g28
(I0
tp838
g30
tp839
Rp840
(I1
(I5
I1
tp841
g134
I00
S'\x0b_\xa1\x97e\x1dc@zc\xdeo\x936\xd2?2{\x8dv|\x80\x8e@\x00\x00\x00\x00\x00\x00\x00\x00\x00\x00\x00\x00\x00\x00\x00\x00'
p842
tp843
bsg49
g50
sg51
Fnan
sg52
F1000000000000000.0
sg53
F1000000000000000.0
sg54
g0
(g1
g2
(lp844
I01
aI01
aI01
aI00
aI00
atp845
Rp846
(dp847
g59
S'fit_mask_items'
p848
sg61
g54
sbsg62
g27
(g28
(I0
tp849
g30
tp850
Rp851
(I1
(I5
I1
tp852
g37
I00
S'\x00\x00\x00\x00\x00@\x9f\xc0\x00\x00\x00\x00\x00\xd0\x87@\x00\x00\x00\x00\x00j\xf8@\x00\x00\x00\x00\x00\x00\x00\x00\x00\x00\x00\x00\x00\x00\x08@'
p853
tp854
bsg69
g302
sg71
Fnan
sg72
g818
sg74
F-1000000000000000.0
sg75
F-1000000000000000.0
sg76
I01
sg77
I01
sbsg78
I01
sg79
g80
sg81
I00
sg82
I01
sg83
g404
sg85
g86
sg87
I00
sg88
I00
sg89
I00
sg90
V/lab/data/app3/2013/1310/131004/
p855
sg92
g86
sg93
I00
sg94
I01
sg95
S'Mean                   = 590.916667\nStd. deviation         =   2.325881\nStd. error of the mean =   0.701279\nPk-Pk                  =   6.000000\n\nMean                   = 16627.028429\nStd. deviation         = 4604.857267\nStd. error of the mean = 1388.416706\nPk-Pk                  = 12296.958489\n\n'
p856
sg97
g86
sg98
Fnan
sg99
VANDOR1EIGEN_re:signal
p857
sg101
VBRAGGPOS:Vgimblehalf
p858
sg103
g86
sg104
F1.0
sg105
g275
sg106
Fnan
sg61
VVGimblehalf_half
p859
sg108
S'#\n# Column index\n#  0  SEQ:shot\n#  1  BRAGGPOS:Vgimblehalf\n#  2  ANDOR1EIGEN_re:signal\n\n1245\t\t591.0000\t\t19638.2627\t\t\n1246\t\t591.0000\t\t19029.7329\t\t\n1247\t\t591.0000\t\t22083.0417\t\t\n1248\t\t594.0000\t\t16541.4553\t\t\n1249\t\t594.0000\t\t16160.3540\t\t\n1250\t\t594.0000\t\t19306.9702\t\t\n1251\t\t588.0000\t\t10080.2397\t\t\n1252\t\t588.0000\t\t11265.4225\t\t\n1253\t\t588.0000\t\t11391.1915\t\t\n1254\t\t588.0000\t\t9942.3901\t\t\n1255\t\t592.0000\t\t22239.3486\t\t\n1256\t\t592.0000\t\t21845.9319\t\t\n1257\t\t'
p860
sg110
g111
sg112
I00
sg113
V1245:1257
p861
sg115
g86
sg116
F10.0
sg117
I01
sg118
Fnan
sg119
g120
sg121
I00
sbatp862
Rp863
(dp864
g59
S'datasets_items'
p865
sg61
g12
sbsg82
I01
sg83
VBraggBeam
p866
sg471
I2
sg472
g827
sg473
g0
(g1
g2
(lp867
I1
aI2
aI3
aI4
aI5
aI6
aI7
aI8
aI9
aI10
aI11
atp868
Rp869
(dp870
g59
S'grids_items'
p871
sg61
g473
sbsg479
I1
sg61
VBraggBeam
p872
sbag4
(g5
tp873
Rp874
(dp875
g9
g10
sg11
I1
sg12
g0
(g1
g2
(lp876
g4
(g14
tp877
Rp878
(dp879
g9
g10
sg18
g275
sg20
Fnan
sg21
g4
(g22
tp880
Rp881
(dp882
g26
g27
(g28
(I0
tp883
g30
tp884
Rp885
(I1
(I5
I1
tp886
g34
(S'f8'
p887
I0
I1
tp888
Rp889
(I3
S'<'
p890
NNNI-1
I-1
I0
tp891
bI00
S'\x8cZE!t"\xd0\xc0A\xd3a\x83\xae\x03\x85@\x9b\xa66\x8c\xa8\xf3\xf5@\x00\x00\x00\x00\x00\x00\x00\x00\x00\x00\x00\x00\x00\x00\x00\x00'
p892
tp893
bsg9
g10
sg42
g27
(g28
(I0
tp894
g30
tp895
Rp896
(I1
(I5
I1
tp897
g889
I00
S'\x1c\x9d\x01\x89\x18p\xb3@\x0b\x95s\xbf\xbe\xc0\xb7?<\xf7\xa3 \xc7J\xa8@\x00\x00\x00\x00\x00\x00\x00\x00\x00\x00\x00\x00\x00\x00\x00\x00'
p898
tp899
bsg49
g50
sg51
Fnan
sg52
F1000000000000000.0
sg53
F1000000000000000.0
sg54
g0
(g1
g2
(lp900
I01
aI01
aI01
aI01
aI01
atp901
Rp902
(dp903
g59
S'fit_mask_items'
p904
sg61
g54
sbsg62
g27
(g28
(I0
tp905
g30
tp906
Rp907
(I1
(I5
I1
tp908
g37
I00
S'\x00\x00\x00\x00\x00\x88\xd3\xc033333\xff\x84@\x00\x00\x00\x00\x00\xbd\xff@\x00\x00\x00\x00\x00\x00\x00\x00\x00\x00\x00\x00\x00\x00\x00\x00'
p909
tp910
bsg69
g302
sg71
Fnan
sg72
S'Parabola'
p911
sg74
F-1000000000000000.0
sg75
F-1000000000000000.0
sg76
I00
sg77
I00
sbsg78
I01
sg79
g80
sg81
I00
sg82
I01
sg83
Vhwig
p912
sg85
g86
sg87
I00
sg88
I00
sg89
I00
sg90
V/lab/data/app3/2013/1309/130919/
p913
sg92
g404
sg93
I00
sg94
I01
sg95
S'Mean                   = 671.168750\nStd. deviation         =   0.630197\nStd. error of the mean =   0.162716\nPk-Pk                  =   2.000000\n\nMean                   = 84154.558750\nStd. deviation         = 16457.318688\nStd. error of the mean = 4249.261414\nPk-Pk                  = 55408.450000\n\n'
p914
sg97
g86
sg98
Fnan
sg99
VCPP:nfit
p915
sg101
VLATTICEPOS:beam2H
p916
sg103
g404
sg104
F1.0
sg105
g275
sg106
Fnan
sg61
Vh2wig
p917
sg108
S'#\n# Column index\n#  0  SEQ:shot\n#  1  LATTICEPOS:beam2H\n#  2  CPP:nfit\n\n7527\t\t671.3000\t\t75500.0800\t\t\n7528\t\t671.3000\t\t81354.8600\t\t\n7529\t\t671.3000\t\t82938.6800\t\t\n7530\t\t672.3000\t\t57211.5500\t\t\n7531\t\t672.3000\t\t56976.6000\t\t\n7532\t\t672.3000\t\t54502.9500\t\t\n7533\t\t670.3000\t\t76028.6600\t\t\n7534\t\t670.3000\t\t78738.7000\t\t\n7535\t\t670.3000\t\t90550.5900\t\t\n7536\t\t671.0000\t\t92677.9300\t\t\n7537\t\t671.0000\t\t91112.5700\t\t\n7538\t\t671.0000\t\t1.023e+05\t\t\n7539\t\t671.0000\t\t97270.3600\t\t\n7540\t\t671.0000\t\t1.099e+05\t\t\n7541\t\t671.0000\t\t99704.1500\t\t\n7542\t\t671.0000\t\t99655.4600\t\t'
p918
sg110
g111
sg112
I00
sg113
V7527:7542
p919
sg115
g404
sg116
F10.0
sg117
I01
sg118
Fnan
sg119
g120
sg121
I00
sbag4
(g14
tp920
Rp921
(dp922
g9
g10
sg18
g275
sg20
Fnan
sg21
g4
(g22
tp923
Rp924
(dp925
g26
g27
(g28
(I0
tp926
g30
tp927
Rp928
(I1
(I5
I1
tp929
g134
I00
S' g-\xe2\xfa\xa3\xcd\xc0\xc3\xe6R\x89\xa2\x05\x7f@\x8dk\xeb\xce\x01q\xf7@\x00\x00\x00\x00\x00\x00\x00\x00\x00\x00\x00\x00\x00\x00\x00\x00'
p930
tp931
bsg9
g10
sg42
g27
(g28
(I0
tp932
g30
tp933
Rp934
(I1
(I5
I1
tp935
g134
I00
S';\xde`\x07"\x12\xb2@\xf2\xae\xe2\xc1\xa8\x97\xbe?uu4v\xad\xc6\xb3@\x00\x00\x00\x00\x00\x00\x00\x00\x00\x00\x00\x00\x00\x00\x00\x00'
p936
tp937
bsg49
g50
sg51
Fnan
sg52
F1000000000000000.0
sg53
F1000000000000000.0
sg54
g0
(g1
g2
(lp938
I01
aI01
aI01
aI01
aI01
atp939
Rp940
(dp941
g59
S'fit_mask_items'
p942
sg61
g54
sbsg62
g27
(g28
(I0
tp943
g30
tp944
Rp945
(I1
(I5
I1
tp946
g37
I00
S'\x00\x00\x00\x00\x00\x88\xb3\xc0\x00\x00\x00\x00\x00\x14\x7f@\x00\x00\x00\x00\x00j\xf8@\x00\x00\x00\x00\x00\x00\x00\x00\x00\x00\x00\x00\x00\x00\x00\x00'
p947
tp948
bsg69
g302
sg71
Fnan
sg72
g911
sg74
F-1000000000000000.0
sg75
F-1000000000000000.0
sg76
I01
sg77
I01
sbsg78
I01
sg79
g80
sg81
I00
sg82
I01
sg83
Vh1wig
p949
sg85
g86
sg87
I00
sg88
I00
sg89
I00
sg90
V/lab/data/app3/2013/1310/131002/
p950
sg92
g404
sg93
I00
sg94
I01
sg95
S'Mean                   = 496.463158\nStd. deviation         =   0.889832\nStd. error of the mean =   0.209735\nPk-Pk                  =   3.000000\n\nMean                   = 83869.013158\nStd. deviation         = 18189.627049\nStd. error of the mean = 4287.336211\nPk-Pk                  = 65459.780000\n\n'
p951
sg97
g86
sg98
Fnan
sg99
g406
sg101
VLATTICEPOS:beam1H
p952
sg103
g404
sg104
F1.0
sg105
g275
sg106
Fnan
sg61
Vh1wig
p953
sg108
S'#\n# Column index\n#  0  SEQ:shot\n#  1  LATTICEPOS:beam1H\n#  2  CPP:nfit\n\n9416\t\t497.0000\t\t85238.8100\t\t\n9417\t\t497.0000\t\t85030.8500\t\t\n9418\t\t497.0000\t\t85929.0800\t\t\n9419\t\t498.0000\t\t53316.9900\t\t\n9420\t\t498.0000\t\t64765.0500\t\t\n9421\t\t498.0000\t\t51389.4200\t\t\n9423\t\t496.0000\t\t93440.2200\t\t\n9424\t\t496.0000\t\t1.037e+05\t\t\n9425\t\t496.0000\t\t1.072e+05\t\t\n9426\t\t495.0000\t\t64525.2600\t\t\n9427\t\t495.0000\t\t68513.8300\t\t\n9428\t\t495.0000\t\t63735.0800\t\t\n9429\t\t496.4000\t\t96727.0900\t\t\n9430\t\t496.4000\t\t98929.6200\t\t\n9431\t\t496.4000\t\t1.023e+05\t\t\n9432\t\t496.4000\t\t1.168e+05\t\t\n9433\t\t496.4000\t\t87466.7800\t\t\n9434\t\t496.4000\t\t86953.9400\t\t\n9435\t\t496.4000\t\t77528.8300\t\t'
p954
sg110
g111
sg112
I00
sg113
V9416:9435,-9422
p955
sg115
g404
sg116
F10.0
sg117
I01
sg118
Fnan
sg119
g120
sg121
I00
sbag4
(g14
tp956
Rp957
(dp958
g9
g10
sg18
g275
sg20
Fnan
sg21
g4
(g22
tp959
Rp960
(dp961
g26
g32
sg9
g10
sg42
g45
sg49
g50
sg51
Fnan
sg52
F1000000000000000.0
sg53
F1000000000000000.0
sg54
g0
(g1
g2
(lp962
I01
aI01
aI01
aI00
aI01
atp963
Rp964
(dp965
g59
S'fit_mask_items'
p966
sg61
g54
sbsg62
g65
sg69
g70
sg71
Fnan
sg72
g73
sg74
F-1000000000000000.0
sg75
F-1000000000000000.0
sg76
I00
sg77
I00
sbsg78
I01
sg79
g80
sg81
I00
sg82
I00
sg83
g404
sg85
g86
sg87
I00
sg88
I00
sg89
I00
sg90
V/lab/data/app3/2013/1307/130610/
p967
sg92
g404
sg93
I00
sg94
I01
sg95
S'Mean                   = 209.317073\nStd. deviation         =  37.035539\nStd. error of the mean =   5.855833\nPk-Pk                  = 160.000000\n\nMean                   = 820443958292.682983\nStd. deviation         = 462593371444.603271\nStd. error of the mean = 73142434213.062103\nPk-Pk                  = 1547029710000.000000\n\n'
p968
sg97
g86
sg98
Fnan
sg99
VCPP:peakd_sph
p969
sg101
VLatticeMod:freq
p970
sg103
g404
sg104
F1.0
sg105
g275
sg106
Fnan
sg61
Vlatticefreq
p971
sg108
S'#\n# Column index\n#  0  SEQ:shot\n#  1  LatticeMod:freq\n#  2  CPP:peakd_sph\n\n8826\t\t\n8827\t\t110.0000\t\t9.293e+11\t\t\n8828\t\t120.0000\t\t1.317e+12\t\t\n8829\t\t130.0000\t\t1.145e+12\t\t\n8830\t\t140.0000\t\t1.330e+12\t\t\n8831\t\t150.0000\t\t1.196e+12\t\t\n8832\t\t160.0000\t\t1.370e+12\t\t\n8833\t\t170.0000\t\t1.153e+12\t\t\n8834\t\t180.0000\t\t1.116e+12\t\t\n8835\t\t190.0000\t\t1.132e+12\t\t\n8836\t\t200.0000\t\t8.122e+11\t\t\n8837\t\t210.0000\t\t6.475e+11\t\t\n8838\t\t220.0000\t\t4.286e+11\t\t\n8839\t\t230.0000\t\t9.637e+10\t\t\n8840\t\t240.0000\t\t1.186e+12\t\t\n8841\t\t250.0000\t\t1.430e+12\t\t\n8842\t\t260.0000\t\t1.304e+12\t\t\n8843\t\t270.0000\t\t1.452e+12\t\t\n8844\t\t200.0000\t\t8.521e+11\t\t\n8845\t\t202.0000\t\t7.709e+11\t\t\n8846\t\t204.0000\t\t8.754e+11\t\t\n8847\t\t206.0000\t\t7.702e+11\t\t\n8848\t\t208.0000\t\t7.339e+11\t\t\n8849\t\t210.0000\t\t6.297e+11\t\t\n8850\t\t212.0000\t\t5.060e+11\t\t\n8851\t\t214.0000\t\t3.857e+11\t\t\n8852\t\t216.0000\t\t3.291e+11\t\t\n8853\t\t218.0000\t\t3.056e+11\t\t\n8854\t\t220.0000\t\t3.308e+11\t\t\n8855\t\t222.0000\t\t3.006e+11\t\t\n8856\t\t224.0000\t\t2.686e+11\t\t\n8857\t\t226.0000\t\t2.316e+11\t\t\n8858\t\t228.0000\t\t2.498e+11\t\t\n8859\t\t230.0000\t\t2.009e+11\t\t\n8860\t\t232.0000\t\t2.253e+11\t\t\n8861\t\t234.0000\t\t2.712e+11\t\t\n8862\t\t236.0000\t\t4.320e+11\t\t\n8863\t\t238.0000\t\t8.602e+11\t\t\n8864\t\t240.0000\t\t1.643e+12\t\t\n8865\t\t242.0000\t\t1.246e+12\t\t\n8866\t\t244.0000\t\t1.532e+12\t\t\n8867\t\t246.0000\t\t1.642e+12\t\t'
p972
sg110
g111
sg112
I00
sg113
V8826:8870
p973
sg115
g404
sg116
F10.0
sg117
I01
sg118
Fnan
sg119
g120
sg121
I00
sbag4
(g14
tp974
Rp975
(dp976
g9
g10
sg18
Vred
p977
sg20
Fnan
sg21
g4
(g22
tp978
Rp979
(dp980
g26
g27
(g28
(I0
tp981
g30
tp982
Rp983
(I1
(I5
I1
tp984
g380
I00
S'\xe4-~H\xaaY\xdc\xc0c\xc0,=\x96\x00\x85@\xa4X\x81(4\x99\xfe@\x00\x00\x00\x00\x00\x00\x00\x00\x00\x00\x00\x00\x00\x00\x00\x00'
p985
tp986
bsg9
g10
sg42
g27
(g28
(I0
tp987
g30
tp988
Rp989
(I1
(I5
I1
tp990
g380
I00
S'\xd3\x03N\xf7Z\xed\xbd@\xff\xea\xe9e8\x8a\xbf?\xbai\x91\xaf\x15\x8a\xad@\x00\x00\x00\x00\x00\x00\x00\x00\x00\x00\x00\x00\x00\x00\x00\x00'
p991
tp992
bsg49
g50
sg51
Fnan
sg52
F1000000000000000.0
sg53
F1000000000000000.0
sg54
g0
(g1
g2
(lp993
I01
aI01
aI01
aI01
aI01
atp994
Rp995
(dp996
g59
S'fit_mask_items'
p997
sg61
g54
sbsg62
g27
(g28
(I0
tp998
g30
tp999
Rp1000
(I1
(I5
I1
tp1001
g37
I00
S'\x00\x00\x00\x00\x00\x88\xd3\xc0\x00\x00\x00\x00\x00\x00\x85@\x00\x00\x00\x00\x00\xbd\xff@\x00\x00\x00\x00\x00\x00\x00\x00\x00\x00\x00\x00\x00\x00\x00\x00'
p1002
tp1003
bsg69
g302
sg71
Fnan
sg72
S'Parabola'
p1004
sg74
F-1000000000000000.0
sg75
F-1000000000000000.0
sg76
I00
sg77
I00
sbsg78
I01
sg79
g80
sg81
I00
sg82
I01
sg83
Vhwig
p1005
sg85
g86
sg87
I00
sg88
I00
sg89
I00
sg90
V/lab/data/app3/2013/1309/130919/
p1006
sg92
g404
sg93
I00
sg94
I01
sg95
S'Mean                   = 671.168750\nStd. deviation         =   0.630197\nStd. error of the mean =   0.162716\nPk-Pk                  =   2.000000\n\nMean                   = 210.572913\nStd. deviation         =   1.739565\nStd. error of the mean =   0.449154\nPk-Pk                  =   5.860500\n\n'
p1007
sg97
g86
sg98
Fnan
sg99
VCPP:ax1c
p1008
sg101
g916
sg103
g404
sg104
F1.0
sg105
g977
sg106
Fnan
sg61
Vh2wigax1c
p1009
sg108
S'#\n# Column index\n#  0  SEQ:shot\n#  1  LATTICEPOS:beam2H\n#  2  CPP:ax1c\n\n7527\t\t671.3000\t\t210.8176\t\t\n7528\t\t671.3000\t\t211.0145\t\t\n7529\t\t671.3000\t\t210.8582\t\t\n7530\t\t672.3000\t\t213.5115\t\t\n7531\t\t672.3000\t\t213.5694\t\t\n7532\t\t672.3000\t\t213.9298\t\t\n7533\t\t670.3000\t\t208.4583\t\t\n7534\t\t670.3000\t\t208.2192\t\t\n7535\t\t670.3000\t\t208.0693\t\t\n7536\t\t671.0000\t\t209.3809\t\t\n7537\t\t671.0000\t\t210.1107\t\t\n7538\t\t671.0000\t\t210.8817\t\t\n7539\t\t671.0000\t\t210.3743\t\t\n7540\t\t671.0000\t\t210.1238\t\t\n7541\t\t671.0000\t\t210.1524\t\t\n7542\t\t671.0000\t\t209.6950\t\t'
p1010
sg110
g111
sg112
I00
sg113
V7527:7542
p1011
sg115
g404
sg116
F10.0
sg117
I01
sg118
Fnan
sg119
g120
sg121
I00
sbag4
(g14
tp1012
Rp1013
(dp1014
g9
g10
sg18
Vred
p1015
sg20
Fnan
sg21
g4
(g22
tp1016
Rp1017
(dp1018
g26
g27
(g28
(I0
tp1019
g30
tp1020
Rp1021
(I1
(I5
I1
tp1022
g34
(S'f8'
p1023
I0
I1
tp1024
Rp1025
(I3
S'<'
p1026
NNNI-1
I-1
I0
tp1027
bI00
S'\xe8\xf2\xbb\xeb\xa4#\xe3\xbf\x0e~91\xc7\r\x7f@/\x97;\x15\xef\rm@\x00\x00\x00\x00\x00\x00\x00\x00\x00\x00\x00\x00\x00\x00\x00\x00'
p1028
tp1029
bsg9
g10
sg42
g27
(g28
(I0
tp1030
g30
tp1031
Rp1032
(I1
(I5
I1
tp1033
g1025
I00
S'M;\xdb\x17\x0fs\xd3?aq \x91I\x9c\xcc?\xc8\x8f-\xa2\xf2=\xd0?\x00\x00\x00\x00\x00\x00\x00\x00\x00\x00\x00\x00\x00\x00\x00\x00'
p1034
tp1035
bsg49
g50
sg51
Fnan
sg52
F1000000000000000.0
sg53
F1000000000000000.0
sg54
g0
(g1
g2
(lp1036
I01
aI01
aI01
aI01
aI01
atp1037
Rp1038
(dp1039
g59
S'fit_mask_items'
p1040
sg61
g54
sbsg62
g1000
sg69
g302
sg71
Fnan
sg72
g1004
sg74
F-1000000000000000.0
sg75
F-1000000000000000.0
sg76
I00
sg77
I00
sbsg78
I01
sg79
g80
sg81
I00
sg82
I01
sg83
g912
sg85
g86
sg87
I00
sg88
I00
sg89
I00
sg90
V/lab/data/app3/2013/1310/131002/
p1041
sg92
g404
sg93
I00
sg94
I01
sg95
S'Mean                   = 496.463158\nStd. deviation         =   0.889832\nStd. error of the mean =   0.209735\nPk-Pk                  =   3.000000\n\nMean                   = 255.674011\nStd. deviation         =   1.074096\nStd. error of the mean =   0.253167\nPk-Pk                  =   3.959800\n\n'
p1042
sg97
g86
sg98
Fnan
sg99
VCPP:ax1c
p1043
sg101
VLATTICEPOS:beam1H
p1044
sg103
g404
sg104
F1.0
sg105
g1015
sg106
Fnan
sg61
Vh1wigax1c
p1045
sg108
S'#\n# Column index\n#  0  SEQ:shot\n#  1  LATTICEPOS:beam1H\n#  2  CPP:ax1c\n\n9416\t\t497.0000\t\t254.9914\t\t\n9417\t\t497.0000\t\t255.7872\t\t\n9418\t\t497.0000\t\t254.7496\t\t\n9419\t\t498.0000\t\t254.0333\t\t\n9420\t\t498.0000\t\t254.7147\t\t\n9421\t\t498.0000\t\t254.2463\t\t\n9422\t\t\n9423\t\t496.0000\t\t256.1689\t\t\n9424\t\t496.0000\t\t256.2529\t\t\n9425\t\t496.0000\t\t255.3760\t\t\n9426\t\t495.0000\t\t257.3880\t\t\n9427\t\t495.0000\t\t257.5449\t\t\n9428\t\t495.0000\t\t257.9931\t\t\n9429\t\t496.4000\t\t255.8213\t\t\n9430\t\t496.4000\t\t256.0591\t\t\n9431\t\t496.4000\t\t255.5419\t\t\n9432\t\t496.4000\t\t254.1861\t\t\n9433\t\t496.4000\t\t255.4926\t\t\n9434\t\t496.4000\t\t255.8027\t\t\n9435\t\t496.4000\t\t255.6562\t\t'
p1046
sg110
g111
sg112
I00
sg113
V9416:9435
p1047
sg115
g404
sg116
F10.0
sg117
I01
sg118
Fnan
sg119
g120
sg121
I00
sbatp1048
Rp1049
(dp1050
g59
S'datasets_items'
p1051
sg61
g12
sbsg82
I00
sg83
VLattice Tasks
p1052
sg471
I2
sg472
g921
sg473
g0
(g1
g2
(lp1053
I1
aI2
aI3
aI4
aI5
aI6
aI7
aI8
atp1054
Rp1055
(dp1056
g59
S'grids_items'
p1057
sg61
g473
sbsg479
I2
sg61
VLattice Tasks
p1058
sbag4
(g5
tp1059
Rp1060
(dp1061
g9
g10
sg11
I4
sg12
g0
(g1
g2
(lp1062
g4
(g14
tp1063
Rp1064
(dp1065
g9
g10
sg18
Vblack
p1066
sg20
Fnan
sg21
g4
(g22
tp1067
Rp1068
(dp1069
g26
g27
(g28
(I0
tp1070
g30
tp1071
Rp1072
(I1
(I5
I1
tp1073
g34
(S'f8'
p1074
I0
I1
tp1075
Rp1076
(I3
S'<'
p1077
NNNI-1
I-1
I0
tp1078
bI00
S'\x85V\x94\xfd\x96\xb7\xbc\xc0\xc3\xe4\x9cF\x0b\x81\x87@\xd82~\x90I\xdeKA\x00\x00\x00\x00\x00\x00\x00\x00\x00\x00\x00\x00\x00\x00\x00\x00'
p1079
tp1080
bsg9
g10
sg42
g27
(g28
(I0
tp1081
g30
tp1082
Rp1083
(I1
(I5
I1
tp1084
g1076
I00
S'2W\x93a\xbc\x14\xd3@\x83R\xf2l\xcba\x83@\x9cP;\x05\xc1\xafjA\x00\x00\x00\x00\x00\x00\x00\x00\x00\x00\x00\x00\x00\x00\x00\x00'
p1085
tp1086
bsg49
g50
sg51
Fnan
sg52
F1000000000000000.0
sg53
F1000000000000000.0
sg54
g0
(g1
g2
(lp1087
I01
aI01
aI01
aI01
aI01
atp1088
Rp1089
(dp1090
g59
S'fit_mask_items'
p1091
sg61
g54
sbsg62
g27
(g28
(I0
tp1092
g30
tp1093
Rp1094
(I1
(I5
I1
tp1095
g37
I00
S'\x00\x00\x00\x00\x00@\x8f\xc0\x00\x00\x00\x00\x00@\x84@\x00\x00\x00\x00\x80O"A\x00\x00\x00\x00\x00\x00\x00\x00\x00\x00\x00\x00\x00\x00\x00\x00'
p1096
tp1097
bsg69
g302
sg71
Fnan
sg72
g341
sg74
F-1000000000000000.0
sg75
F-1000000000000000.0
sg76
I00
sg77
I00
sbsg78
I01
sg79
g80
sg81
I00
sg82
I01
sg83
g404
sg85
g86
sg87
I00
sg88
I00
sg89
I00
sg90
V/lab/data/app3/2013/1309/130925/
p1098
sg92
g86
sg93
I00
sg94
I01
sg95
S'Mean                   =  14.576923\nStd. deviation         =  14.232069\nStd. error of the mean =   2.846414\nPk-Pk                  =  47.000000\n\nMean                   = 295202.903846\nStd. deviation         = 29615.511570\nStd. error of the mean = 5923.102314\nPk-Pk                  = 127587.500000\n\n'
p1099
sg97
g86
sg98
Fnan
sg99
VCPP:nfit_mott
p1100
sg101
VDIMPLELATTICE:lock_Er
p1101
sg103
g86
sg104
F1.0
sg105
g1066
sg106
Fnan
sg61
Vnfit
p1102
sg108
S'#\n# Column index\n#  0  SEQ:shot\n#  1  DIMPLELATTICE:lock_Er\n#  2  CPP:nfit_mott\n\n8250\t\t1.0000\t\t2.501e+05\t\t\n8251\t\t2.0000\t\t2.776e+05\t\t\n8252\t\t3.0000\t\t2.942e+05\t\t\n8253\t\t4.0000\t\t2.642e+05\t\t\n8254\t\t5.0000\t\t3.120e+05\t\t\n8255\t\t6.0000\t\t2.980e+05\t\t\n8256\t\t7.0000\t\t2.325e+05\t\t\n8257\t\t8.0000\t\t2.814e+05\t\t\n8258\t\t8.0000\t\t3.282e+05\t\t\n8259\t\t12.0000\t\t3.249e+05\t\t\n8260\t\t16.0000\t\t3.082e+05\t\t\n8261\t\t20.0000\t\t2.694e+05\t\t\n8262\t\t24.0000\t\t3.017e+05\t\t\n8263\t\t28.0000\t\t2.674e+05\t\t\n8264\t\t32.0000\t\t3.266e+05\t\t\n8265\t\t36.0000\t\t3.239e+05\t\t\n8266\t\t40.0000\t\t2.994e+05\t\t\n8267\t\t44.0000\t\t2.997e+05\t\t\n8268\t\t48.0000\t\t2.540e+05\t\t\n8270\t\t2.0000\t\t3.601e+05\t\t\n8271\t\t3.0000\t\t2.926e+05\t\t\n8272\t\t4.0000\t\t3.225e+05\t\t\n8273\t\t5.0000\t\t2.843e+05\t\t\n8274\t\t6.0000\t\t2.632e+05\t\t\n8275\t\t7.0000\t\t3.373e+05\t\t\n8276\t\t8.0000\t\t3.017e+05\t\t\n8277\t\t\n8278\t\t\n8279\t\t'
p1103
sg110
g111
sg112
I00
sg113
V8250:8280,-8269
p1104
sg115
g86
sg116
F10.0
sg117
I01
sg118
Fnan
sg119
g120
sg121
I00
sbag4
(g14
tp1105
Rp1106
(dp1107
g9
g10
sg18
Vblack
p1108
sg20
Fnan
sg21
g4
(g22
tp1109
Rp1110
(dp1111
g26
g27
(g28
(I0
tp1112
g30
tp1113
Rp1114
(I1
(I5
I1
tp1115
g1076
I00
S'X\xa6\x16\xcf$\xc7\xa3@\x9b_\xf87\xbe$m\xc0\x85\x8b\xdbV\xe7woA\x00\x00\x00\x00\x00\x00\x00\x00\x00\x00\x00\x00\x00\x00\x00\x00'
p1116
tp1117
bsg9
g10
sg42
g27
(g28
(I0
tp1118
g30
tp1119
Rp1120
(I1
(I5
I1
tp1121
g1076
I00
S'0Y\xe2f\xa1\xa0\xc7@i\x82\xd2\xc5\x03\xe4s@<`\x9a\x91\xaa\xbetA\x00\x00\x00\x00\x00\x00\x00\x00\x00\x00\x00\x00\x00\x00\x00\x00'
p1122
tp1123
bsg49
g50
sg51
Fnan
sg52
F1000000000000000.0
sg53
F1000000000000000.0
sg54
g0
(g1
g2
(lp1124
I01
aI01
aI01
aI00
aI01
atp1125
Rp1126
(dp1127
g59
S'fit_mask_items'
p1128
sg61
g54
sbsg62
g27
(g28
(I0
tp1129
g30
tp1130
Rp1131
(I1
(I5
I1
tp1132
g37
I00
S'\x00\x00\x00\x00\x00j\xf8\xc0333333\xf3?\x00\x00\x00\x00\xc0\\5A\x00\x00\x00\x00\x00\x00\x00\x00\x00\x00\x00\x00\x00\x00\x00\x00'
p1133
tp1134
bsg69
g302
sg71
Fnan
sg72
g341
sg74
F-1000000000000000.0
sg75
F-1000000000000000.0
sg76
I00
sg77
I00
sbsg78
I01
sg79
g80
sg81
I00
sg82
I01
sg83
g404
sg85
g86
sg87
I00
sg88
I00
sg89
I00
sg90
V/lab/data/app3/2013/1309/130925/
p1135
sg92
g404
sg93
I00
sg94
I01
sg95
S'Mean                   =  14.576923\nStd. deviation         =  14.232069\nStd. error of the mean =   2.846414\nPk-Pk                  =  47.000000\n\nMean                   = 13152940576923.076172\nStd. deviation         = 3080038408734.230469\nStd. error of the mean = 616007681746.846191\nPk-Pk                  = 14430907000000.000000\n\n'
p1136
sg97
g86
sg98
Fnan
sg99
VCPP:peakd_mott
p1137
sg101
VDIMPLELATTICE:lock_Er
p1138
sg103
g404
sg104
F1.0
sg105
g1108
sg106
Fnan
sg61
Vpeakd_mott
p1139
sg108
S'#\n# Column index\n#  0  SEQ:shot\n#  1  DIMPLELATTICE:lock_Er\n#  2  CPP:peakd_mott\n\n8250\t\t1.0000\t\t1.603e+12\t\t\n8251\t\t2.0000\t\t8.022e+12\t\t\n8252\t\t3.0000\t\t1.162e+13\t\t\n8253\t\t4.0000\t\t1.598e+13\t\t\n8254\t\t5.0000\t\t1.603e+13\t\t\n8255\t\t6.0000\t\t1.558e+13\t\t\n8256\t\t7.0000\t\t1.259e+13\t\t\n8257\t\t8.0000\t\t1.549e+13\t\t\n8258\t\t8.0000\t\t1.280e+13\t\t\n8259\t\t12.0000\t\t1.368e+13\t\t\n8260\t\t16.0000\t\t1.540e+13\t\t\n8261\t\t20.0000\t\t1.247e+13\t\t\n8262\t\t24.0000\t\t1.526e+13\t\t\n8263\t\t28.0000\t\t1.251e+13\t\t\n8264\t\t32.0000\t\t1.379e+13\t\t\n8265\t\t36.0000\t\t1.394e+13\t\t\n8266\t\t40.0000\t\t1.569e+13\t\t\n8267\t\t44.0000\t\t1.229e+13\t\t\n8268\t\t48.0000\t\t1.420e+13\t\t\n8270\t\t2.0000\t\t8.235e+12\t\t\n8271\t\t3.0000\t\t1.378e+13\t\t\n8272\t\t4.0000\t\t1.336e+13\t\t\n8273\t\t5.0000\t\t1.446e+13\t\t\n8274\t\t6.0000\t\t1.601e+13\t\t\n8275\t\t7.0000\t\t1.268e+13\t\t\n8276\t\t8.0000\t\t1.450e+13\t\t\n8277\t\t\n8278\t\t\n8279\t\t'
p1140
sg110
g111
sg112
I00
sg113
V8250:8280,-8269
p1141
sg115
g404
sg116
F10.0
sg117
I01
sg118
Fnan
sg119
g120
sg121
I00
sbag4
(g14
tp1142
Rp1143
(dp1144
g9
g10
sg18
Vblack
p1145
sg20
Fnan
sg21
g4
(g22
tp1146
Rp1147
(dp1148
g26
g1114
sg9
g10
sg42
g1120
sg49
g50
sg51
Fnan
sg52
F1000000000000000.0
sg53
F1000000000000000.0
sg54
g0
(g1
g2
(lp1149
I01
aI01
aI01
aI00
aI01
atp1150
Rp1151
(dp1152
g59
S'fit_mask_items'
p1153
sg61
g54
sbsg62
g1131
sg69
g302
sg71
Fnan
sg72
g341
sg74
F-1000000000000000.0
sg75
F-1000000000000000.0
sg76
I00
sg77
I00
sbsg78
I01
sg79
g80
sg81
I00
sg82
I01
sg83
g404
sg85
g86
sg87
I00
sg88
I00
sg89
I00
sg90
V/lab/data/app3/2013/1309/130925/
p1154
sg92
g404
sg93
I00
sg94
I01
sg95
S'Mean                   =  14.576923\nStd. deviation         =  14.232069\nStd. error of the mean =   2.846414\nPk-Pk                  =  47.000000\n\nMean                   = 234.048700\nStd. deviation         =   0.226255\nStd. error of the mean =   0.045251\nPk-Pk                  =   0.842800\n\n'
p1155
sg97
g86
sg98
Fnan
sg99
VCPP:ax0c
p1156
sg101
VDIMPLELATTICE:lock_Er
p1157
sg103
g404
sg104
F1.0
sg105
g1145
sg106
Fnan
sg61
Vax0
p1158
sg108
S'#\n# Column index\n#  0  SEQ:shot\n#  1  DIMPLELATTICE:lock_Er\n#  2  CPP:ax0c\n\n8250\t\t1.0000\t\t234.6071\t\t\n8251\t\t2.0000\t\t234.5281\t\t\n8252\t\t3.0000\t\t234.0082\t\t\n8253\t\t4.0000\t\t233.9717\t\t\n8254\t\t5.0000\t\t233.9548\t\t\n8255\t\t6.0000\t\t233.8848\t\t\n8256\t\t7.0000\t\t233.8633\t\t\n8257\t\t8.0000\t\t233.8099\t\t\n8258\t\t8.0000\t\t234.1710\t\t\n8259\t\t12.0000\t\t234.1804\t\t\n8260\t\t16.0000\t\t233.8522\t\t\n8261\t\t20.0000\t\t233.9706\t\t\n8262\t\t24.0000\t\t233.8710\t\t\n8263\t\t28.0000\t\t233.9217\t\t\n8264\t\t32.0000\t\t234.2927\t\t\n8265\t\t36.0000\t\t233.9881\t\t\n8266\t\t40.0000\t\t233.9491\t\t\n8267\t\t44.0000\t\t233.9478\t\t\n8268\t\t48.0000\t\t233.7643\t\t\n8270\t\t2.0000\t\t234.5524\t\t\n8271\t\t3.0000\t\t234.1328\t\t\n8272\t\t4.0000\t\t234.1829\t\t\n8273\t\t5.0000\t\t233.9406\t\t\n8274\t\t6.0000\t\t233.7966\t\t\n8275\t\t7.0000\t\t234.1375\t\t\n8276\t\t8.0000\t\t233.9866\t\t\n8277\t\t\n8278\t\t\n8279\t\t'
p1159
sg110
g111
sg112
I00
sg113
V8250:8280,-8269
p1160
sg115
g404
sg116
F10.0
sg117
I01
sg118
Fnan
sg119
g120
sg121
I00
sbag4
(g14
tp1161
Rp1162
(dp1163
g9
g10
sg18
Vblack
p1164
sg20
Fnan
sg21
g4
(g22
tp1165
Rp1166
(dp1167
g26
g1114
sg9
g10
sg42
g1120
sg49
g50
sg51
Fnan
sg52
F1000000000000000.0
sg53
F1000000000000000.0
sg54
g0
(g1
g2
(lp1168
I01
aI01
aI01
aI00
aI01
atp1169
Rp1170
(dp1171
g59
S'fit_mask_items'
p1172
sg61
g54
sbsg62
g1131
sg69
g302
sg71
Fnan
sg72
g341
sg74
F-1000000000000000.0
sg75
F-1000000000000000.0
sg76
I00
sg77
I00
sbsg78
I01
sg79
g80
sg81
I00
sg82
I01
sg83
g404
sg85
g86
sg87
I00
sg88
I00
sg89
I00
sg90
V/lab/data/app3/2013/1309/130925/
p1173
sg92
g404
sg93
I00
sg94
I01
sg95
S'Mean                   =  14.576923\nStd. deviation         =  14.232069\nStd. error of the mean =   2.846414\nPk-Pk                  =  47.000000\n\nMean                   = 211.261604\nStd. deviation         =   0.601314\nStd. error of the mean =   0.120263\nPk-Pk                  =   3.369900\n\n'
p1174
sg97
g86
sg98
Fnan
sg99
VCPP:ax1c
p1175
sg101
VDIMPLELATTICE:lock_Er
p1176
sg103
g404
sg104
F1.0
sg105
g1164
sg106
Fnan
sg61
Vax1
p1177
sg108
S'#\n# Column index\n#  0  SEQ:shot\n#  1  DIMPLELATTICE:lock_Er\n#  2  CPP:ax1c\n\n8250\t\t1.0000\t\t208.5605\t\t\n8251\t\t2.0000\t\t211.4616\t\t\n8252\t\t3.0000\t\t211.1838\t\t\n8253\t\t4.0000\t\t211.0676\t\t\n8254\t\t5.0000\t\t210.9088\t\t\n8255\t\t6.0000\t\t211.7669\t\t\n8256\t\t7.0000\t\t211.5751\t\t\n8257\t\t8.0000\t\t210.9317\t\t\n8258\t\t8.0000\t\t211.3376\t\t\n8259\t\t12.0000\t\t211.3885\t\t\n8260\t\t16.0000\t\t211.4995\t\t\n8261\t\t20.0000\t\t211.3814\t\t\n8262\t\t24.0000\t\t211.4469\t\t\n8263\t\t28.0000\t\t211.0132\t\t\n8264\t\t32.0000\t\t211.8373\t\t\n8265\t\t36.0000\t\t211.2916\t\t\n8266\t\t40.0000\t\t211.1881\t\t\n8267\t\t44.0000\t\t211.0905\t\t\n8268\t\t48.0000\t\t211.2352\t\t\n8270\t\t2.0000\t\t211.1408\t\t\n8271\t\t3.0000\t\t211.9304\t\t\n8272\t\t4.0000\t\t211.4191\t\t\n8273\t\t5.0000\t\t211.7927\t\t\n8274\t\t6.0000\t\t211.4770\t\t\n8275\t\t7.0000\t\t211.4210\t\t\n8276\t\t8.0000\t\t211.4549\t\t\n8277\t\t\n8278\t\t\n8279\t\t'
p1178
sg110
g111
sg112
I00
sg113
V8250:8280,-8269
p1179
sg115
g404
sg116
F10.0
sg117
I01
sg118
Fnan
sg119
g120
sg121
I00
sbag4
(g14
tp1180
Rp1181
(dp1182
g9
g10
sg18
Vblack
p1183
sg20
Fnan
sg21
g4
(g22
tp1184
Rp1185
(dp1186
g26
g1114
sg9
g10
sg42
g1120
sg49
g50
sg51
Fnan
sg52
F1000000000000000.0
sg53
F1000000000000000.0
sg54
g0
(g1
g2
(lp1187
I01
aI01
aI01
aI00
aI01
atp1188
Rp1189
(dp1190
g59
S'fit_mask_items'
p1191
sg61
g54
sbsg62
g1131
sg69
g302
sg71
Fnan
sg72
g341
sg74
F-1000000000000000.0
sg75
F-1000000000000000.0
sg76
I00
sg77
I00
sbsg78
I01
sg79
g80
sg81
I00
sg82
I01
sg83
g404
sg85
g86
sg87
I00
sg88
I00
sg89
I00
sg90
V/lab/data/app3/2013/1309/130925/
p1192
sg92
g404
sg93
I00
sg94
I01
sg95
S'Mean                   =  14.576923\nStd. deviation         =  14.232069\nStd. error of the mean =   2.846414\nPk-Pk                  =  47.000000\n\nMean                   =  14.615462\nStd. deviation         =   3.487762\nStd. error of the mean =   0.697552\nPk-Pk                  =  18.407740\n\n'
p1193
sg97
g86
sg98
Fnan
sg99
VCPP:ax0w
p1194
sg101
VDIMPLELATTICE:lock_Er
p1195
sg103
g404
sg104
F1.0
sg105
g1183
sg106
Fnan
sg61
Vax0w
p1196
sg108
S'#\n# Column index\n#  0  SEQ:shot\n#  1  DIMPLELATTICE:lock_Er\n#  2  CPP:ax0w\n\n8250\t\t1.0000\t\t31.1297\t\t\n8251\t\t2.0000\t\t17.0524\t\t\n8252\t\t3.0000\t\t13.9891\t\t\n8253\t\t4.0000\t\t13.7240\t\t\n8254\t\t5.0000\t\t14.1576\t\t\n8255\t\t6.0000\t\t13.0779\t\t\n8256\t\t7.0000\t\t12.7219\t\t\n8257\t\t8.0000\t\t13.0120\t\t\n8258\t\t8.0000\t\t14.0683\t\t\n8259\t\t12.0000\t\t14.3102\t\t\n8260\t\t16.0000\t\t13.2071\t\t\n8261\t\t20.0000\t\t13.1491\t\t\n8262\t\t24.0000\t\t13.1450\t\t\n8263\t\t28.0000\t\t13.6953\t\t\n8264\t\t32.0000\t\t14.1771\t\t\n8265\t\t36.0000\t\t14.0457\t\t\n8266\t\t40.0000\t\t13.5836\t\t\n8267\t\t44.0000\t\t14.3044\t\t\n8268\t\t48.0000\t\t12.8481\t\t\n8270\t\t2.0000\t\t17.8536\t\t\n8271\t\t3.0000\t\t14.1443\t\t\n8272\t\t4.0000\t\t14.2246\t\t\n8273\t\t5.0000\t\t13.6497\t\t\n8274\t\t6.0000\t\t13.2609\t\t\n8275\t\t7.0000\t\t14.0411\t\t\n8276\t\t8.0000\t\t13.4297\t\t\n8277\t\t\n8278\t\t\n8279\t\t'
p1197
sg110
g111
sg112
I00
sg113
V8250:8280,-8269
p1198
sg115
g404
sg116
F10.0
sg117
I01
sg118
Fnan
sg119
g120
sg121
I00
sbag4
(g14
tp1199
Rp1200
(dp1201
g9
g10
sg18
Vblack
p1202
sg20
Fnan
sg21
g4
(g22
tp1203
Rp1204
(dp1205
g26
g1114
sg9
g10
sg42
g1120
sg49
g50
sg51
Fnan
sg52
F1000000000000000.0
sg53
F1000000000000000.0
sg54
g0
(g1
g2
(lp1206
I01
aI01
aI01
aI00
aI01
atp1207
Rp1208
(dp1209
g59
S'fit_mask_items'
p1210
sg61
g54
sbsg62
g1131
sg69
g302
sg71
Fnan
sg72
g341
sg74
F-1000000000000000.0
sg75
F-1000000000000000.0
sg76
I00
sg77
I00
sbsg78
I01
sg79
g80
sg81
I00
sg82
I01
sg83
g404
sg85
g86
sg87
I00
sg88
I00
sg89
I00
sg90
V/lab/data/app3/2013/1309/130925/
p1211
sg92
g404
sg93
I00
sg94
I01
sg95
S'Mean                   =  14.576923\nStd. deviation         =  14.232069\nStd. error of the mean =   2.846414\nPk-Pk                  =  47.000000\n\nMean                   =  14.309157\nStd. deviation         =   2.881069\nStd. error of the mean =   0.576214\nPk-Pk                  =  15.507910\n\n'
p1212
sg97
g86
sg98
Fnan
sg99
VCPP:ax1w
p1213
sg101
VDIMPLELATTICE:lock_Er
p1214
sg103
g404
sg104
F1.0
sg105
g1202
sg106
Fnan
sg61
Vax1w
p1215
sg108
S'#\n# Column index\n#  0  SEQ:shot\n#  1  DIMPLELATTICE:lock_Er\n#  2  CPP:ax1w\n\n8250\t\t1.0000\t\t27.5799\t\t\n8251\t\t2.0000\t\t16.5546\t\t\n8252\t\t3.0000\t\t14.0702\t\t\n8253\t\t4.0000\t\t12.0720\t\t\n8254\t\t5.0000\t\t13.0826\t\t\n8255\t\t6.0000\t\t13.5989\t\t\n8256\t\t7.0000\t\t12.7541\t\t\n8257\t\t8.0000\t\t13.1265\t\t\n8258\t\t8.0000\t\t14.3620\t\t\n8259\t\t12.0000\t\t14.1597\t\t\n8260\t\t16.0000\t\t13.4403\t\t\n8261\t\t20.0000\t\t13.4748\t\t\n8262\t\t24.0000\t\t13.7058\t\t\n8263\t\t28.0000\t\t12.7099\t\t\n8264\t\t32.0000\t\t14.4897\t\t\n8265\t\t36.0000\t\t14.3127\t\t\n8266\t\t40.0000\t\t12.7961\t\t\n8267\t\t44.0000\t\t13.3469\t\t\n8268\t\t48.0000\t\t12.9890\t\t\n8270\t\t2.0000\t\t17.1932\t\t\n8271\t\t3.0000\t\t13.7508\t\t\n8272\t\t4.0000\t\t14.3629\t\t\n8273\t\t5.0000\t\t13.2307\t\t\n8274\t\t6.0000\t\t12.1931\t\t\n8275\t\t7.0000\t\t14.5741\t\t\n8276\t\t8.0000\t\t14.1077\t\t\n8277\t\t\n8278\t\t\n8279\t\t'
p1216
sg110
g111
sg112
I00
sg113
V8250:8280,-8269
p1217
sg115
g404
sg116
F10.0
sg117
I01
sg118
Fnan
sg119
g120
sg121
I00
sbatp1218
Rp1219
(dp1220
g59
S'datasets_items'
p1221
sg61
g12
sbsg82
I00
sg83
VLatticeImage
p1222
sg471
I3
sg472
g1181
sg473
g0
(g1
g2
(lp1223
I1
aI2
aI3
aI4
aI5
aI6
atp1224
Rp1225
(dp1226
g59
S'grids_items'
p1227
sg61
g473
sbsg479
I2
sg61
VLatticeImage
p1228
sbag4
(g5
tp1229
Rp1230
(dp1231
g9
g10
sg11
I0
sg12
g0
(g1
g2
(lp1232
g4
(g14
tp1233
Rp1234
(dp1235
g9
g10
sg18
Vblack
p1236
sg20
Fnan
sg21
g4
(g22
tp1237
Rp1238
(dp1239
g26
g27
(g28
(I0
tp1240
g30
tp1241
Rp1242
(I1
(I5
I1
tp1243
g34
(S'f8'
p1244
I0
I1
tp1245
Rp1246
(I3
S'<'
p1247
NNNI-1
I-1
I0
tp1248
bI00
S'\x85V\x94\xfd\x96\xb7\xbc\xc0\xc3\xe4\x9cF\x0b\x81\x87@\xd82~\x90I\xdeKA\x00\x00\x00\x00\x00\x00\x00\x00\x00\x00\x00\x00\x00\x00\x00\x00'
p1249
tp1250
bsg9
g10
sg42
g27
(g28
(I0
tp1251
g30
tp1252
Rp1253
(I1
(I5
I1
tp1254
g1246
I00
S'2W\x93a\xbc\x14\xd3@\x83R\xf2l\xcba\x83@\x9cP;\x05\xc1\xafjA\x00\x00\x00\x00\x00\x00\x00\x00\x00\x00\x00\x00\x00\x00\x00\x00'
p1255
tp1256
bsg49
S'A0   |   Afit   |   Aerr   |   Fit Mask'
p1257
sg51
Fnan
sg52
F1000000000000000.0
sg53
F1000000000000000.0
sg54
g0
(g1
g2
(lp1258
I01
aI01
aI01
aI01
aI01
atp1259
Rp1260
(dp1261
g59
S'fit_mask_items'
p1262
sg61
g54
sbsg62
g27
(g28
(I0
tp1263
g30
tp1264
Rp1265
(I1
(I5
I1
tp1266
g34
(S'f8'
p1267
I0
I1
tp1268
Rp1269
(I3
S'<'
p1270
NNNI-1
I-1
I0
tp1271
bI00
S'\x00\x00\x00\x00\x00@\x8f\xc0\x00\x00\x00\x00\x00@\x84@\x00\x00\x00\x00\x80O"A\x00\x00\x00\x00\x00\x00\x00\x00\x00\x00\x00\x00\x00\x00\x00\x00'
p1272
tp1273
bsg69
g302
sg71
Fnan
sg72
S'Parabola'
p1274
sg74
F-1000000000000000.0
sg75
F-1000000000000000.0
sg76
I00
sg77
I00
sbsg78
I01
sg79
S'Description:'
p1275
sg81
I00
sg82
I01
sg83
g404
sg85
g86
sg87
I00
sg88
I00
sg89
I00
sg90
V/lab/data/app3/2013/1308/130830/
p1276
sg92
VNumber after ramping from 595G to 531G
p1277
sg93
I00
sg94
I01
sg95
S'Mean                   = 106.086957\nStd. deviation         =  65.590239\nStd. error of the mean =  13.983886\nPk-Pk                  = 190.000000\n\nMean                   = 313279.143478\nStd. deviation         = 54845.214619\nStd. error of the mean = 11693.039045\nPk-Pk                  = 168964.200000\n\n'
p1278
sg97
g86
sg98
Fnan
sg99
VCPP:nfit
p1279
sg101
VDIMPLELATTICE:knob6
p1280
sg103
g86
sg104
F1.0
sg105
g1236
sg106
Fnan
sg61
Vnfit
p1281
sg108
S'#\n# Column index\n#  0  SEQ:shot\n#  1  DIMPLELATTICE:knob6\n#  2  CPP:nfit\n\n2528\t\t200.0000\t\t2.391e+05\t\t\n2529\t\t200.0000\t\t2.178e+05\t\t\n2530\t\t20.0000\t\t3.817e+05\t\t\n2531\t\t20.0000\t\t3.563e+05\t\t\n2532\t\t10.0000\t\t3.451e+05\t\t\n2533\t\t20.0000\t\t3.465e+05\t\t\n2534\t\t30.0000\t\t3.554e+05\t\t\n2535\t\t40.0000\t\t3.559e+05\t\t\n2536\t\t50.0000\t\t3.364e+05\t\t\n2537\t\t60.0000\t\t3.712e+05\t\t\n2538\t\t70.0000\t\t3.868e+05\t\t\n2539\t\t80.0000\t\t3.712e+05\t\t\n2540\t\t90.0000\t\t3.600e+05\t\t\n2541\t\t110.0000\t\t3.233e+05\t\t\n2542\t\t120.0000\t\t3.288e+05\t\t\n2543\t\t130.0000\t\t2.996e+05\t\t\n2544\t\t140.0000\t\t3.128e+05\t\t\n2545\t\t150.0000\t\t2.998e+05\t\t\n2546\t\t160.0000\t\t2.651e+05\t\t\n2547\t\t170.0000\t\t2.731e+05\t\t\n2548\t\t180.0000\t\t2.400e+05\t\t\n2549\t\t190.0000\t\t2.202e+05\t\t\n2550\t\t200.0000\t\t2.194e+05\t\t'
p1282
sg110
S'o'
p1283
sg112
I00
sg113
V2528:2550
p1284
sg115
VRamp time (ms)
p1285
sg116
F10.0
sg117
I01
sg118
Fnan
sg119
S'Title:'
p1286
sg121
I00
sbag4
(g14
tp1287
Rp1288
(dp1289
g9
g10
sg18
Vblack
p1290
sg20
Fnan
sg21
g4
(g22
tp1291
Rp1292
(dp1293
g26
g27
(g28
(I0
tp1294
g30
tp1295
Rp1296
(I1
(I5
I1
tp1297
g1246
I00
S'X\xa6\x16\xcf$\xc7\xa3@\x9b_\xf87\xbe$m\xc0\x85\x8b\xdbV\xe7woA\x00\x00\x00\x00\x00\x00\x00\x00\x00\x00\x00\x00\x00\x00\x00\x00'
p1298
tp1299
bsg9
g10
sg42
g27
(g28
(I0
tp1300
g30
tp1301
Rp1302
(I1
(I5
I1
tp1303
g1246
I00
S'0Y\xe2f\xa1\xa0\xc7@i\x82\xd2\xc5\x03\xe4s@<`\x9a\x91\xaa\xbetA\x00\x00\x00\x00\x00\x00\x00\x00\x00\x00\x00\x00\x00\x00\x00\x00'
p1304
tp1305
bsg49
g1257
sg51
Fnan
sg52
F1000000000000000.0
sg53
F1000000000000000.0
sg54
g0
(g1
g2
(lp1306
I01
aI01
aI01
aI00
aI01
atp1307
Rp1308
(dp1309
g59
S'fit_mask_items'
p1310
sg61
g54
sbsg62
g27
(g28
(I0
tp1311
g30
tp1312
Rp1313
(I1
(I5
I1
tp1314
g1269
I00
S'\x00\x00\x00\x00\x00j\xf8\xc0333333\xf3?\x00\x00\x00\x00\xc0\\5A\x00\x00\x00\x00\x00\x00\x00\x00\x00\x00\x00\x00\x00\x00\x00\x00'
p1315
tp1316
bsg69
g302
sg71
Fnan
sg72
g1274
sg74
F-1000000000000000.0
sg75
F-1000000000000000.0
sg76
I00
sg77
I00
sbsg78
I01
sg79
g1275
sg81
I00
sg82
I00
sg83
g404
sg85
g86
sg87
I00
sg88
I00
sg89
I00
sg90
V/lab/data/app3/2013/1308/130829/
p1317
sg92
g404
sg93
I00
sg94
I01
sg95
S'Mean                   = 253.050000\nStd. deviation         = 283.630477\nStd. error of the mean =  65.069294\nPk-Pk                  = 899.000000\n\nMean                   =   0.054130\nStd. deviation         =   0.026222\nStd. error of the mean =   0.006016\nPk-Pk                  =   0.121030\n\n'
p1318
sg97
g86
sg98
Fnan
sg99
VCPP:TF_az
p1319
sg101
VDIMPLELATTICE:wait_at_top
p1320
sg103
g404
sg104
F1.0
sg105
g1290
sg106
Fnan
sg61
VTFaz
p1321
sg108
S'#\n# Column index\n#  0  SEQ:shot\n#  1  DIMPLELATTICE:wait_at_top\n#  2  CPP:TF_az\n\n2030\t\t1.0000\t\t0.0414\t\t\n2031\t\t11.0000\t\t0.0457\t\t\n2032\t\t21.0000\t\t0.0631\t\t\n2033\t\t31.0000\t\t0.0755\t\t\n2034\t\t41.0000\t\t0.0398\t\t\n2035\t\t51.0000\t\t0.0451\t\t\n2036\t\t61.0000\t\t0.1592\t\t\n2037\t\t71.0000\t\t0.0503\t\t\n2038\t\t81.0000\t\t0.0404\t\t\n2039\t\t91.0000\t\t0.0460\t\t\n2040\t\t101.0000\t\t0.0382\t\t\n2041\t\t100.0000\t\t0.0419\t\t\n2042\t\t200.0000\t\t0.0522\t\t\n2043\t\t300.0000\t\t0.0420\t\t\n2044\t\t400.0000\t\t0.0451\t\t\n2045\t\t500.0000\t\t0.0442\t\t\n2046\t\t600.0000\t\t0.0382\t\t\n2047\t\t700.0000\t\t0.0667\t\t\n2048\t\t800.0000\t\t0.0646\t\t\n2049\t\t900.0000\t\t0.0429\t\t\n2050\t\t'
p1322
sg110
g1283
sg112
I00
sg113
V2030:2060
p1323
sg115
g404
sg116
F10.0
sg117
I01
sg118
Fnan
sg119
g1286
sg121
I00
sbag4
(g14
tp1324
Rp1325
(dp1326
g9
g10
sg18
Vblack
p1327
sg20
Fnan
sg21
g4
(g22
tp1328
Rp1329
(dp1330
g26
g1296
sg9
g10
sg42
g1302
sg49
g1257
sg51
Fnan
sg52
F1000000000000000.0
sg53
F1000000000000000.0
sg54
g0
(g1
g2
(lp1331
I01
aI01
aI01
aI00
aI01
atp1332
Rp1333
(dp1334
g59
S'fit_mask_items'
p1335
sg61
g54
sbsg62
g1313
sg69
g302
sg71
Fnan
sg72
g1274
sg74
F-1000000000000000.0
sg75
F-1000000000000000.0
sg76
I00
sg77
I00
sbsg78
I01
sg79
g1275
sg81
I00
sg82
I00
sg83
g404
sg85
g86
sg87
I00
sg88
I00
sg89
I00
sg90
V/lab/data/app3/2013/1308/130829/
p1336
sg92
g404
sg93
I00
sg94
I01
sg95
S'Mean                   = 253.050000\nStd. deviation         = 283.630477\nStd. error of the mean =  65.069294\nPk-Pk                  = 899.000000\n\nMean                   =   0.079778\nStd. deviation         =   0.045695\nStd. error of the mean =   0.010483\nPk-Pk                  =   0.160637\n\n'
p1337
sg97
g86
sg98
Fnan
sg99
VCPP:TF_2d
p1338
sg101
VDIMPLELATTICE:wait_at_top
p1339
sg103
g404
sg104
F1.0
sg105
g1327
sg106
Fnan
sg61
VTF2d
p1340
sg108
S'#\n# Column index\n#  0  SEQ:shot\n#  1  DIMPLELATTICE:wait_at_top\n#  2  CPP:TF_2d\n\n2030\t\t1.0000\t\t0.0428\t\t\n2031\t\t11.0000\t\t0.0429\t\t\n2032\t\t21.0000\t\t0.1913\t\t\n2033\t\t31.0000\t\t0.1275\t\t\n2034\t\t41.0000\t\t0.0474\t\t\n2035\t\t51.0000\t\t0.0664\t\t\n2036\t\t61.0000\t\t0.1827\t\t\n2037\t\t71.0000\t\t0.0838\t\t\n2038\t\t81.0000\t\t0.0444\t\t\n2039\t\t91.0000\t\t0.0805\t\t\n2040\t\t101.0000\t\t0.0403\t\t\n2041\t\t100.0000\t\t0.0664\t\t\n2042\t\t200.0000\t\t0.1397\t\t\n2043\t\t300.0000\t\t0.0644\t\t\n2044\t\t400.0000\t\t0.0632\t\t\n2045\t\t500.0000\t\t0.0957\t\t\n2046\t\t600.0000\t\t0.0307\t\t\n2047\t\t700.0000\t\t0.0330\t\t\n2048\t\t800.0000\t\t0.0602\t\t\n2049\t\t900.0000\t\t0.0920\t\t\n2050\t\t'
p1341
sg110
g1283
sg112
I00
sg113
V2030:2060
p1342
sg115
g404
sg116
F10.0
sg117
I01
sg118
Fnan
sg119
g1286
sg121
I00
sbag4
(g14
tp1343
Rp1344
(dp1345
g9
g10
sg18
g1327
sg20
Fnan
sg21
g4
(g22
tp1346
Rp1347
(dp1348
g26
g1296
sg9
g10
sg42
g1302
sg49
g1257
sg51
Fnan
sg52
F1000000000000000.0
sg53
F1000000000000000.0
sg54
g0
(g1
g2
(lp1349
I01
aI01
aI01
aI00
aI01
atp1350
Rp1351
(dp1352
g59
S'fit_mask_items'
p1353
sg61
g54
sbsg62
g1313
sg69
g302
sg71
Fnan
sg72
g1274
sg74
F-1000000000000000.0
sg75
F-1000000000000000.0
sg76
I00
sg77
I00
sbsg78
I01
sg79
g1275
sg81
I00
sg82
I00
sg83
g404
sg85
g86
sg87
I00
sg88
I00
sg89
I00
sg90
V/lab/data/app3/2013/1308/130829/
p1354
sg92
g404
sg93
I00
sg94
I01
sg95
S'Mean                   = 288.619048\nStd. deviation         = 319.246953\nStd. error of the mean =  71.385789\nPk-Pk                  = 999.000000\n\nMean                   =  26.965418\nStd. deviation         =   0.705214\nStd. error of the mean =   0.157691\nPk-Pk                  =   3.546000\n\n'
p1355
sg97
g86
sg98
Fnan
sg99
VCPP:ax0w
p1356
sg101
VDIMPLELATTICE:wait_at_top
p1357
sg103
g404
sg104
F1.0
sg105
g1327
sg106
Fnan
sg61
Vax0w
p1358
sg108
S'#\n# Column index\n#  0  SEQ:shot\n#  1  DIMPLELATTICE:wait_at_top\n#  2  CPP:ax0w\n\n2030\t\t1.0000\t\t26.9333\t\t\n2031\t\t11.0000\t\t26.8279\t\t\n2032\t\t21.0000\t\t26.6467\t\t\n2033\t\t31.0000\t\t27.2348\t\t\n2034\t\t41.0000\t\t26.7475\t\t\n2035\t\t51.0000\t\t27.4783\t\t\n2036\t\t61.0000\t\t29.0728\t\t\n2037\t\t71.0000\t\t26.7010\t\t\n2038\t\t81.0000\t\t27.2879\t\t\n2039\t\t91.0000\t\t27.0236\t\t\n2040\t\t101.0000\t\t26.9949\t\t\n2041\t\t100.0000\t\t28.1222\t\t\n2042\t\t200.0000\t\t27.4474\t\t\n2043\t\t300.0000\t\t26.6561\t\t\n2044\t\t400.0000\t\t27.0443\t\t\n2045\t\t500.0000\t\t26.5590\t\t\n2046\t\t600.0000\t\t26.9816\t\t\n2047\t\t700.0000\t\t26.4631\t\t\n2048\t\t800.0000\t\t26.5547\t\t\n2049\t\t900.0000\t\t25.9696\t\t\n2050\t\t1000.0000\t\t25.5268\t\t'
p1359
sg110
g1283
sg112
I00
sg113
V2030:2060
p1360
sg115
g404
sg116
F10.0
sg117
I01
sg118
Fnan
sg119
g1286
sg121
I00
sbatp1361
Rp1362
(dp1363
g59
S'datasets_items'
p1364
sg61
g12
sbsg82
I00
sg83
VURamp
p1365
sg471
I1
sg472
g1234
sg473
g0
(g1
g2
(lp1366
I1
aI2
aI3
aI4
aI5
atp1367
Rp1368
(dp1369
g59
S'grids_items'
p1370
sg61
g473
sbsg479
I1
sg61
VURamp
p1371
sbag4
(g5
tp1372
Rp1373
(dp1374
g9
g10
sg11
I6
sg12
g0
(g1
g2
(lp1375
g4
(g14
tp1376
Rp1377
(dp1378
g9
g10
sg18
g1236
sg20
Fnan
sg21
g4
(g22
tp1379
Rp1380
(dp1381
g26
g1242
sg9
g10
sg42
g1253
sg49
g1257
sg51
Fnan
sg52
F1000000000000000.0
sg53
F1000000000000000.0
sg54
g0
(g1
g2
(lp1382
I01
aI01
aI01
aI01
aI01
atp1383
Rp1384
(dp1385
g59
S'fit_mask_items'
p1386
sg61
g54
sbsg62
g1265
sg69
g302
sg71
Fnan
sg72
g1274
sg74
F-1000000000000000.0
sg75
F-1000000000000000.0
sg76
I00
sg77
I00
sbsg78
I01
sg79
g1275
sg81
I00
sg82
I00
sg83
g404
sg85
g86
sg87
I00
sg88
I00
sg89
I00
sg90
V/lab/data/app3/2013/1309/130924/
p1387
sg92
g404
sg93
I00
sg94
I01
sg95
S'Mean                   =  94.400000\nStd. deviation         =  10.071743\nStd. error of the mean =   2.691786\nPk-Pk                  =  30.000000\n\nMean                   = 12123.853488\nStd. deviation         = 1115.411318\nStd. error of the mean = 298.106214\nPk-Pk                  = 4055.320235\n\n'
p1388
sg97
g86
sg98
Fnan
sg99
VANDOR2EIGEN:signal
p1389
sg101
VBRAGGPOS:braggwpone
p1390
sg103
g86
sg104
F1.0
sg105
g1236
sg106
Fnan
sg61
VA2_wp
p1391
sg108
S'#\n# Column index\n#  0  SEQ:shot\n#  1  BRAGGPOS:braggwpone\n#  2  ANDOR2EIGEN:signal\n\n7816\t\t90.0000\t\t12618.0806\t\t\n7817\t\t90.0000\t\t11015.2747\t\t\n7818\t\t90.0000\t\t12792.0515\t\t\n7819\t\t100.0000\t\t11342.8849\t\t\n7820\t\t100.0000\t\t12509.4565\t\t\n7821\t\t100.0000\t\t12693.0097\t\t\n7822\t\t110.0000\t\t10167.2860\t\t\n7823\t\t110.0000\t\t12344.2924\t\t\n7824\t\t110.0000\t\t10533.6254\t\t\n7825\t\t80.0000\t\t14222.6063\t\t\n7826\t\t80.0000\t\t10987.9923\t\t\n7827\t\t80.0000\t\t12550.7840\t\t\n7828\t\t92.0000\t\t12492.7083\t\t\n7829\t\t92.0000\t\t11711.4703\t\t\n7830\t\t92.0000\t\t13876.2796\t\t'
p1392
sg110
g1283
sg112
I00
sg113
V7816:7890
p1393
sg115
g404
sg116
F10.0
sg117
I01
sg118
Fnan
sg119
g1286
sg121
I00
sbag4
(g14
tp1394
Rp1395
(dp1396
g9
g10
sg18
g1236
sg20
Fnan
sg21
g4
(g22
tp1397
Rp1398
(dp1399
g26
g1242
sg9
g10
sg42
g1253
sg49
g1257
sg51
Fnan
sg52
F1000000000000000.0
sg53
F1000000000000000.0
sg54
g0
(g1
g2
(lp1400
I01
aI01
aI01
aI01
aI01
atp1401
Rp1402
(dp1403
g59
S'fit_mask_items'
p1404
sg61
g54
sbsg62
g1265
sg69
g302
sg71
Fnan
sg72
g1274
sg74
F-1000000000000000.0
sg75
F-1000000000000000.0
sg76
I00
sg77
I00
sbsg78
I01
sg79
g1275
sg81
I00
sg82
I00
sg83
g404
sg85
g86
sg87
I00
sg88
I00
sg89
I00
sg90
V/lab/data/app3/2013/1309/130924/
p1405
sg92
g404
sg93
I00
sg94
I01
sg95
S'Mean                   =  94.400000\nStd. deviation         =  10.071743\nStd. error of the mean =   2.691786\nPk-Pk                  =  30.000000\n\nMean                   = 642.593180\nStd. deviation         =  86.693284\nStd. error of the mean =  23.169755\nPk-Pk                  = 288.192576\n\n'
p1406
sg97
g86
sg98
Fnan
sg99
VMANTAEIGEN:signal
p1407
sg101
g1390
sg103
g86
sg104
F1.0
sg105
g1236
sg106
Fnan
sg61
VManta_wp
p1408
sg108
S'#\n# Column index\n#  0  SEQ:shot\n#  1  BRAGGPOS:braggwpone\n#  2  MANTAEIGEN:signal\n\n7816\t\t90.0000\t\t643.7801\t\t\n7817\t\t90.0000\t\t754.5818\t\t\n7818\t\t90.0000\t\t795.3654\t\t\n7819\t\t100.0000\t\t761.7933\t\t\n7820\t\t100.0000\t\t631.2251\t\t\n7821\t\t100.0000\t\t770.6154\t\t\n7822\t\t110.0000\t\t624.8113\t\t\n7823\t\t110.0000\t\t642.0799\t\t\n7824\t\t110.0000\t\t507.1728\t\t\n7825\t\t80.0000\t\t579.2033\t\t\n7826\t\t80.0000\t\t568.0838\t\t\n7827\t\t80.0000\t\t562.3955\t\t\n7828\t\t92.0000\t\t644.3343\t\t\n7829\t\t92.0000\t\t539.3791\t\t\n7830\t\t92.0000\t\t614.0767\t\t'
p1409
sg110
g1283
sg112
I00
sg113
V7816:7890
p1410
sg115
g404
sg116
F10.0
sg117
I01
sg118
Fnan
sg119
g1286
sg121
I00
sbag4
(g14
tp1411
Rp1412
(dp1413
g9
g10
sg18
g1236
sg20
Fnan
sg21
g4
(g22
tp1414
Rp1415
(dp1416
g26
g1242
sg9
g10
sg42
g1253
sg49
g1257
sg51
Fnan
sg52
F1000000000000000.0
sg53
F1000000000000000.0
sg54
g0
(g1
g2
(lp1417
I01
aI01
aI01
aI01
aI01
atp1418
Rp1419
(dp1420
g59
S'fit_mask_items'
p1421
sg61
g54
sbsg62
g1265
sg69
g302
sg71
Fnan
sg72
g1274
sg74
F-1000000000000000.0
sg75
F-1000000000000000.0
sg76
I00
sg77
I00
sbsg78
I01
sg79
g1275
sg81
I00
sg82
I00
sg83
g404
sg85
g86
sg87
I00
sg88
I00
sg89
I00
sg90
V/lab/data/app3/2013/1309/130924/
p1422
sg92
g404
sg93
I00
sg94
I01
sg95
S'Mean                   = 119.181818\nStd. deviation         =   7.395554\nStd. error of the mean =   2.338679\nPk-Pk                  =  20.000000\n\nMean                   = 9449.495722\nStd. deviation         = 1893.954120\nStd. error of the mean = 598.920880\nPk-Pk                  = 5662.155517\n\n'
p1423
sg97
g86
sg98
Fnan
sg99
g1389
sg101
VBRAGGPOS:Xfiberone
p1424
sg103
g86
sg104
F1.0
sg105
g1236
sg106
Fnan
sg61
VA2_X
p1425
sg108
S'#\n# Column index\n#  0  SEQ:shot\n#  1  BRAGGPOS:Xfiberone\n#  2  ANDOR2EIGEN:signal\n\n8028\t\t109.0000\t\t6813.1736\t\t\n8029\t\t109.0000\t\t7646.0707\t\t\n8030\t\t109.0000\t\t6285.6912\t\t\n8031\t\t119.0000\t\t11947.8467\t\t\n8032\t\t119.0000\t\t11270.3974\t\t\n8033\t\t119.0000\t\t11391.5965\t\t\n8034\t\t129.0000\t\t10155.2720\t\t\n8035\t\t129.0000\t\t9375.7747\t\t\n8036\t\t129.0000\t\t8042.1714\t\t\n8037\t\t120.0000\t\t9736.7559\t\t\n8038\t\t120.0000\t\t11279.7029\t\t'
p1426
sg110
g1283
sg112
I00
sg113
V8028:8041
p1427
sg115
g404
sg116
F10.0
sg117
I01
sg118
Fnan
sg119
g1286
sg121
I00
sbag4
(g14
tp1428
Rp1429
(dp1430
g9
g10
sg18
g1236
sg20
Fnan
sg21
g4
(g22
tp1431
Rp1432
(dp1433
g26
g1242
sg9
g10
sg42
g1253
sg49
g1257
sg51
Fnan
sg52
F1000000000000000.0
sg53
F1000000000000000.0
sg54
g0
(g1
g2
(lp1434
I01
aI01
aI01
aI01
aI01
atp1435
Rp1436
(dp1437
g59
S'fit_mask_items'
p1438
sg61
g54
sbsg62
g1265
sg69
g302
sg71
Fnan
sg72
g1274
sg74
F-1000000000000000.0
sg75
F-1000000000000000.0
sg76
I00
sg77
I00
sbsg78
I01
sg79
g1275
sg81
I00
sg82
I00
sg83
g404
sg85
g86
sg87
I00
sg88
I00
sg89
I00
sg90
V/lab/data/app3/2013/1309/130924/
p1439
sg92
g404
sg93
I00
sg94
I01
sg95
S'Mean                   = 119.181818\nStd. deviation         =   7.395554\nStd. error of the mean =   2.338679\nPk-Pk                  =  20.000000\n\nMean                   = 1639.296505\nStd. deviation         = 464.446284\nStd. error of the mean = 146.870811\nPk-Pk                  = 1236.328171\n\n'
p1440
sg97
g86
sg98
Fnan
sg99
g1407
sg101
VBRAGGPOS:Xfiberone
p1441
sg103
g86
sg104
F1.0
sg105
g1236
sg106
Fnan
sg61
VManta_X
p1442
sg108
S'#\n# Column index\n#  0  SEQ:shot\n#  1  BRAGGPOS:Xfiberone\n#  2  MANTAEIGEN:signal\n\n8028\t\t109.0000\t\t1264.5914\t\t\n8029\t\t109.0000\t\t1123.0715\t\t\n8030\t\t109.0000\t\t1064.8659\t\t\n8031\t\t119.0000\t\t2132.5568\t\t\n8032\t\t119.0000\t\t2264.5040\t\t\n8033\t\t119.0000\t\t2079.9921\t\t\n8034\t\t129.0000\t\t1232.3930\t\t\n8035\t\t129.0000\t\t1352.0847\t\t\n8036\t\t129.0000\t\t1364.0836\t\t\n8037\t\t120.0000\t\t1852.9243\t\t\n8038\t\t120.0000\t\t2301.1941\t\t'
p1443
sg110
g1283
sg112
I00
sg113
V8028:8041
p1444
sg115
g404
sg116
F10.0
sg117
I01
sg118
Fnan
sg119
g1286
sg121
I00
sbag4
(g14
tp1445
Rp1446
(dp1447
g9
g10
sg18
g1236
sg20
Fnan
sg21
g4
(g22
tp1448
Rp1449
(dp1450
g26
g27
(g28
(I0
tp1451
g30
tp1452
Rp1453
(I1
(I5
I1
tp1454
g134
I00
S'f\xe65\x88W\xaeZ\xc0t\x93L\x96I\xf0]@\xb7F\xf7\x86\xad6\xdc@\x00\x00\x00\x00\x00\x00\x00\x00\x00\x00\x00\x00\x00\x00\x00\x00'
p1455
tp1456
bsg9
g10
sg42
g27
(g28
(I0
tp1457
g30
tp1458
Rp1459
(I1
(I5
I1
tp1460
g134
I00
S'4\xd0F=\xfd\xda/@!#\xa8\x1d\x96\xba\xe1?&~\xa5\x86\xb4\x16\x91@\x00\x00\x00\x00\x00\x00\x00\x00\x00\x00\x00\x00\x00\x00\x00\x00'
p1461
tp1462
bsg49
g1257
sg51
Fnan
sg52
F1000000000000000.0
sg53
F1000000000000000.0
sg54
g0
(g1
g2
(lp1463
I01
aI01
aI01
aI01
aI01
atp1464
Rp1465
(dp1466
g59
S'fit_mask_items'
p1467
sg61
g54
sbsg62
g27
(g28
(I0
tp1468
g30
tp1469
Rp1470
(I1
(I5
I1
tp1471
g1269
I00
S'\x00\x00\x00\x00\x00@\x8f\xc0\x00\x00\x00\x00\x00\x00i@\x00\x00\x00\x00\x00\x88\xd3@\x00\x00\x00\x00\x00\x00\x00\x00\x00\x00\x00\x00\x00\x00\x00\x00'
p1472
tp1473
bsg69
g302
sg71
Fnan
sg72
g1274
sg74
F-1000000000000000.0
sg75
F-1000000000000000.0
sg76
I01
sg77
I01
sbsg78
I01
sg79
g1275
sg81
I00
sg82
I00
sg83
g404
sg85
g86
sg87
I00
sg88
I00
sg89
I00
sg90
V/lab/data/app3/2013/1309/130924/
p1474
sg92
g404
sg93
I00
sg94
I01
sg95
S'Mean                   = 119.181818\nStd. deviation         =   7.395554\nStd. error of the mean =   2.338679\nPk-Pk                  =  20.000000\n\nMean                   = 23037.967594\nStd. deviation         = 5517.988551\nStd. error of the mean = 1744.941192\nPk-Pk                  = 14980.582626\n\n'
p1475
sg97
g86
sg98
Fnan
sg99
VANDOR1EIGEN:signal
p1476
sg101
g1424
sg103
g86
sg104
F1.0
sg105
g1236
sg106
Fnan
sg61
VA1_X
p1477
sg108
S'#\n# Column index\n#  0  SEQ:shot\n#  1  BRAGGPOS:Xfiberone\n#  2  ANDOR1EIGEN:signal\n\n8028\t\t109.0000\t\t16029.6614\t\t\n8029\t\t109.0000\t\t16216.3956\t\t\n8030\t\t109.0000\t\t17418.1533\t\t\n8031\t\t119.0000\t\t31010.2440\t\t\n8032\t\t119.0000\t\t28136.8351\t\t\n8033\t\t119.0000\t\t30182.9188\t\t\n8034\t\t129.0000\t\t19718.9199\t\t\n8035\t\t129.0000\t\t20806.0824\t\t\n8036\t\t129.0000\t\t19452.0412\t\t\n8037\t\t120.0000\t\t25957.6595\t\t\n8038\t\t120.0000\t\t28488.7323\t\t'
p1478
sg110
g1283
sg112
I00
sg113
V8028:8041
p1479
sg115
g404
sg116
F10.0
sg117
I01
sg118
Fnan
sg119
g1286
sg121
I00
sbag4
(g14
tp1480
Rp1481
(dp1482
g9
g10
sg18
g1236
sg20
Fnan
sg21
g4
(g22
tp1483
Rp1484
(dp1485
g26
g27
(g28
(I0
tp1486
g30
tp1487
Rp1488
(I1
(I5
I1
tp1489
g134
I00
S'\x1d\xe6\xd0\x9e\x1cm \xc0f\x1d\x1a\xb8\xfa\xa9~@%\x94$\r\xe2B\x9f@\x00\x00\x00\x00\x00\x00\x00\x00\x00\x00\x00\x00\x00\x00\x00\x00'
p1490
tp1491
bsg9
g10
sg42
g27
(g28
(I0
tp1492
g30
tp1493
Rp1494
(I1
(I5
I1
tp1495
g134
I00
S'?i\xfb\x9b\xe9K\xf0?\xed\xb2?\x8a\xa9\x99\xde?FS\x13\xc1I\xa4R@\x00\x00\x00\x00\x00\x00\x00\x00\x00\x00\x00\x00\x00\x00\x00\x00'
p1496
tp1497
bsg49
g1257
sg51
Fnan
sg52
F1000000000000000.0
sg53
F1000000000000000.0
sg54
g0
(g1
g2
(lp1498
I01
aI01
aI01
aI01
aI01
atp1499
Rp1500
(dp1501
g59
S'fit_mask_items'
p1502
sg61
g54
sbsg62
g1265
sg69
g302
sg71
Fnan
sg72
g1274
sg74
F-1000000000000000.0
sg75
F-1000000000000000.0
sg76
I00
sg77
I00
sbsg78
I01
sg79
g1275
sg81
I00
sg82
I01
sg83
g404
sg85
g86
sg87
I00
sg88
I00
sg89
I00
sg90
V/lab/data/app3/2013/1309/130924/
p1503
sg92
g404
sg93
I00
sg94
I01
sg95
S'Mean                   = 315.363636\nStd. deviation         =   7.425665\nStd. error of the mean =   2.348201\nPk-Pk                  =  20.000000\n\nMean                   = 2504.527890\nStd. deviation         = 713.485826\nStd. error of the mean = 225.624029\nPk-Pk                  = 2134.151461\n\n'
p1504
sg97
g86
sg98
Fnan
sg99
g1407
sg101
VBRAGGPOS:Yfiberone
p1505
sg103
g86
sg104
F1.0
sg105
g1236
sg106
Fnan
sg61
VManta_Y
p1506
sg108
S'#\n# Column index\n#  0  SEQ:shot\n#  1  BRAGGPOS:Yfiberone\n#  2  MANTAEIGEN:signal\n\n8071\t\t315.0000\t\t3105.2551\t\t\n8072\t\t315.0000\t\t3103.0741\t\t\n8073\t\t315.0000\t\t3174.6898\t\t\n8074\t\t305.0000\t\t1562.8160\t\t\n8075\t\t305.0000\t\t1503.4853\t\t\n8076\t\t305.0000\t\t1336.6617\t\t\n8077\t\t325.0000\t\t2529.3650\t\t\n8078\t\t325.0000\t\t2248.0696\t\t\n8079\t\t325.0000\t\t2599.2977\t\t\n8080\t\t317.0000\t\t3470.8131\t\t\n8081\t\t317.0000\t\t2916.2793\t\t'
p1507
sg110
g1283
sg112
I00
sg113
V8071:8090
p1508
sg115
g404
sg116
F10.0
sg117
I01
sg118
Fnan
sg119
g1286
sg121
I00
sbag4
(g14
tp1509
Rp1510
(dp1511
g9
g10
sg18
g1236
sg20
Fnan
sg21
g4
(g22
tp1512
Rp1513
(dp1514
g26
g27
(g28
(I0
tp1515
g30
tp1516
Rp1517
(I1
(I5
I1
tp1518
g134
I00
S'\xb3\x9b\xbf\x1c\x91\xb3[\xc0\x14gH\t\xc2\xces@!\xad_\x8d\xedo\xdb@\x00\x00\x00\x00\x00\x00\x00\x00\x00\x00\x00\x00\x00\x00\x00\x00'
p1519
tp1520
bsg9
g10
sg42
g27
(g28
(I0
tp1521
g30
tp1522
Rp1523
(I1
(I5
I1
tp1524
g134
I00
S'0\x98\xf1\xa9"\x8d6@\x8f\xe5J|K\xec\xea?A\xb1\xf7\n\xba\xb1\x9b@\x00\x00\x00\x00\x00\x00\x00\x00\x00\x00\x00\x00\x00\x00\x00\x00'
p1525
tp1526
bsg49
g1257
sg51
Fnan
sg52
F1000000000000000.0
sg53
F1000000000000000.0
sg54
g0
(g1
g2
(lp1527
I01
aI01
aI01
aI01
aI01
atp1528
Rp1529
(dp1530
g59
S'fit_mask_items'
p1531
sg61
g54
sbsg62
g27
(g28
(I0
tp1532
g30
tp1533
Rp1534
(I1
(I5
I1
tp1535
g1269
I00
S'\x00\x00\x00\x00\x00\x00Y\xc0\x00\x00\x00\x00\x00\xe0u@\x00\x00\x00\x00\x00\x88\xd3@\x00\x00\x00\x00\x00\x00\x00\x00\x00\x00\x00\x00\x00\x00\x00\x00'
p1536
tp1537
bsg69
g302
sg71
Fnan
sg72
g818
sg74
F-1000000000000000.0
sg75
F-1000000000000000.0
sg76
I01
sg77
I01
sbsg78
I01
sg79
g1275
sg81
I00
sg82
I01
sg83
g404
sg85
g86
sg87
I00
sg88
I00
sg89
I00
sg90
V/lab/data/app3/2013/1309/130924/
p1538
sg92
g404
sg93
I00
sg94
I01
sg95
S'Mean                   = 315.363636\nStd. deviation         =   7.425665\nStd. error of the mean =   2.348201\nPk-Pk                  =  20.000000\n\nMean                   = 21606.774996\nStd. deviation         = 6599.546685\nStd. error of the mean = 2086.959905\nPk-Pk                  = 17759.258585\n\n'
p1539
sg97
g86
sg98
Fnan
sg99
VANDOR1EIGEN:signal
p1540
sg101
VBRAGGPOS:Yfiberone
p1541
sg103
g86
sg104
F1.0
sg105
g1236
sg106
Fnan
sg61
VA1_Y
p1542
sg108
S'#\n# Column index\n#  0  SEQ:shot\n#  1  BRAGGPOS:Yfiberone\n#  2  ANDOR1EIGEN:signal\n\n8071\t\t315.0000\t\t26501.3955\t\t\n8072\t\t315.0000\t\t28317.6321\t\t\n8073\t\t315.0000\t\t29148.1913\t\t\n8074\t\t305.0000\t\t12820.0793\t\t\n8075\t\t305.0000\t\t12348.6671\t\t\n8076\t\t305.0000\t\t11926.9458\t\t\n8077\t\t325.0000\t\t23202.6849\t\t\n8078\t\t325.0000\t\t17233.8587\t\t\n8079\t\t325.0000\t\t21778.0975\t\t\n8080\t\t317.0000\t\t29686.2043\t\t\n8081\t\t317.0000\t\t24710.7686\t\t'
p1543
sg110
g1283
sg112
I00
sg113
V8071:8090
p1544
sg115
g404
sg116
F10.0
sg117
I01
sg118
Fnan
sg119
g1286
sg121
I00
sbag4
(g14
tp1545
Rp1546
(dp1547
g9
g10
sg18
g1236
sg20
Fnan
sg21
g4
(g22
tp1548
Rp1549
(dp1550
g26
g27
(g28
(I0
tp1551
g30
tp1552
Rp1553
(I1
(I5
I1
tp1554
g134
I00
S'\xdfV\x90\r\x8e\x8d1\xc0S\x17\xf0\xbf4\xe2V@\xf8\xa6`\xac\xce\xb8\xde@\x00\x00\x00\x00\x00\x00\x00\x00\x00\x00\x00\x00\x00\x00\x00\x00'
p1555
tp1556
bsg9
g10
sg42
g27
(g28
(I0
tp1557
g30
tp1558
Rp1559
(I1
(I5
I1
tp1560
g134
I00
S"\xaf\xaaqD\xb5\xc9\x1e@\x16\xbc\xb19\x7f\xd1\x05@\xd7\xbb\x0e\x10'\x85\x91@\x00\x00\x00\x00\x00\x00\x00\x00\x00\x00\x00\x00\x00\x00\x00\x00"
p1561
tp1562
bsg49
g1257
sg51
Fnan
sg52
F1000000000000000.0
sg53
F1000000000000000.0
sg54
g0
(g1
g2
(lp1563
I01
aI01
aI01
aI01
aI01
atp1564
Rp1565
(dp1566
g59
S'fit_mask_items'
p1567
sg61
g54
sbsg62
g27
(g28
(I0
tp1568
g30
tp1569
Rp1570
(I1
(I5
I1
tp1571
g1269
I00
S'\x00\x00\x00\x00\x00@\x8f\xc0\x00\x00\x00\x00\x00\x80V@\x00\x00\x00\x00\x80O"A\x00\x00\x00\x00\x00\x00\x00\x00\x00\x00\x00\x00\x00\x00\x00\x00'
p1572
tp1573
bsg69
g302
sg71
Fnan
sg72
g1274
sg74
F-1000000000000000.0
sg75
F-1000000000000000.0
sg76
I01
sg77
I01
sbsg78
I01
sg79
g1275
sg81
I00
sg82
I00
sg83
g404
sg85
g86
sg87
I00
sg88
I00
sg89
I00
sg90
V/lab/data/app3/2013/1309/130924/
p1574
sg92
g404
sg93
I00
sg94
I01
sg95
S'Mean                   =  94.714286\nStd. deviation         =  10.353940\nStd. error of the mean =   2.871666\nPk-Pk                  =  30.000000\n\nMean                   = 29425.631313\nStd. deviation         = 2685.432845\nStd. error of the mean = 744.805063\nPk-Pk                  = 10428.881953\n\n'
p1575
sg97
g86
sg98
Fnan
sg99
VANDOR1EIGEN:signal
p1576
sg101
VBRAGGPOS:braggwpone
p1577
sg103
g86
sg104
F1.0
sg105
g1236
sg106
Fnan
sg61
VA1_wp
p1578
sg108
S'#\n# Column index\n#  0  SEQ:shot\n#  1  BRAGGPOS:braggwpone\n#  2  ANDOR1EIGEN:signal\n\n7816\t\t90.0000\t\t32746.5280\t\t\n7817\t\t90.0000\t\t30300.1943\t\t\n7818\t\t\n7819\t\t100.0000\t\t30702.2814\t\t\n7820\t\t100.0000\t\t30464.5648\t\t\n7821\t\t100.0000\t\t30505.7573\t\t\n7822\t\t110.0000\t\t26197.8182\t\t\n7823\t\t110.0000\t\t27101.7114\t\t\n7824\t\t110.0000\t\t23132.2435\t\t\n7825\t\t80.0000\t\t31765.1211\t\t\n7826\t\t80.0000\t\t27286.7349\t\t\n7827\t\t80.0000\t\t28057.8116\t\t\n7828\t\t92.0000\t\t30165.0456\t\t\n7829\t\t92.0000\t\t29971.9008\t\t\n7830\t\t92.0000\t\t33561.1255\t\t'
p1579
sg110
g1283
sg112
I00
sg113
V7816:7890
p1580
sg115
g404
sg116
F10.0
sg117
I01
sg118
Fnan
sg119
g1286
sg121
I00
sbag4
(g14
tp1581
Rp1582
(dp1583
g9
g10
sg18
g1236
sg20
Fnan
sg21
g4
(g22
tp1584
Rp1585
(dp1586
g26
g27
(g28
(I0
tp1587
g30
tp1588
Rp1589
(I1
(I5
I1
tp1590
g134
I00
S'\xfe\xed\xbau#\xe2B\xc0\xe0\xa1\x02\x9e\x8fMO@R\xa5$+:(\xc8@\x00\x00\x00\x00\x00\x00\x00\x00\x00\x00\x00\x00\x00\x00\x00\x00'
p1591
tp1592
bsg9
g10
sg42
g27
(g28
(I0
tp1593
g30
tp1594
Rp1595
(I1
(I5
I1
tp1596
g134
I00
S'Up\xcfm\xf5\x8f\x1d@\xfc\x87+K\xbe\xc1\xf0?\xea\x12\xc0p>\xcf\x8c@\x00\x00\x00\x00\x00\x00\x00\x00\x00\x00\x00\x00\x00\x00\x00\x00'
p1597
tp1598
bsg49
g1257
sg51
Fnan
sg52
F1000000000000000.0
sg53
F1000000000000000.0
sg54
g0
(g1
g2
(lp1599
I01
aI01
aI01
aI01
aI01
atp1600
Rp1601
(dp1602
g59
S'fit_mask_items'
p1603
sg61
g54
sbsg62
g27
(g28
(I0
tp1604
g30
tp1605
Rp1606
(I1
(I5
I1
tp1607
g1269
I00
S'\x00\x00\x00\x00\x00\x00Y\xc0\x00\x00\x00\x00\x00\xa0p@\x00\x00\x00\x00\x00\x88\xd3@\x00\x00\x00\x00\x00\x00\x00\x00\x00\x00\x00\x00\x00\x00\x00\x00'
p1608
tp1609
bsg69
g302
sg71
Fnan
sg72
g818
sg74
F-1000000000000000.0
sg75
F-1000000000000000.0
sg76
I00
sg77
I00
sbsg78
I01
sg79
g1275
sg81
I00
sg82
I01
sg83
g404
sg85
g86
sg87
I00
sg88
I00
sg89
I00
sg90
g1538
sg92
g404
sg93
I00
sg94
I01
sg95
S'Mean                   = 315.363636\nStd. deviation         =   7.425665\nStd. error of the mean =   2.348201\nPk-Pk                  =  20.000000\n\nMean                   = 8567.091710\nStd. deviation         = 2793.021531\nStd. error of the mean = 883.230959\nPk-Pk                  = 8747.121396\n\n'
p1610
sg97
g86
sg98
Fnan
sg99
VANDOR2EIGEN:signal
p1611
sg101
VBRAGGPOS:Yfiberone
p1612
sg103
g86
sg104
F1.0
sg105
g1236
sg106
Fnan
sg61
VA2_Y
p1613
sg108
S'#\n# Column index\n#  0  SEQ:shot\n#  1  BRAGGPOS:Yfiberone\n#  2  ANDOR2EIGEN:signal\n\n8071\t\t315.0000\t\t10269.7125\t\t\n8072\t\t315.0000\t\t11115.8322\t\t\n8073\t\t315.0000\t\t11391.1549\t\t\n8074\t\t305.0000\t\t4932.0269\t\t\n8075\t\t305.0000\t\t5254.2492\t\t\n8076\t\t305.0000\t\t4609.2891\t\t\n8077\t\t325.0000\t\t9184.3078\t\t\n8078\t\t325.0000\t\t6331.2324\t\t\n8079\t\t325.0000\t\t8735.0779\t\t\n8080\t\t317.0000\t\t13356.4105\t\t\n8081\t\t317.0000\t\t9058.7153\t\t'
p1614
sg110
g1283
sg112
I00
sg113
V8071:8090
p1615
sg115
g404
sg116
F10.0
sg117
I01
sg118
Fnan
sg119
g1286
sg121
I00
sbatp1616
Rp1617
(dp1618
g59
S'datasets_items'
p1619
sg61
g12
sbsg82
I00
sg83
V100Bragg
p1620
sg471
I3
sg472
g1510
sg473
g0
(g1
g2
(lp1621
I1
aI2
aI3
aI4
aI5
aI6
aI7
aI8
aI9
atp1622
Rp1623
(dp1624
g59
S'grids_items'
p1625
sg61
g473
sbsg479
I3
sg61
V100Bragg
p1626
sbag4
(g5
tp1627
Rp1628
(dp1629
g9
g10
sg11
I0
sg12
g0
(g1
g2
(lp1630
g4
(g14
tp1631
Rp1632
(dp1633
g9
g10
sg18
g1236
sg20
Fnan
sg21
g4
(g22
tp1634
Rp1635
(dp1636
g26
g1242
sg9
g10
sg42
g1253
sg49
g1257
sg51
Fnan
sg52
F1000000000000000.0
sg53
F1000000000000000.0
sg54
g0
(g1
g2
(lp1637
I01
aI01
aI01
aI01
aI01
atp1638
Rp1639
(dp1640
g59
S'fit_mask_items'
p1641
sg61
g54
sbsg62
g1265
sg69
g302
sg71
Fnan
sg72
g1274
sg74
F-1000000000000000.0
sg75
F-1000000000000000.0
sg76
I00
sg77
I00
sbsg78
I01
sg79
g1275
sg81
I00
sg82
I01
sg83
g404
sg85
g86
sg87
I00
sg88
I00
sg89
I00
sg90
V/lab/data/app3/2013/1309/130913/
p1642
sg92
g404
sg93
I00
sg94
I01
sg95
S'Mean                   =   1.314815\nStd. deviation         =   1.240879\nStd. error of the mean =   0.243356\nPk-Pk                  =   4.600000\n\nMean                   = 964.351665\nStd. deviation         = 772.624210\nStd. error of the mean = 151.524074\nPk-Pk                  = 3481.153956\n\n'
p1643
sg97
g86
sg98
Fnan
sg99
g1389
sg101
V( LatticeMod:arb_pulsedelay - 6.) * DIMPLELATTICE:tof / 0.006 + DIMPLELATTICE:tof * 1000.
p1644
sg103
g86
sg104
F1.0
sg105
g1236
sg106
Fnan
sg61
VA2
p1645
sg108
S'#\n# Column index\n#  0  SEQ:shot\n#  1  ( LatticeMod:arb_pulsedelay - 6.) * DIMPLELATTICE:tof / 0.006 + DIMPLELATTICE:tof * 1000.\n#  2  ANDOR2EIGEN:signal\n\n7048\t\t0.1000\t\t2322.0609\t\t\n7049\t\t0.6000\t\t1257.9306\t\t\n7050\t\t1.1000\t\t838.4810\t\t\n7051\t\t1.6000\t\t2653.9692\t\t\n7052\t\t2.1000\t\t568.0812\t\t\n7053\t\t2.6000\t\t1241.7218\t\t\n7054\t\t3.1000\t\t136.1862\t\t\n7055\t\t3.6000\t\t944.5623\t\t\n7056\t\t4.1000\t\t463.3219\t\t\n7057\t\t4.6000\t\t1715.4295\t\t\n7058\t\t\n7059\t\t0.0000\t\t1993.2101\t\t\n7060\t\t0.0000\t\t55.5517\t\t\n7061\t\t0.1000\t\t1194.8173\t\t\n7062\t\t0.2000\t\t10.0850\t\t\n7063\t\t0.3000\t\t1834.4371\t\t\n7064\t\t0.4000\t\t396.5652\t\t\n7065\t\t0.5000\t\t833.7604\t\t\n7066\t\t0.6000\t\t496.0887\t\t\n7067\t\t0.7000\t\t654.1401\t\t\n7068\t\t0.8000\t\t1508.0974\t\t\n7069\t\t0.9000\t\t1723.9093\t\t\n7070\t\t1.0000\t\t-827.1847\t\t\n7071\t\t1.1000\t\t518.9056\t\t\n7072\t\t1.2000\t\t388.7743\t\t\n7073\t\t1.3000\t\t1653.2714\t\t\n7074\t\t1.4000\t\t479.5659\t\t\n7075\t\t1.5000\t\t981.7553\t\t\n7076\t\t\n7077\t\t'
p1646
sg110
g1283
sg112
I00
sg113
V7048:7078
p1647
sg115
g404
sg116
F10.0
sg117
I01
sg118
Fnan
sg119
g1286
sg121
I00
sbag4
(g14
tp1648
Rp1649
(dp1650
g9
g10
sg18
g1236
sg20
Fnan
sg21
g4
(g22
tp1651
Rp1652
(dp1653
g26
g1242
sg9
g10
sg42
g1253
sg49
g1257
sg51
Fnan
sg52
F1000000000000000.0
sg53
F1000000000000000.0
sg54
g0
(g1
g2
(lp1654
I01
aI01
aI01
aI01
aI01
atp1655
Rp1656
(dp1657
g59
S'fit_mask_items'
p1658
sg61
g54
sbsg62
g1265
sg69
g302
sg71
Fnan
sg72
g1274
sg74
F-1000000000000000.0
sg75
F-1000000000000000.0
sg76
I00
sg77
I00
sbsg78
I01
sg79
g1275
sg81
I00
sg82
I01
sg83
g404
sg85
g86
sg87
I00
sg88
I00
sg89
I00
sg90
g1642
sg92
g404
sg93
I00
sg94
I01
sg95
S'Mean                   =   1.314815\nStd. deviation         =   1.240879\nStd. error of the mean =   0.243356\nPk-Pk                  =   4.600000\n\nMean                   = 2578.134666\nStd. deviation         = 521.729421\nStd. error of the mean = 102.319558\nPk-Pk                  = 2270.650820\n\n'
p1659
sg97
g86
sg98
Fnan
sg99
VANDOR1EIGEN:signal
p1660
sg101
V( LatticeMod:arb_pulsedelay - 6.) * DIMPLELATTICE:tof / 0.006 + DIMPLELATTICE:tof * 1000.
p1661
sg103
g86
sg104
F1.0
sg105
g1236
sg106
Fnan
sg61
VA1
p1662
sg108
S'#\n# Column index\n#  0  SEQ:shot\n#  1  ( LatticeMod:arb_pulsedelay - 6.) * DIMPLELATTICE:tof / 0.006 + DIMPLELATTICE:tof * 1000.\n#  2  ANDOR1EIGEN:signal\n\n7048\t\t0.1000\t\t2052.0822\t\t\n7049\t\t0.6000\t\t1736.2024\t\t\n7050\t\t1.1000\t\t2232.4530\t\t\n7051\t\t1.6000\t\t2101.5229\t\t\n7052\t\t2.1000\t\t2750.8805\t\t\n7053\t\t2.6000\t\t2876.9596\t\t\n7054\t\t3.1000\t\t2512.8967\t\t\n7055\t\t3.6000\t\t2577.5113\t\t\n7056\t\t4.1000\t\t2831.3797\t\t\n7057\t\t4.6000\t\t2200.2434\t\t\n7058\t\t\n7059\t\t0.0000\t\t2440.9322\t\t\n7060\t\t0.0000\t\t3096.2641\t\t\n7061\t\t0.1000\t\t2410.2157\t\t\n7062\t\t0.2000\t\t3717.2722\t\t\n7063\t\t0.3000\t\t2339.9437\t\t\n7064\t\t0.4000\t\t3021.1056\t\t\n7065\t\t0.5000\t\t2478.9810\t\t\n7066\t\t0.6000\t\t2996.8260\t\t\n7067\t\t0.7000\t\t3466.8271\t\t\n7068\t\t0.8000\t\t2613.7112\t\t\n7069\t\t0.9000\t\t3362.7806\t\t\n7070\t\t1.0000\t\t2099.5879\t\t\n7071\t\t1.1000\t\t2541.1564\t\t\n7072\t\t1.2000\t\t1901.8150\t\t\n7073\t\t1.3000\t\t2741.3767\t\t\n7074\t\t1.4000\t\t1446.6213\t\t\n7075\t\t1.5000\t\t3062.0878\t\t\n7076\t\t\n7077\t\t'
p1663
sg110
g1283
sg112
I00
sg113
V7048:7078
p1664
sg115
g404
sg116
F10.0
sg117
I01
sg118
Fnan
sg119
g1286
sg121
I00
sbag4
(g14
tp1665
Rp1666
(dp1667
g9
g10
sg18
g1236
sg20
Fnan
sg21
g4
(g22
tp1668
Rp1669
(dp1670
g26
g1242
sg9
g10
sg42
g1253
sg49
g1257
sg51
Fnan
sg52
F1000000000000000.0
sg53
F1000000000000000.0
sg54
g0
(g1
g2
(lp1671
I01
aI01
aI01
aI01
aI01
atp1672
Rp1673
(dp1674
g59
S'fit_mask_items'
p1675
sg61
g54
sbsg62
g1265
sg69
g302
sg71
Fnan
sg72
g1274
sg74
F-1000000000000000.0
sg75
F-1000000000000000.0
sg76
I00
sg77
I00
sbsg78
I01
sg79
g1275
sg81
I00
sg82
I01
sg83
g404
sg85
g86
sg87
I00
sg88
I00
sg89
I00
sg90
g1642
sg92
g404
sg93
I00
sg94
I01
sg95
S'Mean                   =   1.368000\nStd. deviation         =   1.268296\nStd. error of the mean =   0.258890\nPk-Pk                  =   4.600000\n\nMean                   = 2098.998200\nStd. deviation         = 1945.161984\nStd. error of the mean = 397.054527\nPk-Pk                  = 6337.125056\n\n'
p1676
sg97
g86
sg98
Fnan
sg99
g1407
sg101
V( LatticeMod:arb_pulsedelay - 6.) * DIMPLELATTICE:tof / 0.006 + DIMPLELATTICE:tof * 1000.
p1677
sg103
g86
sg104
F1.0
sg105
g1236
sg106
Fnan
sg61
VManta
p1678
sg108
S'#\n# Column index\n#  0  SEQ:shot\n#  1  ( LatticeMod:arb_pulsedelay - 6.) * DIMPLELATTICE:tof / 0.006 + DIMPLELATTICE:tof * 1000.\n#  2  MANTAEIGEN:signal\n\n7048\t\t0.1000\t\t5091.4206\t\t\n7049\t\t0.6000\t\t2830.9141\t\t\n7050\t\t\n7051\t\t1.6000\t\t416.2966\t\t\n7052\t\t2.1000\t\t428.9506\t\t\n7053\t\t2.6000\t\t351.0172\t\t\n7054\t\t3.1000\t\t409.2153\t\t\n7055\t\t3.6000\t\t336.0636\t\t\n7056\t\t4.1000\t\t443.3578\t\t\n7057\t\t4.6000\t\t386.2316\t\t\n7058\t\t\n7059\t\t0.0000\t\t6143.7384\t\t\n7060\t\t0.0000\t\t6673.1887\t\t\n7061\t\t0.1000\t\t4622.5050\t\t\n7062\t\t\n7063\t\t0.3000\t\t4676.9534\t\t\n7064\t\t0.4000\t\t3031.3716\t\t\n7065\t\t0.5000\t\t3124.0264\t\t\n7066\t\t0.6000\t\t2807.1387\t\t\n7067\t\t0.7000\t\t2662.0941\t\t\n7068\t\t0.8000\t\t1738.0539\t\t\n7069\t\t0.9000\t\t1933.2965\t\t\n7070\t\t1.0000\t\t978.1014\t\t\n7071\t\t1.1000\t\t1005.9897\t\t\n7072\t\t1.2000\t\t832.1698\t\t\n7073\t\t1.3000\t\t668.6476\t\t\n7074\t\t1.4000\t\t416.5369\t\t\n7075\t\t1.5000\t\t467.6757\t\t\n7076\t\t\n7077\t\t'
p1679
sg110
g1283
sg112
I00
sg113
V7048:7078
p1680
sg115
g404
sg116
F10.0
sg117
I01
sg118
Fnan
sg119
g1286
sg121
I00
sbatp1681
Rp1682
(dp1683
g59
S'datasets_items'
p1684
sg61
g12
sbsg82
I00
sg83
V100Bragg_tof
p1685
sg471
I3
sg472
g1632
sg473
g0
(g1
g2
(lp1686
I1
aI2
aI3
aI4
aI5
aI6
atp1687
Rp1688
(dp1689
g59
S'grids_items'
p1690
sg61
g473
sbsg479
I1
sg61
V100Bragg_tof
p1691
sbag4
(g5
tp1692
Rp1693
(dp1694
g9
g10
sg11
I3
sg12
g0
(g1
g2
(lp1695
g4
(g14
tp1696
Rp1697
(dp1698
g9
g10
sg18
g1236
sg20
Fnan
sg21
g4
(g22
tp1699
Rp1700
(dp1701
g26
g27
(g28
(I0
tp1702
g30
tp1703
Rp1704
(I1
(I5
I1
tp1705
g134
I00
S'\xe5u\xb7\x0f\xf9\xe8\x15A\xe0\xf2_\xb7\x90ue\xc0\xfa\xc3#\xa9\x9a\x9a(@v\xbc}{\xd9c\xa9@\x9b\xa4\x97\x1ey\x9fW\xc0'
p1706
tp1707
bsg9
g10
sg42
g27
(g28
(I0
tp1708
g30
tp1709
Rp1710
(I1
(I5
I1
tp1711
g134
I00
S"c\xe0\xb6\xe2\xfe\x12\x08AP\x96O\xdb\xa8:\x04@'y\xd9uC\x02\x15@=\xfe\xe4q\xef\x00\x9d@\xfb\x89S\xec\x89\r\x05@"
p1712
tp1713
bsg49
g1257
sg51
Fnan
sg52
F1000000000000000.0
sg53
F1000000000000000.0
sg54
g0
(g1
g2
(lp1714
I01
aI01
aI01
aI01
aI01
atp1715
Rp1716
(dp1717
g59
S'fit_mask_items'
p1718
sg61
g54
sbsg62
g27
(g28
(I0
tp1719
g30
tp1720
Rp1721
(I1
(I5
I1
tp1722
g1269
I00
S'\x00\x00\x00\x00\x00j\x08A\x00\x00\x00\x00\x00\x80f\xc0\x00\x00\x00\x00\x00\x00\x1c@\x00\x00\x00\x00\x00\x00\x00\x00\x00\x00\x00\x00\x00\x00Y\xc0'
p1723
tp1724
bsg69
g519
sg71
Fnan
sg72
S'DoubleLorentzian'
p1725
sg74
F-1000000000000000.0
sg75
F-1000000000000000.0
sg76
I00
sg77
I00
sbsg78
I01
sg79
g1275
sg81
I00
sg82
I00
sg83
g404
sg85
g86
sg87
I00
sg88
I00
sg89
I01
sg90
V/lab/data/app3/2013/1310/131002/
p1726
sg92
g404
sg93
I00
sg94
I01
sg95
S'Mean                   = -134.983333\nStd. deviation         =  27.217942\nStd. error of the mean =   3.543474\nPk-Pk                  =  90.000000\n\nMean                   = 2085.840562\nStd. deviation         = 1500.931772\nStd. error of the mean = 195.404673\nPk-Pk                  = 5290.045938\n\n'
p1727
sg97
g86
sg98
Fnan
sg99
VANDOR2EIGEN:signal
p1728
sg101
VDIMPLELATTICE:imgdet
p1729
sg103
g86
sg104
F1.0
sg105
g1236
sg106
Fnan
sg61
g1645
sg108
S'#\n# Column index\n#  0  SEQ:shot\n#  1  DIMPLELATTICE:imgdet\n#  2  ANDOR2EIGEN:signal\n\n9678\t\t-164.0000\t\t2068.5238\t\t\n9680\t\t-159.0000\t\t1344.5963\t\t\n9682\t\t-154.0000\t\t861.5665\t\t\n9684\t\t-149.0000\t\t1549.6807\t\t\n9686\t\t-144.0000\t\t915.8770\t\t\n9688\t\t-139.0000\t\t159.5121\t\t\n9690\t\t-134.0000\t\t1052.1431\t\t\n9692\t\t-129.0000\t\t791.6137\t\t\n9694\t\t-124.0000\t\t894.2571\t\t\n9696\t\t-119.0000\t\t1463.0274\t\t\n9698\t\t-114.0000\t\t1201.3548\t\t\n9700\t\t-109.0000\t\t808.9074\t\t\n9702\t\t-104.0000\t\t2528.2932\t\t\n9704\t\t-99.0000\t\t3422.6875\t\t\n9706\t\t-174.0000\t\t4001.8684\t\t\n9708\t\t-169.0000\t\t2879.3813\t\t\n9710\t\t-164.0000\t\t1194.8769\t\t\n9712\t\t-159.0000\t\t738.4910\t\t\n9714\t\t-154.0000\t\t630.1914\t\t\n9716\t\t-149.0000\t\t206.8315\t\t\n9718\t\t-144.0000\t\t974.1539\t\t\n9720\t\t-139.0000\t\t340.5952\t\t\n9722\t\t-134.0000\t\t1248.1733\t\t\n9724\t\t-129.0000\t\t-194.3267\t\t\n9726\t\t-124.0000\t\t201.7017\t\t\n9728\t\t-119.0000\t\t317.8643\t\t\n9730\t\t-114.0000\t\t1885.7562\t\t\n9732\t\t-109.0000\t\t1785.0922\t\t\n9734\t\t-104.0000\t\t2533.9178\t\t\n9736\t\t-99.0000\t\t4134.8674\t\t\n9738\t\t-174.0000\t\t3738.8339\t\t\n9740\t\t-169.0000\t\t3276.0302\t\t\n9742\t\t-164.0000\t\t1627.2143\t\t\n9744\t\t-159.0000\t\t1789.8167\t\t\n9746\t\t-154.0000\t\t1430.3133\t\t\n9748\t\t-149.0000\t\t240.4095\t\t\n9750\t\t-144.0000\t\t415.2335\t\t\n9752\t\t-139.0000\t\t659.6253\t\t\n9754\t\t-134.0000\t\t264.7396\t\t\n9756\t\t-129.0000\t\t1547.7325\t\t\n9758\t\t-124.0000\t\t1077.7643\t\t\n9760\t\t-119.0000\t\t480.8658\t\t\n9762\t\t-114.0000\t\t1948.7330\t\t\n9764\t\t-109.0000\t\t2043.1900\t\t\n9766\t\t-104.0000\t\t2634.8595\t\t\n9768\t\t-99.0000\t\t4232.6473\t\t\n9770\t\t-174.0000\t\t3078.1761\t\t\n9772\t\t-172.0000\t\t4480.4957\t\t\n9774\t\t-170.0000\t\t5001.7619\t\t\n9776\t\t-168.0000\t\t4276.1614\t\t\n9778\t\t-176.0000\t\t2969.9040\t\t\n9780\t\t-178.0000\t\t3359.7632\t\t\n9782\t\t-180.0000\t\t2646.6034\t\t\n9784\t\t-96.0000\t\t4338.0045\t\t\n9786\t\t-98.0000\t\t5002.0949\t\t\n9788\t\t-100.0000\t\t3022.5881\t\t\n9790\t\t-102.0000\t\t3782.5579\t\t\n9792\t\t-94.0000\t\t4265.7978\t\t\n9794\t\t-92.0000\t\t5095.7193\t\t\n9796\t\t-90.0000\t\t4481.3203\t\t'
p1730
sg110
g1283
sg112
I01
sg113
Vnumpy.arange(9678;9797;2)
p1731
sg115
g404
sg116
F10.0
sg117
I01
sg118
Fnan
sg119
g1286
sg121
I00
sbag4
(g14
tp1732
Rp1733
(dp1734
g9
g10
sg18
Vred
p1735
sg20
Fnan
sg21
g4
(g22
tp1736
Rp1737
(dp1738
g26
g1704
sg9
g10
sg42
g1710
sg49
g1257
sg51
Fnan
sg52
F1000000000000000.0
sg53
F1000000000000000.0
sg54
g0
(g1
g2
(lp1739
I01
aI01
aI01
aI01
aI01
atp1740
Rp1741
(dp1742
g59
S'fit_mask_items'
p1743
sg61
g54
sbsg62
g1721
sg69
g519
sg71
Fnan
sg72
g1725
sg74
F-1000000000000000.0
sg75
F-1000000000000000.0
sg76
I00
sg77
I00
sbsg78
I01
sg79
g1275
sg81
I00
sg82
I00
sg83
g404
sg85
g86
sg87
I00
sg88
I00
sg89
I00
sg90
V/lab/data/app3/2013/1310/131002/
p1744
sg92
g404
sg93
I00
sg94
I01
sg95
S'Mean                   = -135.540984\nStd. deviation         =  27.337342\nStd. error of the mean =   3.529236\nPk-Pk                  =  90.000000\n\nMean                   = 2179.166532\nStd. deviation         = 1579.101317\nStd. error of the mean = 203.861103\nPk-Pk                  = 5711.408693\n\n'
p1745
sg97
g86
sg98
Fnan
sg99
VANDOR2EIGEN:signal
p1746
sg101
g1729
sg103
g86
sg104
F1.0
sg105
g1735
sg106
Fnan
sg61
VA2tof
p1747
sg108
S'#\n# Column index\n#  0  SEQ:shot\n#  1  DIMPLELATTICE:imgdet\n#  2  ANDOR2EIGEN:signal\n\n9677\t\t-169.0000\t\t3003.3132\t\t\n9679\t\t-164.0000\t\t1647.8694\t\t\n9681\t\t-159.0000\t\t2069.4813\t\t\n9683\t\t-154.0000\t\t833.7303\t\t\n9685\t\t-149.0000\t\t529.5754\t\t\n9687\t\t-144.0000\t\t-201.8646\t\t\n9689\t\t-139.0000\t\t1554.8298\t\t\n9691\t\t-134.0000\t\t1153.8542\t\t\n9693\t\t-129.0000\t\t-250.4428\t\t\n9695\t\t-124.0000\t\t807.9162\t\t\n9697\t\t-119.0000\t\t1102.9360\t\t\n9699\t\t-114.0000\t\t591.3373\t\t\n9701\t\t-109.0000\t\t2535.2460\t\t\n9703\t\t-104.0000\t\t3509.6794\t\t\n9705\t\t-99.0000\t\t4609.0631\t\t\n9707\t\t-174.0000\t\t3468.4261\t\t\n9709\t\t-169.0000\t\t3230.6173\t\t\n9711\t\t-164.0000\t\t1232.4226\t\t\n9713\t\t-159.0000\t\t1363.7669\t\t\n9715\t\t-154.0000\t\t710.2395\t\t\n9717\t\t-149.0000\t\t504.0932\t\t\n9719\t\t-144.0000\t\t19.6324\t\t\n9721\t\t-139.0000\t\t1147.4170\t\t\n9723\t\t-134.0000\t\t1503.3158\t\t\n9725\t\t-129.0000\t\t124.6152\t\t\n9727\t\t-124.0000\t\t1002.9472\t\t\n9729\t\t-119.0000\t\t132.7226\t\t\n9731\t\t-114.0000\t\t1961.5460\t\t\n9733\t\t-109.0000\t\t911.3842\t\t\n9735\t\t-104.0000\t\t3692.1733\t\t\n9737\t\t-99.0000\t\t5227.0186\t\t\n9739\t\t-174.0000\t\t3544.6685\t\t\n9741\t\t-169.0000\t\t4396.6248\t\t\n9743\t\t-164.0000\t\t1328.8501\t\t\n9745\t\t-159.0000\t\t1809.5215\t\t\n9747\t\t-154.0000\t\t990.6067\t\t\n9749\t\t-149.0000\t\t1254.1900\t\t\n9751\t\t-144.0000\t\t671.6955\t\t\n9753\t\t-139.0000\t\t1152.3839\t\t\n9755\t\t-134.0000\t\t457.0512\t\t\n9757\t\t-129.0000\t\t301.3191\t\t\n9759\t\t-124.0000\t\t677.7036\t\t\n9761\t\t-119.0000\t\t674.5703\t\t\n9763\t\t-114.0000\t\t1057.7829\t\t\n9765\t\t-109.0000\t\t2497.0755\t\t\n9767\t\t-104.0000\t\t3117.8500\t\t\n9769\t\t-99.0000\t\t4998.1113\t\t\n9771\t\t-174.0000\t\t4167.2213\t\t\n9773\t\t-172.0000\t\t5460.9659\t\t\n9775\t\t-170.0000\t\t3885.9811\t\t\n9777\t\t-168.0000\t\t4694.1859\t\t\n9779\t\t-176.0000\t\t4270.2551\t\t\n9781\t\t-178.0000\t\t3824.8468\t\t\n9783\t\t-180.0000\t\t2674.5148\t\t\n9785\t\t-96.0000\t\t3674.3634\t\t\n9787\t\t-98.0000\t\t2629.4539\t\t\n9789\t\t-100.0000\t\t4112.7093\t\t\n9791\t\t-102.0000\t\t3641.4299\t\t\n9793\t\t-94.0000\t\t4204.6739\t\t\n9795\t\t-92.0000\t\t3610.7746\t\t\n9797\t\t-90.0000\t\t3418.9156\t\t'
p1748
sg110
g1283
sg112
I01
sg113
Vnumpy.arange(9677;9798;2)
p1749
sg115
g404
sg116
F10.0
sg117
I01
sg118
Fnan
sg119
g1286
sg121
I00
sbag4
(g14
tp1750
Rp1751
(dp1752
g9
g10
sg18
Vblue
p1753
sg20
Fnan
sg21
g4
(g22
tp1754
Rp1755
(dp1756
g26
g1704
sg9
g10
sg42
g1710
sg49
g1257
sg51
Fnan
sg52
F1000000000000000.0
sg53
F1000000000000000.0
sg54
g0
(g1
g2
(lp1757
I01
aI01
aI01
aI01
aI01
atp1758
Rp1759
(dp1760
g59
S'fit_mask_items'
p1761
sg61
g54
sbsg62
g1721
sg69
g519
sg71
Fnan
sg72
g1725
sg74
F-1000000000000000.0
sg75
F-1000000000000000.0
sg76
I00
sg77
I00
sbsg78
I01
sg79
g1275
sg81
I00
sg82
I00
sg83
g404
sg85
g86
sg87
I00
sg88
I00
sg89
I00
sg90
g1744
sg92
g404
sg93
I00
sg94
I01
sg95
S'Mean                   = -133.000000\nStd. deviation         =   0.000000\nStd. error of the mean =   0.000000\nPk-Pk                  =   0.000000\n\nMean                   = 164.757664\nStd. deviation         = 260.743527\nStd. error of the mean =  69.686639\nPk-Pk                  = 821.339472\n\n'
p1762
sg97
g86
sg98
Fnan
sg99
g1746
sg101
g1729
sg103
g86
sg104
F1.0
sg105
g1753
sg106
Fnan
sg61
VA2Blanks
p1763
sg108
S'#\n# Column index\n#  0  SEQ:shot\n#  1  DIMPLELATTICE:imgdet\n#  2  ANDOR2EIGEN:signal\n\n9658\t\t-133.0000\t\t131.5297\t\t\n9659\t\t-133.0000\t\t120.5026\t\t\n9660\t\t-133.0000\t\t-255.2471\t\t\n9661\t\t-133.0000\t\t431.7300\t\t\n9662\t\t-133.0000\t\t482.5610\t\t\n9663\t\t-133.0000\t\t199.7555\t\t\n9664\t\t-133.0000\t\t153.6988\t\t\n9665\t\t-133.0000\t\t299.6443\t\t\n9666\t\t-133.0000\t\t-131.8177\t\t\n9667\t\t-133.0000\t\t469.4794\t\t\n9668\t\t-133.0000\t\t136.0365\t\t\n9669\t\t-133.0000\t\t452.2248\t\t\n9670\t\t-133.0000\t\t-338.7785\t\t\n9671\t\t-133.0000\t\t415.6186\t\t\n9672\t\t-133.0000\t\t-95.5729\t\t'
p1764
sg110
g1283
sg112
I01
sg113
V9658:9672
p1765
sg115
g404
sg116
F10.0
sg117
I01
sg118
Fnan
sg119
g1286
sg121
I00
sbag4
(g14
tp1766
Rp1767
(dp1768
g9
g10
sg18
g1236
sg20
Fnan
sg21
g4
(g22
tp1769
Rp1770
(dp1771
g26
g27
(g28
(I0
tp1772
g30
tp1773
Rp1774
(I1
(I5
I1
tp1775
g134
I00
S"\xc3F\xba\xc7\xbcH4A\\$\x1a\xa6\xa5\xbee\xc0\x05\x17\x88\x1d9\x12,@A'\xfe\xd4C\x9a\x89@\x92\xaf\x90\xb3[\xf5W\xc0"
p1776
tp1777
bsg9
g10
sg42
g27
(g28
(I0
tp1778
g30
tp1779
Rp1780
(I1
(I5
I1
tp1781
g134
I00
S',\tq\xd9*\x86 AG\xb7L\x1f\xd2\x10\xf6?\x91\xd8\xc4\x93s%\x10@\xbf \x14\xc0\xc8g\xb3@\x88\x91u|\xc6P\xf7?'
p1782
tp1783
bsg49
g1257
sg51
Fnan
sg52
F1000000000000000.0
sg53
F1000000000000000.0
sg54
g0
(g1
g2
(lp1784
I01
aI01
aI01
aI01
aI01
atp1785
Rp1786
(dp1787
g59
S'fit_mask_items'
p1788
sg61
g54
sbsg62
g27
(g28
(I0
tp1789
g30
tp1790
Rp1791
(I1
(I5
I1
tp1792
g1269
I00
S'\x00\x00\x00\x00\x00j\x08A\x00\x00\x00\x00\x00\x80f\xc0\x00\x00\x00\x00\x00\x00\x1c@\x00\x00\x00\x00\x00\x00\x00\x00\x00\x00\x00\x00\x00\x00Y\xc0'
p1793
tp1794
bsg69
g519
sg71
Fnan
sg72
g1725
sg74
F-1000000000000000.0
sg75
F-1000000000000000.0
sg76
I00
sg77
I00
sbsg78
I01
sg79
g1275
sg81
I00
sg82
I01
sg83
g404
sg85
g86
sg87
I00
sg88
I00
sg89
I01
sg90
V/lab/data/app3/2013/1310/131004/
p1795
sg92
g404
sg93
I00
sg94
I01
sg95
S'Mean                   = -142.219178\nStd. deviation         =  20.992005\nStd. error of the mean =   2.473932\nPk-Pk                  =  70.000000\n\nMean                   = 9564.377963\nStd. deviation         = 7324.622172\nStd. error of the mean = 863.215001\nPk-Pk                  = 30402.484179\n\n'
p1796
sg97
g86
sg98
Fnan
sg99
VANDOR1EIGEN_re:signal
p1797
sg101
VDIMPLELATTICE:imgdet
p1798
sg103
g86
sg104
F1.0
sg105
g1236
sg106
Fnan
sg61
VA1
p1799
sg108
S'#\n# Column index\n#  0  SEQ:shot\n#  1  DIMPLELATTICE:imgdet\n#  2  ANDOR1EIGEN_re:signal\n\n0653\t\t-174.0000\t\t26335.4438\t\t\n0654\t\t-174.0000\t\t24646.5590\t\t\n0655\t\t-169.0000\t\t18436.7587\t\t\n0656\t\t-169.0000\t\t21332.8397\t\t\n0657\t\t-164.0000\t\t13426.9686\t\t\n0658\t\t-164.0000\t\t16208.2563\t\t\n0659\t\t-159.0000\t\t7946.7306\t\t\n0660\t\t-159.0000\t\t10258.5039\t\t\n0661\t\t-154.0000\t\t4599.3381\t\t\n0662\t\t-154.0000\t\t5903.1612\t\t\n0663\t\t-149.0000\t\t4214.6799\t\t\n0664\t\t-149.0000\t\t6815.4195\t\t\n0665\t\t-144.0000\t\t3902.7766\t\t\n0666\t\t-144.0000\t\t3928.1246\t\t\n0667\t\t-139.0000\t\t3264.5810\t\t\n0668\t\t-139.0000\t\t4714.8455\t\t\n0669\t\t-134.0000\t\t3459.0783\t\t\n0670\t\t-134.0000\t\t5936.7089\t\t\n0671\t\t-129.0000\t\t3765.5717\t\t\n0672\t\t-129.0000\t\t6192.4515\t\t\n0673\t\t-124.0000\t\t4337.1661\t\t\n0674\t\t-124.0000\t\t6536.5942\t\t\n0675\t\t-119.0000\t\t4790.8427\t\t\n0676\t\t-114.0000\t\t10070.9344\t\t\n0677\t\t-114.0000\t\t10280.4239\t\t\n0678\t\t-109.0000\t\t12324.7000\t\t\n0679\t\t-109.0000\t\t15357.4573\t\t\n0680\t\t-104.0000\t\t12872.1242\t\t\n0681\t\t-104.0000\t\t18858.3650\t\t\n0682\t\t\n0683\t\t-174.0000\t\t28302.8304\t\t\n0684\t\t-174.0000\t\t27463.5393\t\t\n0685\t\t-169.0000\t\t22639.1730\t\t\n0686\t\t-169.0000\t\t18596.8128\t\t\n0687\t\t-164.0000\t\t12296.2138\t\t\n0688\t\t-164.0000\t\t12775.9525\t\t\n0689\t\t-159.0000\t\t7070.9250\t\t\n0690\t\t-159.0000\t\t11192.8890\t\t\n0691\t\t-154.0000\t\t4978.3742\t\t\n0692\t\t-154.0000\t\t6905.8741\t\t\n0693\t\t-149.0000\t\t3968.0064\t\t\n0694\t\t-149.0000\t\t6061.6728\t\t\n0695\t\t-144.0000\t\t4280.9370\t\t\n0696\t\t-144.0000\t\t4467.2531\t\t\n0697\t\t-139.0000\t\t2824.7677\t\t\n0698\t\t-139.0000\t\t1313.0749\t\t\n0699\t\t-134.0000\t\t3168.8268\t\t\n0700\t\t-134.0000\t\t5194.4245\t\t\n0701\t\t-129.0000\t\t6422.3505\t\t\n0702\t\t-124.0000\t\t4616.5855\t\t\n0703\t\t-124.0000\t\t5719.8822\t\t\n0704\t\t-119.0000\t\t8450.6916\t\t\n0705\t\t-114.0000\t\t7574.1978\t\t\n0706\t\t-114.0000\t\t8424.3857\t\t\n0707\t\t\n0708\t\t-109.0000\t\t13610.3300\t\t\n0709\t\t-104.0000\t\t15765.5340\t\t\n0710\t\t-104.0000\t\t18380.9666\t\t\n0711\t\t\n0712\t\t-174.0000\t\t151.9491\t\t\n0713\t\t-174.0000\t\t30554.4333\t\t\n0714\t\t-169.0000\t\t22584.9508\t\t\n0715\t\t-169.0000\t\t20606.5959\t\t\n0716\t\t\n0717\t\t-159.0000\t\t9005.7203\t\t\n0718\t\t-159.0000\t\t8846.6668\t\t\n0719\t\t-154.0000\t\t5280.0643\t\t\n0720\t\t-154.0000\t\t6091.1362\t\t\n0721\t\t-149.0000\t\t3718.8914\t\t\n0722\t\t-149.0000\t\t986.4724\t\t\n0723\t\t-144.0000\t\t3330.4740\t\t\n0724\t\t\n0725\t\t\n0726\t\t-134.0000\t\t3087.5584\t\t\n0727\t\t-134.0000\t\t4445.4713\t\t\n0728\t\t-129.0000\t\t5680.5991\t\t\n0729\t\t-124.0000\t\t4385.4696\t\t\n0730\t\t-124.0000\t\t1757.3271\t\t\n0731\t\t-119.0000\t\t4501.9351\t\t'
p1800
sg110
g1283
sg112
I01
sg113
V653:731
p1801
sg115
g404
sg116
F10.0
sg117
I01
sg118
Fnan
sg119
g1286
sg121
I00
sbag4
(g14
tp1802
Rp1803
(dp1804
g9
g10
sg18
Vred
p1805
sg20
Fnan
sg21
g4
(g22
tp1806
Rp1807
(dp1808
g26
g1774
sg9
g10
sg42
g1780
sg49
g1257
sg51
Fnan
sg52
F1000000000000000.0
sg53
F1000000000000000.0
sg54
g0
(g1
g2
(lp1809
I01
aI01
aI01
aI01
aI01
atp1810
Rp1811
(dp1812
g59
S'fit_mask_items'
p1813
sg61
g54
sbsg62
g1791
sg69
g519
sg71
Fnan
sg72
g1725
sg74
F-1000000000000000.0
sg75
F-1000000000000000.0
sg76
I00
sg77
I00
sbsg78
I01
sg79
g1275
sg81
I00
sg82
I00
sg83
g404
sg85
g86
sg87
I00
sg88
I00
sg89
I00
sg90
V/lab/data/app3/2013/1310/131002/
p1814
sg92
g404
sg93
I00
sg94
I01
sg95
S'Mean                   = -136.161290\nStd. deviation         =  27.545384\nStd. error of the mean =   3.526825\nPk-Pk                  =  90.000000\n\nMean                   = 4954.994490\nStd. deviation         = 3152.730025\nStd. error of the mean = 403.665716\nPk-Pk                  = 10799.078960\n\n'
p1815
sg97
g86
sg98
Fnan
sg99
VANDOR1EIGEN:signal
p1816
sg101
g1798
sg103
g86
sg104
F1.0
sg105
g1805
sg106
Fnan
sg61
VA1tof
p1817
sg108
S'#\n# Column index\n#  0  SEQ:shot\n#  1  DIMPLELATTICE:imgdet\n#  2  ANDOR1EIGEN:signal\n\n9675\t\t-174.0000\t\t7584.5382\t\t\n9677\t\t-169.0000\t\t7499.1223\t\t\n9679\t\t-164.0000\t\t3984.9870\t\t\n9681\t\t-159.0000\t\t3125.5973\t\t\n9683\t\t-154.0000\t\t2280.0266\t\t\n9685\t\t-149.0000\t\t2075.6060\t\t\n9687\t\t-144.0000\t\t1704.6723\t\t\n9689\t\t-139.0000\t\t1602.5295\t\t\n9691\t\t-134.0000\t\t1495.3752\t\t\n9693\t\t-129.0000\t\t843.6933\t\t\n9695\t\t-124.0000\t\t1309.6680\t\t\n9697\t\t-119.0000\t\t1849.9141\t\t\n9699\t\t-114.0000\t\t3852.1349\t\t\n9701\t\t-109.0000\t\t5207.6078\t\t\n9703\t\t-104.0000\t\t7132.5481\t\t\n9705\t\t-99.0000\t\t8023.0961\t\t\n9707\t\t-174.0000\t\t8118.3756\t\t\n9709\t\t-169.0000\t\t7882.4436\t\t\n9711\t\t-164.0000\t\t4578.4488\t\t\n9713\t\t-159.0000\t\t3777.8908\t\t\n9715\t\t-154.0000\t\t2236.8322\t\t\n9717\t\t-149.0000\t\t1410.2783\t\t\n9719\t\t-144.0000\t\t281.5345\t\t\n9721\t\t-139.0000\t\t2090.1949\t\t\n9723\t\t-134.0000\t\t2024.9506\t\t\n9725\t\t-129.0000\t\t1193.2357\t\t\n9727\t\t-124.0000\t\t1916.2705\t\t\n9729\t\t-119.0000\t\t2296.2792\t\t\n9731\t\t-114.0000\t\t2809.2063\t\t\n9733\t\t-109.0000\t\t3783.3080\t\t\n9735\t\t-104.0000\t\t6400.0717\t\t\n9737\t\t-99.0000\t\t9446.2171\t\t\n9739\t\t-174.0000\t\t10341.5277\t\t\n9741\t\t-169.0000\t\t8886.3421\t\t\n9743\t\t-164.0000\t\t5442.0010\t\t\n9745\t\t-159.0000\t\t3536.1072\t\t\n9747\t\t-154.0000\t\t1818.6798\t\t\n9749\t\t-149.0000\t\t1930.4654\t\t\n9751\t\t-144.0000\t\t1811.6974\t\t\n9753\t\t-139.0000\t\t1736.9502\t\t\n9755\t\t-134.0000\t\t1821.2349\t\t\n9757\t\t-129.0000\t\t1548.6692\t\t\n9759\t\t-124.0000\t\t2247.1949\t\t\n9761\t\t-119.0000\t\t1617.9418\t\t\n9763\t\t-114.0000\t\t2584.6286\t\t\n9765\t\t-109.0000\t\t4855.8113\t\t\n9767\t\t-104.0000\t\t7787.8023\t\t\n9769\t\t-99.0000\t\t7956.9198\t\t\n9771\t\t-174.0000\t\t8706.3722\t\t\n9773\t\t-172.0000\t\t9746.5474\t\t\n9775\t\t-170.0000\t\t8219.1641\t\t\n9777\t\t-168.0000\t\t8439.3289\t\t\n9779\t\t-176.0000\t\t7527.7991\t\t\n9781\t\t-178.0000\t\t7537.5573\t\t\n9783\t\t-180.0000\t\t7707.0441\t\t\n9785\t\t-96.0000\t\t8622.9057\t\t\n9787\t\t-98.0000\t\t9240.0760\t\t\n9789\t\t-100.0000\t\t9352.9179\t\t\n9791\t\t-102.0000\t\t7868.1328\t\t\n9793\t\t-94.0000\t\t11080.6134\t\t\n9795\t\t-92.0000\t\t9749.6495\t\t\n9797\t\t-90.0000\t\t7670.9220\t\t'
p1818
sg110
g1283
sg112
I01
sg113
Vnumpy.arange(9675;9798;2),-9676
p1819
sg115
g404
sg116
F10.0
sg117
I01
sg118
Fnan
sg119
g1286
sg121
I00
sbag4
(g14
tp1820
Rp1821
(dp1822
g9
g10
sg18
Vblue
p1823
sg20
Fnan
sg21
g4
(g22
tp1824
Rp1825
(dp1826
g26
g1774
sg9
g10
sg42
g1780
sg49
g1257
sg51
Fnan
sg52
F1000000000000000.0
sg53
F1000000000000000.0
sg54
g0
(g1
g2
(lp1827
I01
aI01
aI01
aI01
aI01
atp1828
Rp1829
(dp1830
g59
S'fit_mask_items'
p1831
sg61
g54
sbsg62
g1791
sg69
g519
sg71
Fnan
sg72
g1725
sg74
F-1000000000000000.0
sg75
F-1000000000000000.0
sg76
I00
sg77
I00
sbsg78
I01
sg79
g1275
sg81
I00
sg82
I00
sg83
g404
sg85
g86
sg87
I00
sg88
I00
sg89
I00
sg90
V/lab/data/app3/2013/1310/131004/
p1832
sg92
g404
sg93
I00
sg94
I01
sg95
S'Mean                   = -133.000000\nStd. deviation         =   0.000000\nStd. error of the mean =   0.000000\nPk-Pk                  =   0.000000\n\nMean                   = 314.156515\nStd. deviation         = 272.112341\nStd. error of the mean =  72.725082\nPk-Pk                  = 1118.827263\n\n'
p1833
sg97
g86
sg98
Fnan
sg99
VANDOR1EIGEN_re:signal
p1834
sg101
g1798
sg103
g86
sg104
F1.0
sg105
g1823
sg106
Fnan
sg61
VBlanks
p1835
sg108
S'#\n# Column index\n#  0  SEQ:shot\n#  1  DIMPLELATTICE:imgdet\n#  2  ANDOR1EIGEN_re:signal\n\n9658\t\t-133.0000\t\t549.0613\t\t\n9659\t\t-133.0000\t\t318.4201\t\t\n9660\t\t-133.0000\t\t-117.7458\t\t\n9661\t\t-133.0000\t\t193.9128\t\t\n9662\t\t-133.0000\t\t1001.0815\t\t\n9663\t\t-133.0000\t\t132.6967\t\t\n9664\t\t-133.0000\t\t592.0040\t\t\n9665\t\t-133.0000\t\t53.5389\t\t\n9666\t\t-133.0000\t\t210.2594\t\t\n9667\t\t-133.0000\t\t517.3041\t\t\n9668\t\t-133.0000\t\t294.3089\t\t\n9669\t\t-133.0000\t\t94.2698\t\t\n9670\t\t-133.0000\t\t417.2844\t\t\n9671\t\t-133.0000\t\t30.1516\t\t\n9672\t\t-133.0000\t\t425.7999\t\t'
p1836
sg110
g1283
sg112
I01
sg113
V653:731
p1837
sg115
g404
sg116
F10.0
sg117
I01
sg118
Fnan
sg119
g1286
sg121
I00
sbatp1838
Rp1839
(dp1840
g59
S'datasets_items'
p1841
sg61
g12
sbsg82
I00
sg83
V100Bragg_det
p1842
sg471
I3
sg472
g1767
sg473
g0
(g1
g2
(lp1843
I1
aI2
aI3
aI4
aI5
aI6
aI7
aI8
aI9
atp1844
Rp1845
(dp1846
g59
S'grids_items'
p1847
sg61
g473
sbsg479
I1
sg61
V100Bragg_det
p1848
sbag4
(g5
tp1849
Rp1850
(dp1851
g9
g10
sg11
I3
sg12
g0
(g1
g2
(lp1852
g4
(g14
tp1853
Rp1854
(dp1855
g9
g10
sg18
g1236
sg20
Fnan
sg21
g4
(g22
tp1856
Rp1857
(dp1858
g26
g1242
sg9
g10
sg42
g1253
sg49
g1257
sg51
Fnan
sg52
F1000000000000000.0
sg53
F1000000000000000.0
sg54
g0
(g1
g2
(lp1859
I01
aI01
aI01
aI01
aI01
atp1860
Rp1861
(dp1862
g59
S'fit_mask_items'
p1863
sg61
g54
sbsg62
g1265
sg69
g302
sg71
Fnan
sg72
g1274
sg74
F-1000000000000000.0
sg75
F-1000000000000000.0
sg76
I00
sg77
I00
sbsg78
I01
sg79
g1275
sg81
I00
sg82
I01
sg83
g404
sg85
g86
sg87
I00
sg88
I00
sg89
I00
sg90
V/lab/data/app3/2013/1309/130926/
p1864
sg92
g404
sg93
I00
sg94
I01
sg95
S'Mean                   =   5.604167\nStd. deviation         =   7.885349\nStd. error of the mean =   1.644209\nPk-Pk                  =  28.900000\n\nMean                   = 12630.637851\nStd. deviation         = 639.183142\nStd. error of the mean = 133.278898\nPk-Pk                  = 3094.161422\n\n'
p1865
sg97
g86
sg98
Fnan
sg99
VANDOR1EIGEN:signal
p1866
sg101
V( DIMPLELATTICE:knob6 -260.)/10.
p1867
sg103
g86
sg104
F1.0
sg105
g1236
sg106
Fnan
sg61
VA1 latt
p1868
sg108
S'#\n# Column index\n#  0  SEQ:shot\n#  1  ( DIMPLELATTICE:knob6 -260.)/10.\n#  2  ANDOR1EIGEN:signal\n\n8427\t\t0.1000\t\t14456.3141\t\t\n8428\t\t0.2000\t\t12282.5042\t\t\n8429\t\t0.3000\t\t12952.6525\t\t\n8430\t\t0.4000\t\t13379.7418\t\t\n8431\t\t0.5000\t\t12594.1996\t\t\n8432\t\t0.6000\t\t12267.9234\t\t\n8433\t\t0.7000\t\t13084.2357\t\t\n8434\t\t0.8000\t\t13192.6037\t\t\n8435\t\t0.9000\t\t12342.2183\t\t\n8436\t\t1.0000\t\t12842.6907\t\t\n8437\t\t1.2000\t\t12995.5280\t\t\n8438\t\t1.4000\t\t12825.0547\t\t\n8439\t\t1.6000\t\t12805.6323\t\t\n8440\t\t1.8000\t\t11846.5796\t\t\n8441\t\t2.0000\t\t11793.3763\t\t\n8444\t\t5.0000\t\t12018.4828\t\t\n8445\t\t6.0000\t\t12260.7473\t\t\n8446\t\t7.0000\t\t12419.0535\t\t\n8447\t\t8.0000\t\t11880.5283\t\t\n8448\t\t9.0000\t\t12916.3033\t\t\n8449\t\t14.0000\t\t11362.1527\t\t\n8450\t\t19.0000\t\t12388.8201\t\t\n8451\t\t24.0000\t\t13273.5101\t\t\n8452\t\t29.0000\t\t12954.4554\t\t'
p1869
sg110
g1283
sg112
I00
sg113
V8427:8452,-8442,-8443
p1870
sg115
g404
sg116
F10.0
sg117
I01
sg118
Fnan
sg119
g1286
sg121
I00
sbag4
(g14
tp1871
Rp1872
(dp1873
g9
g10
sg18
g1236
sg20
Fnan
sg21
g4
(g22
tp1874
Rp1875
(dp1876
g26
g1589
sg9
g10
sg42
g1595
sg49
g1257
sg51
Fnan
sg52
F1000000000000000.0
sg53
F1000000000000000.0
sg54
g0
(g1
g2
(lp1877
I01
aI01
aI01
aI01
aI01
atp1878
Rp1879
(dp1880
g59
S'fit_mask_items'
p1881
sg61
g54
sbsg62
g1606
sg69
g302
sg71
Fnan
sg72
g818
sg74
F-1000000000000000.0
sg75
F-1000000000000000.0
sg76
I00
sg77
I00
sbsg78
I01
sg79
g1275
sg81
I00
sg82
I01
sg83
g404
sg85
g86
sg87
I00
sg88
I00
sg89
I00
sg90
V/lab/data/app3/2013/1309/130926/
p1882
sg92
g404
sg93
I00
sg94
I01
sg95
S'Mean                   =   5.604167\nStd. deviation         =   7.885349\nStd. error of the mean =   1.644209\nPk-Pk                  =  28.900000\n\nMean                   = 7316.739739\nStd. deviation         = 748.956024\nStd. error of the mean = 156.168126\nPk-Pk                  = 3019.590499\n\n'
p1883
sg97
g86
sg98
Fnan
sg99
g1611
sg101
V( DIMPLELATTICE:knob6 -260.)/10.
p1884
sg103
g86
sg104
F1.0
sg105
g1236
sg106
Fnan
sg61
VA2 latt
p1885
sg108
S'#\n# Column index\n#  0  SEQ:shot\n#  1  ( DIMPLELATTICE:knob6 -260.)/10.\n#  2  ANDOR2EIGEN:signal\n\n8427\t\t0.1000\t\t8924.1136\t\t\n8428\t\t0.2000\t\t6932.8275\t\t\n8429\t\t0.3000\t\t7371.6161\t\t\n8430\t\t0.4000\t\t7699.7513\t\t\n8431\t\t0.5000\t\t8657.2455\t\t\n8432\t\t0.6000\t\t7780.7710\t\t\n8433\t\t0.7000\t\t7768.8644\t\t\n8434\t\t0.8000\t\t7286.1539\t\t\n8435\t\t0.9000\t\t6412.3557\t\t\n8436\t\t1.0000\t\t7467.7960\t\t\n8437\t\t1.2000\t\t6756.2780\t\t\n8438\t\t1.4000\t\t7946.1674\t\t\n8439\t\t1.6000\t\t6515.5430\t\t\n8440\t\t1.8000\t\t6905.3150\t\t\n8441\t\t2.0000\t\t8412.0559\t\t\n8444\t\t5.0000\t\t7949.9631\t\t\n8445\t\t6.0000\t\t7493.3249\t\t\n8446\t\t7.0000\t\t6718.3477\t\t\n8447\t\t8.0000\t\t5904.5231\t\t\n8448\t\t9.0000\t\t6983.0985\t\t\n8449\t\t14.0000\t\t6091.4241\t\t\n8450\t\t19.0000\t\t7628.2352\t\t\n8451\t\t24.0000\t\t7226.6877\t\t\n8452\t\t29.0000\t\t6769.2950\t\t'
p1886
sg110
g1283
sg112
I00
sg113
V8427:8452,-8442,-8443
p1887
sg115
g404
sg116
F10.0
sg117
I01
sg118
Fnan
sg119
g1286
sg121
I00
sbag4
(g14
tp1888
Rp1889
(dp1890
g9
g10
sg18
g1236
sg20
Fnan
sg21
g4
(g22
tp1891
Rp1892
(dp1893
g26
g1242
sg9
g10
sg42
g1253
sg49
g1257
sg51
Fnan
sg52
F1000000000000000.0
sg53
F1000000000000000.0
sg54
g0
(g1
g2
(lp1894
I01
aI01
aI01
aI01
aI01
atp1895
Rp1896
(dp1897
g59
S'fit_mask_items'
p1898
sg61
g54
sbsg62
g1265
sg69
g302
sg71
Fnan
sg72
g1274
sg74
F-1000000000000000.0
sg75
F-1000000000000000.0
sg76
I00
sg77
I00
sbsg78
I01
sg79
g1275
sg81
I00
sg82
I01
sg83
g404
sg85
g86
sg87
I00
sg88
I00
sg89
I00
sg90
V/lab/data/app3/2013/1309/130926/
p1899
sg92
g404
sg93
I00
sg94
I01
sg95
S'Mean                   =   5.789583\nStd. deviation         =   7.809956\nStd. error of the mean =   1.628488\nPk-Pk                  =  28.950000\n\nMean                   = 12008.249571\nStd. deviation         = 2932.152268\nStd. error of the mean = 611.396012\nPk-Pk                  = 11206.081223\n\n'
p1900
sg97
g86
sg98
Fnan
sg99
g1866
sg101
V( DIMPLELATTICE:knob6 -260.)/10.
p1901
sg103
g86
sg104
F1.0
sg105
g1236
sg106
Fnan
sg61
VA1 dimp
p1902
sg108
S'#\n# Column index\n#  0  SEQ:shot\n#  1  ( DIMPLELATTICE:knob6 -260.)/10.\n#  2  ANDOR1EIGEN:signal\n\n8404\t\t0.1000\t\t19545.0342\t\t\n8405\t\t0.2000\t\t16947.9357\t\t\n8406\t\t0.3000\t\t14283.9223\t\t\n8407\t\t0.4000\t\t13479.4707\t\t\n8408\t\t\n8409\t\t0.6000\t\t13755.7477\t\t\n8410\t\t\n8411\t\t0.8000\t\t13546.1157\t\t\n8412\t\t0.9000\t\t14361.9452\t\t\n8413\t\t1.0000\t\t12359.8645\t\t\n8414\t\t0.0500\t\t18156.8006\t\t\n8415\t\t1.2000\t\t12161.1261\t\t\n8416\t\t\n8417\t\t1.6000\t\t11663.6093\t\t\n8418\t\t1.8000\t\t9865.9106\t\t\n8419\t\t2.0000\t\t10736.9986\t\t\n8420\t\t3.0000\t\t11525.3864\t\t\n8421\t\t4.0000\t\t10515.7267\t\t\n8422\t\t5.0000\t\t9738.2247\t\t\n8423\t\t6.0000\t\t10151.7915\t\t\n8424\t\t7.0000\t\t9539.3028\t\t\n8425\t\t8.0000\t\t9622.3935\t\t\n8426\t\t9.0000\t\t9768.4442\t\t\n8453\t\t14.0000\t\t9046.7068\t\t\n8454\t\t19.0000\t\t9151.3150\t\t\n8455\t\t24.0000\t\t9935.2640\t\t\n8456\t\t29.0000\t\t8338.9530\t\t'
p1903
sg110
g1283
sg112
I00
sg113
V8404:8426,8453:8456
p1904
sg115
g404
sg116
F10.0
sg117
I01
sg118
Fnan
sg119
g1286
sg121
I00
sbag4
(g14
tp1905
Rp1906
(dp1907
g9
g10
sg18
g1236
sg20
Fnan
sg21
g4
(g22
tp1908
Rp1909
(dp1910
g26
g1242
sg9
g10
sg42
g1253
sg49
g1257
sg51
Fnan
sg52
F1000000000000000.0
sg53
F1000000000000000.0
sg54
g0
(g1
g2
(lp1911
I01
aI01
aI01
aI01
aI01
atp1912
Rp1913
(dp1914
g59
S'fit_mask_items'
p1915
sg61
g54
sbsg62
g1265
sg69
g302
sg71
Fnan
sg72
g1274
sg74
F-1000000000000000.0
sg75
F-1000000000000000.0
sg76
I00
sg77
I00
sbsg78
I01
sg79
g1275
sg81
I00
sg82
I01
sg83
g404
sg85
g86
sg87
I00
sg88
I00
sg89
I00
sg90
V/lab/data/app3/2013/1309/130926/
p1916
sg92
g404
sg93
I00
sg94
I01
sg95
S'Mean                   =   5.242593\nStd. deviation         =   7.525176\nStd. error of the mean =   1.475808\nPk-Pk                  =  28.950000\n\nMean                   = 5921.758449\nStd. deviation         = 1064.280647\nStd. error of the mean = 208.722607\nPk-Pk                  = 4295.085194\n\n'
p1917
sg97
g86
sg98
Fnan
sg99
VANDOR2EIGEN:signal
p1918
sg101
V( DIMPLELATTICE:knob6 -260.)/10.
p1919
sg103
g86
sg104
F1.0
sg105
g1236
sg106
Fnan
sg61
VA2 dimp
p1920
sg108
S'#\n# Column index\n#  0  SEQ:shot\n#  1  ( DIMPLELATTICE:knob6 -260.)/10.\n#  2  ANDOR2EIGEN:signal\n\n8404\t\t0.1000\t\t8131.2742\t\t\n8405\t\t0.2000\t\t8239.6360\t\t\n8406\t\t0.3000\t\t6835.4104\t\t\n8407\t\t0.4000\t\t6470.9768\t\t\n8408\t\t0.5000\t\t6790.9729\t\t\n8409\t\t0.6000\t\t6525.7588\t\t\n8410\t\t0.7000\t\t6379.1859\t\t\n8411\t\t0.8000\t\t6225.6477\t\t\n8412\t\t0.9000\t\t6250.7137\t\t\n8413\t\t1.0000\t\t6736.8325\t\t\n8414\t\t0.0500\t\t7610.5488\t\t\n8415\t\t1.2000\t\t3944.5508\t\t\n8416\t\t1.4000\t\t4628.0355\t\t\n8417\t\t1.6000\t\t4704.9489\t\t\n8418\t\t1.8000\t\t4708.3163\t\t\n8419\t\t2.0000\t\t5840.4544\t\t\n8420\t\t3.0000\t\t6091.4065\t\t\n8421\t\t4.0000\t\t5803.6142\t\t\n8422\t\t5.0000\t\t5880.9182\t\t\n8423\t\t6.0000\t\t5112.4083\t\t\n8424\t\t7.0000\t\t5784.4927\t\t\n8425\t\t8.0000\t\t4859.3926\t\t\n8426\t\t9.0000\t\t6122.8805\t\t\n8453\t\t14.0000\t\t5652.8168\t\t\n8454\t\t19.0000\t\t4825.2474\t\t\n8455\t\t24.0000\t\t4542.0778\t\t\n8456\t\t29.0000\t\t5188.9594\t\t'
p1921
sg110
g1283
sg112
I00
sg113
V8404:8426,8453:8456
p1922
sg115
g404
sg116
F10.0
sg117
I01
sg118
Fnan
sg119
g1286
sg121
I00
sbatp1923
Rp1924
(dp1925
g59
S'datasets_items'
p1926
sg61
g12
sbsg82
I00
sg83
VFR sweep
p1927
sg471
I2
sg472
g1906
sg473
g0
(g1
g2
(lp1928
I1
aI2
aI3
aI4
aI5
aI6
aI7
aI8
aI9
atp1929
Rp1930
(dp1931
g59
S'grids_items'
p1932
sg61
g473
sbsg479
I2
sg61
VFR sweep
p1933
sbag4
(g5
tp1934
Rp1935
(dp1936
g9
g10
sg11
I0
sg12
g0
(g1
g2
(lp1937
g4
(g14
tp1938
Rp1939
(dp1940
g9
g10
sg18
g1236
sg20
Fnan
sg21
g4
(g22
tp1941
Rp1942
(dp1943
g26
g1242
sg9
g10
sg42
g1253
sg49
g1257
sg51
Fnan
sg52
F1000000000000000.0
sg53
F1000000000000000.0
sg54
g0
(g1
g2
(lp1944
I01
aI01
aI01
aI01
aI01
atp1945
Rp1946
(dp1947
g59
S'fit_mask_items'
p1948
sg61
g54
sbsg62
g1265
sg69
g302
sg71
Fnan
sg72
g1274
sg74
F-1000000000000000.0
sg75
F-1000000000000000.0
sg76
I00
sg77
I00
sbsg78
I01
sg79
g1275
sg81
I00
sg82
I01
sg83
g404
sg85
g86
sg87
I00
sg88
I00
sg89
I00
sg90
g1864
sg92
g404
sg93
I00
sg94
I01
sg95
S'Mean                   = 284.000000\nStd. deviation         =  14.236104\nStd. error of the mean =   3.183290\nPk-Pk                  =  48.000000\n\nMean                   = 22321.940656\nStd. deviation         = 7442.733418\nStd. error of the mean = 1664.245786\nPk-Pk                  = 20069.266022\n\n'
p1949
sg97
g86
sg98
Fnan
sg99
g1866
sg101
VDIMPLELATTICE:image
p1950
sg103
g86
sg104
F1.0
sg105
g1236
sg106
Fnan
sg61
g1868
sg108
S'#\n# Column index\n#  0  SEQ:shot\n#  1  DIMPLELATTICE:image\n#  2  ANDOR1EIGEN:signal\n\n8491\t\t\n8492\t\t262.0000\t\t28732.4118\t\t\n8493\t\t264.0000\t\t29538.6207\t\t\n8494\t\t266.0000\t\t29881.4287\t\t\n8495\t\t268.0000\t\t32117.3973\t\t\n8496\t\t270.0000\t\t31881.3147\t\t\n8497\t\t272.0000\t\t30569.7453\t\t\n8498\t\t274.0000\t\t32331.6750\t\t\n8499\t\t276.0000\t\t30012.0601\t\t\n8500\t\t278.0000\t\t31047.7818\t\t\n8501\t\t\n8502\t\t284.0000\t\t18546.4530\t\t\n8503\t\t286.0000\t\t17006.3917\t\t\n8504\t\t288.0000\t\t17160.8810\t\t\n8505\t\t290.0000\t\t18071.0315\t\t\n8506\t\t292.0000\t\t15871.2035\t\t\n8507\t\t294.0000\t\t16086.8843\t\t\n8509\t\t298.0000\t\t13203.7895\t\t\n8510\t\t300.0000\t\t14352.7799\t\t\n8511\t\t302.0000\t\t12262.4089\t\t\n8512\t\t\n8513\t\t308.0000\t\t15687.2705\t\t\n8514\t\t310.0000\t\t14953.9810\t\t\n8515\t\t282.0000\t\t19445.2435\t\t'
p1951
sg110
g1283
sg112
I00
sg113
V8491:8515,-8508
p1952
sg115
g404
sg116
F10.0
sg117
I01
sg118
Fnan
sg119
g1286
sg121
I00
sbag4
(g14
tp1953
Rp1954
(dp1955
g9
g10
sg18
g1236
sg20
Fnan
sg21
g4
(g22
tp1956
Rp1957
(dp1958
g26
g1589
sg9
g10
sg42
g1595
sg49
g1257
sg51
Fnan
sg52
F1000000000000000.0
sg53
F1000000000000000.0
sg54
g0
(g1
g2
(lp1959
I01
aI01
aI01
aI01
aI01
atp1960
Rp1961
(dp1962
g59
S'fit_mask_items'
p1963
sg61
g54
sbsg62
g1606
sg69
g302
sg71
Fnan
sg72
g818
sg74
F-1000000000000000.0
sg75
F-1000000000000000.0
sg76
I00
sg77
I00
sbsg78
I01
sg79
g1275
sg81
I00
sg82
I01
sg83
g404
sg85
g86
sg87
I00
sg88
I00
sg89
I00
sg90
g1882
sg92
g404
sg93
I00
sg94
I01
sg95
S'Mean                   = 282.909091\nStd. deviation         =  14.779928\nStd. error of the mean =   3.225245\nPk-Pk                  =  50.000000\n\nMean                   = 10269.924714\nStd. deviation         = 2332.046800\nStd. error of the mean = 508.894333\nPk-Pk                  = 7334.147882\n\n'
p1964
sg97
g86
sg98
Fnan
sg99
g1611
sg101
VDIMPLELATTICE:image
p1965
sg103
g86
sg104
F1.0
sg105
g1236
sg106
Fnan
sg61
g1885
sg108
S'#\n# Column index\n#  0  SEQ:shot\n#  1  DIMPLELATTICE:image\n#  2  ANDOR2EIGEN:signal\n\n8491\t\t260.0000\t\t8403.4093\t\t\n8492\t\t262.0000\t\t12361.9100\t\t\n8493\t\t264.0000\t\t12458.1078\t\t\n8494\t\t266.0000\t\t12715.2938\t\t\n8495\t\t268.0000\t\t13050.2510\t\t\n8496\t\t270.0000\t\t12600.3379\t\t\n8497\t\t272.0000\t\t13246.7401\t\t\n8498\t\t274.0000\t\t13642.8855\t\t\n8499\t\t276.0000\t\t12022.0010\t\t\n8500\t\t278.0000\t\t13086.7471\t\t\n8501\t\t\n8502\t\t284.0000\t\t11110.9749\t\t\n8503\t\t286.0000\t\t9408.0348\t\t\n8504\t\t288.0000\t\t9902.4037\t\t\n8505\t\t290.0000\t\t7968.5620\t\t\n8506\t\t292.0000\t\t8245.4610\t\t\n8507\t\t294.0000\t\t9247.2886\t\t\n8509\t\t298.0000\t\t6863.3453\t\t\n8510\t\t300.0000\t\t6308.7376\t\t\n8511\t\t302.0000\t\t7057.3350\t\t\n8512\t\t\n8513\t\t308.0000\t\t8761.4487\t\t\n8514\t\t310.0000\t\t8792.1375\t\t\n8515\t\t282.0000\t\t8684.9312\t\t'
p1966
sg110
g1283
sg112
I00
sg113
V8491:8515,-8508
p1967
sg115
g404
sg116
F10.0
sg117
I01
sg118
Fnan
sg119
g1286
sg121
I00
sbag4
(g14
tp1968
Rp1969
(dp1970
g9
g10
sg18
g1236
sg20
Fnan
sg21
g4
(g22
tp1971
Rp1972
(dp1973
g26
g1242
sg9
g10
sg42
g1253
sg49
g1257
sg51
Fnan
sg52
F1000000000000000.0
sg53
F1000000000000000.0
sg54
g0
(g1
g2
(lp1974
I01
aI01
aI01
aI01
aI01
atp1975
Rp1976
(dp1977
g59
S'fit_mask_items'
p1978
sg61
g54
sbsg62
g1265
sg69
g302
sg71
Fnan
sg72
g1274
sg74
F-1000000000000000.0
sg75
F-1000000000000000.0
sg76
I00
sg77
I00
sbsg78
I01
sg79
g1275
sg81
I00
sg82
I01
sg83
g404
sg85
g86
sg87
I00
sg88
I00
sg89
I00
sg90
g1899
sg92
g404
sg93
I00
sg94
I01
sg95
S'Mean                   = 285.000000\nStd. deviation         =  15.000000\nStd. error of the mean =   3.000000\nPk-Pk                  =  50.000000\n\nMean                   = 14723.477714\nStd. deviation         = 5100.896812\nStd. error of the mean = 1020.179362\nPk-Pk                  = 12212.588861\n\n'
p1979
sg97
g86
sg98
Fnan
sg99
g1866
sg101
VDIMPLELATTICE:image
p1980
sg103
g86
sg104
F1.0
sg105
g1236
sg106
Fnan
sg61
g1902
sg108
S'#\n# Column index\n#  0  SEQ:shot\n#  1  DIMPLELATTICE:image\n#  2  ANDOR1EIGEN:signal\n\n8465\t\t260.0000\t\t17136.8050\t\t\n8466\t\t262.0000\t\t20368.7104\t\t\n8467\t\t264.0000\t\t19377.9149\t\t\n8468\t\t266.0000\t\t21345.4013\t\t\n8469\t\t268.0000\t\t20716.5271\t\t\n8470\t\t270.0000\t\t21879.1342\t\t\n8471\t\t272.0000\t\t20971.0006\t\t\n8472\t\t274.0000\t\t20323.8771\t\t\n8473\t\t276.0000\t\t21790.3504\t\t\n8474\t\t278.0000\t\t20743.1025\t\t\n8475\t\t280.0000\t\t21715.2785\t\t\n8476\t\t282.0000\t\t11025.1473\t\t\n8477\t\t284.0000\t\t10687.6373\t\t\n8478\t\t286.0000\t\t10505.8379\t\t\n8479\t\t288.0000\t\t11563.0812\t\t\n8480\t\t290.0000\t\t10561.6070\t\t\n8481\t\t292.0000\t\t10370.2845\t\t\n8482\t\t294.0000\t\t9979.0444\t\t\n8483\t\t296.0000\t\t9688.0574\t\t\n8484\t\t298.0000\t\t10415.7097\t\t\n8485\t\t300.0000\t\t9752.0539\t\t\n8486\t\t302.0000\t\t10130.2278\t\t\n8487\t\t304.0000\t\t9666.5453\t\t\n8488\t\t306.0000\t\t10360.7644\t\t\n8489\t\t308.0000\t\t10611.2423\t\t\n8490\t\t310.0000\t\t11125.0781\t\t'
p1981
sg110
g1283
sg112
I00
sg113
V8465:8490
p1982
sg115
g404
sg116
F10.0
sg117
I01
sg118
Fnan
sg119
g1286
sg121
I00
sbag4
(g14
tp1983
Rp1984
(dp1985
g9
g10
sg18
g1236
sg20
Fnan
sg21
g4
(g22
tp1986
Rp1987
(dp1988
g26
g1242
sg9
g10
sg42
g1253
sg49
g1257
sg51
Fnan
sg52
F1000000000000000.0
sg53
F1000000000000000.0
sg54
g0
(g1
g2
(lp1989
I01
aI01
aI01
aI01
aI01
atp1990
Rp1991
(dp1992
g59
S'fit_mask_items'
p1993
sg61
g54
sbsg62
g1265
sg69
g302
sg71
Fnan
sg72
g1274
sg74
F-1000000000000000.0
sg75
F-1000000000000000.0
sg76
I00
sg77
I00
sbsg78
I01
sg79
g1275
sg81
I00
sg82
I01
sg83
g404
sg85
g86
sg87
I00
sg88
I00
sg89
I00
sg90
g1916
sg92
g404
sg93
I00
sg94
I01
sg95
S'Mean                   = 285.000000\nStd. deviation         =  15.000000\nStd. error of the mean =   3.000000\nPk-Pk                  =  50.000000\n\nMean                   = 6327.036072\nStd. deviation         = 1103.006059\nStd. error of the mean = 220.601212\nPk-Pk                  = 4261.179940\n\n'
p1994
sg97
g86
sg98
Fnan
sg99
g1918
sg101
VDIMPLELATTICE:image
p1995
sg103
g86
sg104
F1.0
sg105
g1236
sg106
Fnan
sg61
g1920
sg108
S'#\n# Column index\n#  0  SEQ:shot\n#  1  DIMPLELATTICE:image\n#  2  ANDOR2EIGEN:signal\n\n8465\t\t260.0000\t\t5382.4469\t\t\n8466\t\t262.0000\t\t7019.1488\t\t\n8467\t\t264.0000\t\t7380.6365\t\t\n8468\t\t266.0000\t\t6646.3152\t\t\n8469\t\t268.0000\t\t8293.0754\t\t\n8470\t\t270.0000\t\t8046.8823\t\t\n8471\t\t272.0000\t\t7557.2934\t\t\n8472\t\t274.0000\t\t6978.4274\t\t\n8473\t\t276.0000\t\t7957.0914\t\t\n8474\t\t278.0000\t\t7020.6593\t\t\n8475\t\t280.0000\t\t7764.5915\t\t\n8476\t\t282.0000\t\t5813.9068\t\t\n8477\t\t284.0000\t\t4847.6793\t\t\n8478\t\t286.0000\t\t5584.2109\t\t\n8479\t\t288.0000\t\t6775.0965\t\t\n8480\t\t290.0000\t\t6853.0250\t\t\n8481\t\t292.0000\t\t6082.0580\t\t\n8482\t\t294.0000\t\t6303.8505\t\t\n8483\t\t296.0000\t\t5216.0680\t\t\n8484\t\t298.0000\t\t5556.5048\t\t\n8485\t\t300.0000\t\t5241.5504\t\t\n8486\t\t302.0000\t\t5636.5149\t\t\n8487\t\t304.0000\t\t5090.0270\t\t\n8488\t\t306.0000\t\t4031.8954\t\t\n8489\t\t308.0000\t\t5209.9634\t\t\n8490\t\t310.0000\t\t6214.0185\t\t'
p1996
sg110
g1283
sg112
I00
sg113
V8465:8490
p1997
sg115
g404
sg116
F10.0
sg117
I01
sg118
Fnan
sg119
g1286
sg121
I00
sbatp1998
Rp1999
(dp2000
g59
S'datasets_items'
p2001
sg61
g12
sbsg82
I00
sg83
VFR lifetime
p2002
sg471
I2
sg472
g1939
sg473
g0
(g1
g2
(lp2003
I1
aI2
aI3
aI4
aI5
aI6
atp2004
Rp2005
(dp2006
g59
S'grids_items'
p2007
sg61
g473
sbsg479
I2
sg61
VFR lifetime
p2008
sbag4
(g5
tp2009
Rp2010
(dp2011
g9
g10
sg11
I3
sg12
g0
(g1
g2
(lp2012
g4
(g14
tp2013
Rp2014
(dp2015
g9
g10
sg18
g1236
sg20
Fnan
sg21
g4
(g22
tp2016
Rp2017
(dp2018
g26
g27
(g28
(I0
tp2019
g30
tp2020
Rp2021
(I1
(I5
I1
tp2022
g134
I00
S'\xb1\x85(\xc6\xdbP\x1cA\x16\xb1Wa\x7f\x85e\xc0\xd2Qp\xedj\x8b$@j\x95\x9e\xecs\r\x95@\x9a\x12\x96\x19\xcc\xe9W\xc0'
p2023
tp2024
bsg9
g10
sg42
g27
(g28
(I0
tp2025
g30
tp2026
Rp2027
(I1
(I5
I1
tp2028
g134
I00
S'x\xe94\xa3\xb6\xa8\xda@\xd8\xb3D\xcd\n\x93\xe0?\xf4\x92\xbd\x13=u\xe6?\x80\xee+~\xbb\xb0q@jR\xdelo\xe5\xe2?'
p2029
tp2030
bsg49
g1257
sg51
Fnan
sg52
F1000000000000000.0
sg53
F1000000000000000.0
sg54
g0
(g1
g2
(lp2031
I01
aI01
aI01
aI01
aI01
atp2032
Rp2033
(dp2034
g59
S'fit_mask_items'
p2035
sg61
g54
sbsg62
g27
(g28
(I0
tp2036
g30
tp2037
Rp2038
(I1
(I5
I1
tp2039
g1269
I00
S'\x00\x00\x00\x00\x00j\x08A\x00\x00\x00\x00\x00\x00i\xc0\x00\x00\x00\x00\x00\x00$@\x00\x00\x00\x00\x00\x00\x00\x00\x00\x00\x00\x00\x00\x80V\xc0'
p2040
tp2041
bsg69
g519
sg71
Fnan
sg72
g1725
sg74
F-1000000000000000.0
sg75
F-1000000000000000.0
sg76
I00
sg77
I00
sbsg78
I01
sg79
g1275
sg81
I00
sg82
I00
sg83
g404
sg85
g86
sg87
I00
sg88
I00
sg89
I00
sg90
V/lab/data/app3/2013/1309/130927/
p2042
sg92
g404
sg93
I00
sg94
I01
sg95
S'Mean                   =  69.722222\nStd. deviation         =  10.694264\nStd. error of the mean =   1.807661\nPk-Pk                  =  50.000000\n\nMean                   = 1384.986201\nStd. deviation         = 814.208294\nStd. error of the mean = 137.626321\nPk-Pk                  = 3190.050802\n\n'
p2043
sg97
g86
sg98
Fnan
sg99
g1866
sg101
VDIMPLELATTICE:knob7
p2044
sg103
g86
sg104
F1.0
sg105
g1236
sg106
Fnan
sg61
VVary diss measure assoc
p2045
sg108
S'#\n# Column index\n#  0  SEQ:shot\n#  1  DIMPLELATTICE:knob7\n#  2  ANDOR1EIGEN:signal\n\n8780\t\t60.0000\t\t1019.8045\t\t\n8781\t\t62.0000\t\t668.9577\t\t\n8782\t\t64.0000\t\t1961.1910\t\t\n8783\t\t66.0000\t\t2107.0248\t\t\n8784\t\t68.0000\t\t1377.2511\t\t\n8785\t\t70.0000\t\t2144.0574\t\t\n8786\t\t72.0000\t\t1397.7354\t\t\n8787\t\t74.0000\t\t1760.3455\t\t\n8788\t\t76.0000\t\t1975.7425\t\t\n8789\t\t78.0000\t\t1414.0730\t\t\n8790\t\t80.0000\t\t2454.2145\t\t\n8791\t\t63.0000\t\t99.5033\t\t\n8792\t\t65.0000\t\t1478.9928\t\t\n8793\t\t\n8794\t\t67.0000\t\t1304.7534\t\t\n8795\t\t69.0000\t\t1454.2612\t\t\n8796\t\t71.0000\t\t1296.5158\t\t\n8797\t\t73.0000\t\t1957.7933\t\t\n8798\t\t75.0000\t\t1523.4489\t\t\n8799\t\t77.0000\t\t2113.1821\t\t\n8800\t\t79.0000\t\t2569.0441\t\t\n8801\t\t81.0000\t\t2061.3152\t\t\n8802\t\t55.0000\t\t434.8335\t\t\n8803\t\t56.0000\t\t256.6001\t\t\n8804\t\t57.0000\t\t610.5611\t\t\n8805\t\t58.0000\t\t466.6421\t\t\n8806\t\t59.0000\t\t-151.7607\t\t\n8807\t\t60.0000\t\t265.4236\t\t\n8808\t\t61.0000\t\t336.8513\t\t\n8809\t\t62.0000\t\t-218.8562\t\t\n8810\t\t63.0000\t\t1093.4245\t\t\n8811\t\t64.0000\t\t1753.7016\t\t\n8812\t\t65.0000\t\t1448.3592\t\t\n8813\t\t\n8814\t\t75.0000\t\t2971.1946\t\t\n8815\t\t85.0000\t\t2069.3790\t\t\n8816\t\t95.0000\t\t1790.9628\t\t\n8817\t\t105.0000\t\t2592.9794\t\t'
p2046
sg110
g1283
sg112
I00
sg113
V8780:8817
p2047
sg115
g404
sg116
F10.0
sg117
I01
sg118
Fnan
sg119
g1286
sg121
I00
sbag4
(g14
tp2048
Rp2049
(dp2050
g9
g10
sg18
g1236
sg20
Fnan
sg21
g4
(g22
tp2051
Rp2052
(dp2053
g26
g2021
sg9
g10
sg42
g2027
sg49
g1257
sg51
Fnan
sg52
F1000000000000000.0
sg53
F1000000000000000.0
sg54
g0
(g1
g2
(lp2054
I01
aI01
aI01
aI01
aI01
atp2055
Rp2056
(dp2057
g59
S'fit_mask_items'
p2058
sg61
g54
sbsg62
g2038
sg69
g519
sg71
Fnan
sg72
g1725
sg74
F-1000000000000000.0
sg75
F-1000000000000000.0
sg76
I00
sg77
I00
sbsg78
I01
sg79
g1275
sg81
I00
sg82
I00
sg83
g404
sg85
g86
sg87
I00
sg88
I00
sg89
I00
sg90
g2042
sg92
g404
sg93
I00
sg94
I01
sg95
S'Mean                   =  67.395238\nStd. deviation         =   6.211508\nStd. error of the mean =   0.970075\nPk-Pk                  =  21.000000\n\nMean                   = 6626.535978\nStd. deviation         = 3623.255662\nStd. error of the mean = 565.857467\nPk-Pk                  = 11154.254307\n\n'
p2059
sg97
g86
sg98
Fnan
sg99
g1866
sg101
g2044
sg103
g86
sg104
F1.0
sg105
g1236
sg106
Fnan
sg61
Vvary diss
p2060
sg108
S'#\n# Column index\n#  0  SEQ:shot\n#  1  DIMPLELATTICE:knob7\n#  2  ANDOR1EIGEN:signal\n\n8818\t\t60.0000\t\t328.3506\t\t\n8819\t\t62.0000\t\t1253.4740\t\t\n8820\t\t64.0000\t\t8304.4171\t\t\n8821\t\t66.0000\t\t10284.1057\t\t\n8822\t\t68.0000\t\t10298.8359\t\t\n8823\t\t70.0000\t\t9753.8879\t\t\n8824\t\t72.0000\t\t8481.0991\t\t\n8825\t\t74.0000\t\t9501.0159\t\t\n8826\t\t76.0000\t\t10866.6993\t\t\n8827\t\t78.0000\t\t10307.7804\t\t\n8828\t\t80.0000\t\t9564.0884\t\t\n8829\t\t61.0000\t\t595.3261\t\t\n8830\t\t63.0000\t\t1837.4358\t\t\n8831\t\t65.0000\t\t8318.5793\t\t\n8832\t\t67.0000\t\t8249.1842\t\t\n8833\t\t69.0000\t\t8528.9470\t\t\n8834\t\t71.0000\t\t8810.6922\t\t\n8835\t\t73.0000\t\t8725.1942\t\t\n8836\t\t75.0000\t\t8432.3547\t\t\n8837\t\t77.0000\t\t9204.5982\t\t\n8838\t\t79.0000\t\t8528.4350\t\t\n8839\t\t81.0000\t\t8724.1547\t\t\n8841\t\t60.5000\t\t-287.5550\t\t\n8842\t\t61.5000\t\t447.5424\t\t\n8843\t\t62.5000\t\t1936.4770\t\t\n8844\t\t63.5000\t\t9585.9289\t\t\n8845\t\t64.5000\t\t8623.7091\t\t\n8846\t\t65.5000\t\t9083.8625\t\t\n8847\t\t80.0000\t\t9750.7324\t\t\n8848\t\t62.6000\t\t1598.0016\t\t\n8849\t\t62.7000\t\t1494.1968\t\t\n8850\t\t62.8000\t\t1780.9663\t\t\n8851\t\t62.9000\t\t1688.5260\t\t\n8852\t\t63.0000\t\t1700.7787\t\t\n8853\t\t63.1000\t\t5047.3742\t\t\n8854\t\t63.2000\t\t4575.2758\t\t\n8855\t\t63.3000\t\t8378.0369\t\t\n8856\t\t63.4000\t\t8216.5938\t\t\n8857\t\t63.5000\t\t9408.1133\t\t\n8858\t\t63.6000\t\t9605.8538\t\t\n8859\t\t63.7000\t\t7854.3938\t\t\n8860\t\t63.8000\t\t8927.0469\t\t'
p2061
sg110
g1283
sg112
I00
sg113
V8818:8860,-8840
p2062
sg115
g404
sg116
F10.0
sg117
I01
sg118
Fnan
sg119
g1286
sg121
I00
sbag4
(g14
tp2063
Rp2064
(dp2065
g9
g10
sg18
g1236
sg20
Fnan
sg21
g4
(g22
tp2066
Rp2067
(dp2068
g26
g2021
sg9
g10
sg42
g2027
sg49
g1257
sg51
Fnan
sg52
F1000000000000000.0
sg53
F1000000000000000.0
sg54
g0
(g1
g2
(lp2069
I01
aI01
aI01
aI01
aI01
atp2070
Rp2071
(dp2072
g59
S'fit_mask_items'
p2073
sg61
g54
sbsg62
g2038
sg69
g519
sg71
Fnan
sg72
g1725
sg74
F-1000000000000000.0
sg75
F-1000000000000000.0
sg76
I00
sg77
I00
sbsg78
I01
sg79
g1275
sg81
I00
sg82
I00
sg83
g404
sg85
g86
sg87
I00
sg88
I00
sg89
I00
sg90
V/lab/data/app3/2013/1309/130930/
p2074
sg92
g404
sg93
I00
sg94
I01
sg95
S'Mean                   =  64.500000\nStd. deviation         =   2.000000\nStd. error of the mean =   0.816497\nPk-Pk                  =   5.000000\n\nMean                   = 13008.387571\nStd. deviation         = 6162.347829\nStd. error of the mean = 2515.767967\nPk-Pk                  = 16947.641000\n\n'
p2075
sg97
g86
sg98
Fnan
sg99
VCPP:nfit
p2076
sg101
VDIMPLELATTICE:knob7
p2077
sg103
g86
sg104
F1.0
sg105
g1236
sg106
Fnan
sg61
Vrepeat diss
p2078
sg108
S'#\n# Column index\n#  0  SEQ:shot\n#  1  DIMPLELATTICE:knob7\n#  2  CPP:nfit\n\n8959\t\t64.5000\t\t19036.6500\t\t\n8960\t\t67.5000\t\t16713.4500\t\t\n8961\t\t67.5000\t\t23458.7300\t\t\n8962\t\t63.5000\t\t8603.9600\t\t\n8963\t\t63.5000\t\t7404.7290\t\t\n8964\t\t62.5000\t\t6511.0890\t\t\n8965\t\t62.5000\t\t9330.1050\t\t'
p2079
sg110
g1283
sg112
I00
sg113
V8959:8965
p2080
sg115
g404
sg116
F10.0
sg117
I01
sg118
Fnan
sg119
g1286
sg121
I00
sbag4
(g14
tp2081
Rp2082
(dp2083
g9
g10
sg18
g1236
sg20
Fnan
sg21
g4
(g22
tp2084
Rp2085
(dp2086
g26
g2021
sg9
g10
sg42
g2027
sg49
g1257
sg51
Fnan
sg52
F1000000000000000.0
sg53
F1000000000000000.0
sg54
g0
(g1
g2
(lp2087
I01
aI01
aI01
aI01
aI01
atp2088
Rp2089
(dp2090
g59
S'fit_mask_items'
p2091
sg61
g54
sbsg62
g2038
sg69
g519
sg71
Fnan
sg72
g1725
sg74
F-1000000000000000.0
sg75
F-1000000000000000.0
sg76
I00
sg77
I00
sbsg78
I01
sg79
g1275
sg81
I00
sg82
I01
sg83
g404
sg85
g86
sg87
I00
sg88
I00
sg89
I00
sg90
V/lab/data/app3/2013/1310/131001/
p2092
sg92
g404
sg93
I00
sg94
I01
sg95
S'Mean                   =  60.665000\nStd. deviation         =   2.867102\nStd. error of the mean =   0.459104\nPk-Pk                  =  11.000000\n\nMean                   = 16823.537947\nStd. deviation         = 10069.128205\nStd. error of the mean = 1612.350910\nPk-Pk                  = 31268.883299\n\n'
p2093
sg97
g86
sg98
Fnan
sg99
VANDOR1EIGEN:signal
p2094
sg101
g2077
sg103
g86
sg104
F1.0
sg105
g1236
sg106
Fnan
sg61
VVary assoc A1
p2095
sg108
S'#\n# Column index\n#  0  SEQ:shot\n#  1  DIMPLELATTICE:knob7\n#  2  ANDOR1EIGEN:signal\n\n9126\t\t62.0000\t\t24960.7824\t\t\n9127\t\t62.4000\t\t24253.0627\t\t\n9128\t\t62.8000\t\t30088.9648\t\t\n9129\t\t63.2000\t\t31966.3738\t\t\n9130\t\t63.6000\t\t33073.8861\t\t\n9131\t\t64.0000\t\t23786.6241\t\t\n9132\t\t64.4000\t\t28854.7896\t\t\n9133\t\t64.8000\t\t31924.4812\t\t\n9134\t\t65.2000\t\t33817.8361\t\t\n9135\t\t65.6000\t\t33041.4669\t\t\n9136\t\t66.0000\t\t31417.8157\t\t\n9137\t\t60.0000\t\t11047.7465\t\t\n9138\t\t60.4000\t\t9480.0507\t\t\n9139\t\t60.8000\t\t9130.9225\t\t\n9142\t\t\n9143\t\t\n9144\t\t62.0000\t\t24423.2166\t\t\n9145\t\t61.2000\t\t19812.3974\t\t\n9146\t\t61.6000\t\t21301.8336\t\t\n9147\t\t55.0000\t\t2691.5805\t\t\n9148\t\t55.0000\t\t2548.9528\t\t\n9149\t\t55.4000\t\t3520.0317\t\t\n9150\t\t55.8000\t\t3325.3900\t\t\n9151\t\t56.2000\t\t3365.9260\t\t\n9152\t\t56.6000\t\t3953.8473\t\t\n9153\t\t57.0000\t\t2972.7425\t\t\n9154\t\t\n9155\t\t57.8000\t\t5433.8120\t\t\n9156\t\t\n9157\t\t58.6000\t\t5355.1635\t\t\n9158\t\t59.0000\t\t8116.7711\t\t\n9159\t\t59.4000\t\t8664.2273\t\t\n9160\t\t59.8000\t\t9659.1292\t\t\n9161\t\t60.5000\t\t13977.1666\t\t\n9162\t\t60.6000\t\t16186.3817\t\t\n9163\t\t60.7000\t\t11598.1775\t\t\n9164\t\t60.8000\t\t17860.2233\t\t\n9165\t\t60.9000\t\t18870.9792\t\t\n9166\t\t61.0000\t\t18979.5924\t\t\n9167\t\t61.1000\t\t16855.6209\t\t\n9168\t\t61.2000\t\t15896.1137\t\t\n9170\t\t61.4000\t\t22302.3567\t\t\n9171\t\t\n9172\t\t61.5000\t\t18435.2864\t\t\n9173\t\t61.3000\t\t19989.7953\t\t'
p2096
sg110
g1283
sg112
I00
sg113
V9126:9173,-9140,-9141,-9169
p2097
sg115
g404
sg116
F10.0
sg117
I01
sg118
Fnan
sg119
g1286
sg121
I00
sbag4
(g14
tp2098
Rp2099
(dp2100
g9
g10
sg18
g1236
sg20
Fnan
sg21
g4
(g22
tp2101
Rp2102
(dp2103
g26
g2021
sg9
g10
sg42
g2027
sg49
g1257
sg51
Fnan
sg52
F1000000000000000.0
sg53
F1000000000000000.0
sg54
g0
(g1
g2
(lp2104
I01
aI01
aI01
aI01
aI01
atp2105
Rp2106
(dp2107
g59
S'fit_mask_items'
p2108
sg61
g54
sbsg62
g2038
sg69
g519
sg71
Fnan
sg72
g1725
sg74
F-1000000000000000.0
sg75
F-1000000000000000.0
sg76
I00
sg77
I00
sbsg78
I01
sg79
g1275
sg81
I00
sg82
I01
sg83
g404
sg85
g86
sg87
I00
sg88
I00
sg89
I00
sg90
g2092
sg92
g404
sg93
I00
sg94
I01
sg95
S'Mean                   =  60.528571\nStd. deviation         =   2.865084\nStd. error of the mean =   0.447451\nPk-Pk                  =  11.000000\n\nMean                   = 8432.144249\nStd. deviation         = 5069.737161\nStd. error of the mean = 791.759924\nPk-Pk                  = 16275.232078\n\n'
p2109
sg97
g86
sg98
Fnan
sg99
VANDOR2EIGEN:signal
p2110
sg101
g2077
sg103
g86
sg104
F1.0
sg105
g1236
sg106
Fnan
sg61
VVary assoc A2
p2111
sg108
S'#\n# Column index\n#  0  SEQ:shot\n#  1  DIMPLELATTICE:knob7\n#  2  ANDOR2EIGEN:signal\n\n9126\t\t62.0000\t\t11630.1665\t\t\n9127\t\t62.4000\t\t12572.0432\t\t\n9128\t\t62.8000\t\t16855.7704\t\t\n9129\t\t63.2000\t\t16002.5075\t\t\n9130\t\t63.6000\t\t17329.4426\t\t\n9131\t\t64.0000\t\t13647.3748\t\t\n9132\t\t64.4000\t\t13970.2863\t\t\n9133\t\t64.8000\t\t16089.1024\t\t\n9134\t\t65.2000\t\t17388.3722\t\t\n9135\t\t65.6000\t\t17653.0563\t\t\n9136\t\t66.0000\t\t15440.0133\t\t\n9137\t\t60.0000\t\t5704.3696\t\t\n9138\t\t60.4000\t\t4546.8684\t\t\n9139\t\t60.8000\t\t4699.3242\t\t\n9142\t\t\n9143\t\t\n9144\t\t62.0000\t\t12810.9189\t\t\n9145\t\t61.2000\t\t11038.9272\t\t\n9146\t\t61.6000\t\t11057.5194\t\t\n9147\t\t55.0000\t\t1513.2728\t\t\n9148\t\t55.0000\t\t2358.9072\t\t\n9149\t\t55.4000\t\t2407.7459\t\t\n9150\t\t55.8000\t\t1872.2859\t\t\n9151\t\t56.2000\t\t1377.8242\t\t\n9152\t\t56.6000\t\t3141.3789\t\t\n9153\t\t57.0000\t\t2153.9037\t\t\n9154\t\t57.4000\t\t3876.1244\t\t\n9155\t\t57.8000\t\t3452.0612\t\t\n9156\t\t58.2000\t\t4339.3128\t\t\n9157\t\t58.6000\t\t3795.2827\t\t\n9158\t\t59.0000\t\t4115.8226\t\t\n9159\t\t59.4000\t\t4267.2961\t\t\n9160\t\t59.8000\t\t4907.0443\t\t\n9161\t\t60.5000\t\t6376.0178\t\t\n9162\t\t60.6000\t\t7911.1868\t\t\n9163\t\t60.7000\t\t4828.5171\t\t\n9164\t\t60.8000\t\t7457.2465\t\t\n9165\t\t60.9000\t\t9422.8215\t\t\n9166\t\t61.0000\t\t8995.4196\t\t\n9167\t\t61.1000\t\t8451.6193\t\t\n9168\t\t61.2000\t\t8649.5241\t\t\n9170\t\t61.4000\t\t10502.5397\t\t\n9171\t\t\n9172\t\t61.5000\t\t8466.1066\t\t\n9173\t\t61.3000\t\t11074.7338\t\t'
p2112
sg110
g1283
sg112
I00
sg113
V9126:9173,-9140,-9141,-9169
p2113
sg115
g404
sg116
F10.0
sg117
I01
sg118
Fnan
sg119
g1286
sg121
I00
sbag4
(g14
tp2114
Rp2115
(dp2116
g9
g10
sg18
g1236
sg20
Fnan
sg21
g4
(g22
tp2117
Rp2118
(dp2119
g26
g2021
sg9
g10
sg42
g2027
sg49
g1257
sg51
Fnan
sg52
F1000000000000000.0
sg53
F1000000000000000.0
sg54
g0
(g1
g2
(lp2120
I01
aI01
aI01
aI01
aI01
atp2121
Rp2122
(dp2123
g59
S'fit_mask_items'
p2124
sg61
g54
sbsg62
g2038
sg69
g519
sg71
Fnan
sg72
g1725
sg74
F-1000000000000000.0
sg75
F-1000000000000000.0
sg76
I00
sg77
I00
sbsg78
I01
sg79
g1275
sg81
I00
sg82
I01
sg83
g404
sg85
g86
sg87
I00
sg88
I00
sg89
I00
sg90
g2092
sg92
g404
sg93
I00
sg94
I01
sg95
S'Mean                   =  63.277632\nStd. deviation         =   1.442435\nStd. error of the mean =   0.237135\nPk-Pk                  =   5.050000\n\nMean                   = 3145.247814\nStd. deviation         = 2362.052590\nStd. error of the mean = 388.319054\nPk-Pk                  = 7403.408249\n\n'
p2125
sg97
g86
sg98
Fnan
sg99
g2094
sg101
g2077
sg103
g86
sg104
F1.0
sg105
g1236
sg106
Fnan
sg61
VVary assoc A1
p2126
sg108
S'#\n# Column index\n#  0  SEQ:shot\n#  1  DIMPLELATTICE:knob7\n#  2  ANDOR1EIGEN:signal\n\n9209\t\t62.0000\t\t1283.2252\t\t\n9210\t\t61.9000\t\t1034.6228\t\t\n9211\t\t61.8000\t\t970.2831\t\t\n9212\t\t61.7000\t\t1480.0493\t\t\n9213\t\t61.6000\t\t756.7358\t\t\n9214\t\t61.5000\t\t960.9585\t\t\n9215\t\t61.4000\t\t852.3216\t\t\n9216\t\t61.3000\t\t606.7118\t\t\n9217\t\t61.2000\t\t588.1862\t\t\n9218\t\t66.0000\t\t5129.9119\t\t\n9219\t\t62.0000\t\t799.3732\t\t\n9220\t\t62.0000\t\t896.6699\t\t\n9221\t\t62.5000\t\t817.3638\t\t\n9222\t\t63.0000\t\t1443.1907\t\t\n9223\t\t63.5000\t\t6461.3715\t\t\n9224\t\t64.0000\t\t6354.6346\t\t\n9225\t\t64.5000\t\t6242.9640\t\t\n9226\t\t65.0000\t\t6257.7280\t\t\n9227\t\t65.5000\t\t5008.0711\t\t\n9228\t\t66.0000\t\t5615.2879\t\t\n9229\t\t62.2500\t\t921.6372\t\t\n9230\t\t62.7500\t\t899.6281\t\t\n9231\t\t63.2500\t\t3095.6564\t\t\n9232\t\t63.7500\t\t5493.6972\t\t\n9233\t\t64.2500\t\t4586.5848\t\t\n9234\t\t64.7500\t\t5146.2784\t\t\n9235\t\t65.2500\t\t6710.5540\t\t\n9236\t\t65.7500\t\t6255.6344\t\t\n9237\t\t66.2500\t\t7991.5945\t\t\n9238\t\t62.7000\t\t909.7462\t\t\n9239\t\t62.8000\t\t930.3014\t\t\n9240\t\t62.9000\t\t1392.8380\t\t\n9241\t\t63.0000\t\t1966.9082\t\t\n9242\t\t63.1000\t\t1787.5201\t\t\n9243\t\t63.2000\t\t3262.0748\t\t\n9244\t\t63.3000\t\t5587.7193\t\t\n9245\t\t63.4000\t\t5385.8958\t\t\n9246\t\t63.5000\t\t3635.4874\t\t\n9247\t\t'
p2127
sg110
g1283
sg112
I00
sg113
V9209:9247
p2128
sg115
g404
sg116
F10.0
sg117
I01
sg118
Fnan
sg119
g1286
sg121
I00
sbag4
(g14
tp2129
Rp2130
(dp2131
g9
g10
sg18
g1236
sg20
Fnan
sg21
g4
(g22
tp2132
Rp2133
(dp2134
g26
g2021
sg9
g10
sg42
g2027
sg49
g1257
sg51
Fnan
sg52
F1000000000000000.0
sg53
F1000000000000000.0
sg54
g0
(g1
g2
(lp2135
I01
aI01
aI01
aI01
aI01
atp2136
Rp2137
(dp2138
g59
S'fit_mask_items'
p2139
sg61
g54
sbsg62
g2038
sg69
g519
sg71
Fnan
sg72
g1725
sg74
F-1000000000000000.0
sg75
F-1000000000000000.0
sg76
I00
sg77
I00
sbsg78
I01
sg79
g1275
sg81
I00
sg82
I01
sg83
g404
sg85
g86
sg87
I00
sg88
I00
sg89
I00
sg90
g2092
sg92
g404
sg93
I00
sg94
I01
sg95
S'Mean                   =  63.277632\nStd. deviation         =   1.442435\nStd. error of the mean =   0.237135\nPk-Pk                  =   5.050000\n\nMean                   = 1218.868390\nStd. deviation         = 1099.888192\nStd. error of the mean = 180.820505\nPk-Pk                  = 3971.570309\n\n'
p2140
sg97
g86
sg98
Fnan
sg99
g2110
sg101
g2077
sg103
g86
sg104
F1.0
sg105
g1236
sg106
Fnan
sg61
VVary assoc A2
p2141
sg108
S'#\n# Column index\n#  0  SEQ:shot\n#  1  DIMPLELATTICE:knob7\n#  2  ANDOR2EIGEN:signal\n\n9209\t\t62.0000\t\t-138.3083\t\t\n9210\t\t61.9000\t\t-260.0476\t\t\n9211\t\t61.8000\t\t129.1035\t\t\n9212\t\t61.7000\t\t203.8371\t\t\n9213\t\t61.6000\t\t62.9366\t\t\n9214\t\t61.5000\t\t-207.8704\t\t\n9215\t\t61.4000\t\t367.2550\t\t\n9216\t\t61.3000\t\t-150.1040\t\t\n9217\t\t61.2000\t\t545.2304\t\t\n9218\t\t66.0000\t\t2371.4637\t\t\n9219\t\t62.0000\t\t573.2590\t\t\n9220\t\t62.0000\t\t1218.7413\t\t\n9221\t\t62.5000\t\t765.2118\t\t\n9222\t\t63.0000\t\t336.7224\t\t\n9223\t\t63.5000\t\t1959.1109\t\t\n9224\t\t64.0000\t\t1407.8665\t\t\n9225\t\t64.5000\t\t1503.4503\t\t\n9226\t\t65.0000\t\t2142.2862\t\t\n9227\t\t65.5000\t\t1958.5583\t\t\n9228\t\t66.0000\t\t2187.2322\t\t\n9229\t\t62.2500\t\t-252.8590\t\t\n9230\t\t62.7500\t\t-617.3563\t\t\n9231\t\t63.2500\t\t1196.3290\t\t\n9232\t\t63.7500\t\t3354.2140\t\t\n9233\t\t64.2500\t\t1903.6349\t\t\n9234\t\t64.7500\t\t1764.1087\t\t\n9235\t\t65.2500\t\t2699.5534\t\t\n9236\t\t65.7500\t\t3323.8328\t\t\n9237\t\t66.2500\t\t2616.7112\t\t\n9238\t\t62.7000\t\t1012.3119\t\t\n9239\t\t62.8000\t\t244.5709\t\t\n9240\t\t62.9000\t\t666.0042\t\t\n9241\t\t63.0000\t\t1661.4310\t\t\n9242\t\t63.1000\t\t809.7274\t\t\n9243\t\t63.2000\t\t1024.9029\t\t\n9244\t\t63.3000\t\t3083.7617\t\t\n9245\t\t63.4000\t\t2284.2855\t\t\n9246\t\t63.5000\t\t2565.8996\t\t\n9247\t\t'
p2142
sg110
g1283
sg112
I00
sg113
V9209:9247
p2143
sg115
g404
sg116
F10.0
sg117
I01
sg118
Fnan
sg119
g1286
sg121
I00
sbatp2144
Rp2145
(dp2146
g59
S'datasets_items'
p2147
sg61
g12
sbsg82
I00
sg83
VFR cross and back
p2148
sg471
I2
sg472
g2082
sg473
g0
(g1
g2
(lp2149
I1
aI2
aI3
aI4
aI5
aI6
aI7
atp2150
Rp2151
(dp2152
g59
S'grids_items'
p2153
sg61
g473
sbsg479
I2
sg61
VFR cross and back
p2154
sbatp2155
Rp2156
(dp2157
g59
S'subplots_items'
p2158
sg61
S'subplots'
p2159
sb.