ccopy_reg
_reconstructor
p0
(ctraits.trait_handlers
TraitListObject
p1
c__builtin__
list
p2
(lp3
ctraits.traits
__newobj__
p4
(c__main__
SubPlot
p5
tp6
Rp7
(dp8
S'__traits_version__'
p9
S'4.0.0'
p10
sS'index'
p11
I3
sS'datasets'
p12
g0
(g1
g2
(lp13
g4
(c__main__
DataSet
p14
tp15
Rp16
(dp17
g9
g10
sS'mfc'
p18
VNone
p19
sS'Ymax'
p20
F90.0
sS'fit1'
p21
g4
(cfitlibrary
Fits
p22
tp23
Rp24
(dp25
S'a'
p26
cnumpy.core.multiarray
_reconstruct
p27
(cnumpy
ndarray
p28
(I0
tp29
S'b'
p30
tp31
Rp32
(I1
(I5
I1
tp33
cnumpy
dtype
p34
(S'f8'
p35
I0
I1
tp36
Rp37
(I3
S'<'
p38
NNNI-1
I-1
I0
tp39
bI00
S'\x00\x00\x00\x00\x00\x00\x00\x00\x00\x00\x00\x00\x00\x00\x00\x00\x00\x00\x00\x00\x00\x00\x00\x00\x00\x00\x00\x00\x00\x00\x00\x00\x00\x00\x00\x00\x00\x00\x00\x00'
p40
tp41
bsg9
g10
sS'ae'
p42
g27
(g28
(I0
tp43
g30
tp44
Rp45
(I1
(I5
I1
tp46
g37
I00
S'\x00\x00\x00\x00\x00\x00\x00\x00\x00\x00\x00\x00\x00\x00\x00\x00\x00\x00\x00\x00\x00\x00\x00\x00\x00\x00\x00\x00\x00\x00\x00\x00\x00\x00\x00\x00\x00\x00\x00\x00'
p47
tp48
bsS'column_labels'
p49
S'A0   |   Afit   |   Aerr   |   Fit Mask'
p50
sS'xf'
p51
F1000000000000000.0
sS'yf'
p52
F1000000000000000.0
sS'fit_mask'
p53
g0
(g1
g2
(lp54
I01
aI01
aI01
aI01
aI01
atp55
Rp56
(dp57
S'name_items'
p58
S'fit_mask_items'
p59
sS'name'
p60
g53
sbsS'a0'
p61
g27
(g28
(I0
tp62
g30
tp63
Rp64
(I1
(I5
I1
tp65
g37
I00
S'\x00\x00\x00\x00\x00\x00\x00\x00\x00\x00\x00\x00\x00\x00\x00\x00\x00\x00\x00\x00\x00\x00\x00\x00\x00\x00\x00\x00\x00\x00\x00\x00\x00\x00\x00\x00\x00\x00\x00\x00'
p66
tp67
bsS'fitexpr'
p68
S'a[0]*sinc^2( 2*pi * (x-a[1]) * a[2]/2 ) +a[3]'
p69
sS'func'
p70
S'RabiResonance'
p71
sS'y0'
p72
F-1000000000000000.0
sS'x0'
p73
F-1000000000000000.0
sS'doplot'
p74
I00
sS'dofit'
p75
I00
sbsS'xticks'
p76
I01
sS'descr_label'
p77
S'Description:'
p78
sS'stats'
p79
I00
sS'plotme'
p80
I01
sS'descr'
p81
VBackground data from off angle beam
p82
sS'title'
p83
S''
p84
sS'logscaleY'
p85
I00
sS'logscaleX'
p86
I00
sS'gridlines'
p87
I00
sS'datadir'
p88
V/lab/data/app3/2013/1302/130222/
p89
sS'ylabel'
p90
V
p91
sS'X2'
p92
I00
sS'match'
p93
I00
sS'stat'
p94
S'Mean                   = 2127.500000\nStd. deviation         =   5.766281\nStd. error of the mean =   1.322876\nPk-Pk                  =  19.000000\n\nMean                   =  40.336591\nStd. deviation         =  15.695616\nStd. error of the mean =   3.600821\nPk-Pk                  =  54.556391\n\n'
p95
sS'leg'
p96
g84
sS'Xmax'
p97
Fnan
sS'Y'
p98
VBRAGG:sum_net_6
p99
sS'X'
p100
VSEQ:shot
p101
sS'legend'
p102
g84
sS'me'
p103
F1.0
sS'c'
p104
Vblack
p105
sS'Ymin'
p106
F0.0
sg60
VBGND
p107
sS'raw_data'
p108
S'#\n# Column index\n#  0  SEQ:shot\n#  1  SEQ:shot\n#  2  BRAGG:sum_net_6\n\n2118\t\t2118.0000\t\t73.1654\t\t\n2119\t\t2119.0000\t\t27.5113\t\t\n2120\t\t2120.0000\t\t22.7419\t\t\n2121\t\t2121.0000\t\t60.6466\t\t\n2122\t\t2122.0000\t\t20.2632\t\t\n2123\t\t2123.0000\t\t39.4637\t\t\n2124\t\t2124.0000\t\t37.3083\t\t\n2125\t\t2125.0000\t\t59.1805\t\t\n2126\t\t2126.0000\t\t25.5789\t\t\n2127\t\t2127.0000\t\t38.4336\t\t\n2128\t\t2128.0000\t\t36.1479\t\t\n2129\t\t2129.0000\t\t64.9073\t\t\n2130\t\t2130.0000\t\t34.1830\t\t\n2131\t\t2131.0000\t\t49.0025\t\t\n2132\t\t2132.0000\t\t18.6090\t\t\n2133\t\t2133.0000\t\t38.2782\t\t\n2134\t\t2134.0000\t\t50.0551\t\t\n2135\t\t2135.0000\t\t25.2707\t\t\n2136\t\t2136.0000\t\t28.3759\t\t\n2137\t\t2137.0000\t\t57.6090\t\t'
p109
sS'm'
p110
S'o'
p111
sS'ST'
p112
I01
sS'range'
p113
V2118:2137
p114
sS'xlabel'
p115
VBGND
p116
sS'ms'
p117
F10.0
sS'yticks'
p118
I01
sS'Xmin'
p119
Fnan
sS'title_label'
p120
S'Title:'
p121
sS'Y2'
p122
I00
sbag4
(g14
tp123
Rp124
(dp125
g9
g10
sg18
S'green'
p126
sg20
F90.0
sg21
g4
(g22
tp127
Rp128
(dp129
g26
g32
sg9
g10
sg42
g45
sg49
g50
sg51
F1000000000000000.0
sg52
F1000000000000000.0
sg53
g0
(g1
g2
(lp130
I01
aI01
aI01
aI01
aI01
atp131
Rp132
(dp133
g58
S'fit_mask_items'
p134
sg60
g53
sbsg61
g64
sg68
g69
sg70
g71
sg72
F-1000000000000000.0
sg73
F-1000000000000000.0
sg74
I00
sg75
I00
sbsg76
I01
sg77
g78
sg79
I00
sg80
I01
sg81
VAngle0 without RF. 
p135
sg83
g84
sg85
I00
sg86
I00
sg87
I00
sg88
g89
sg90
V 
p136
sg92
I00
sg93
I01
sg94
S'Mean                   = 2188.000000\nStd. deviation         =   7.211103\nStd. error of the mean =   1.471960\nPk-Pk                  =  24.000000\n\nMean                   =  50.613634\nStd. deviation         =  14.510460\nStd. error of the mean =   2.961935\nPk-Pk                  =  55.208020\n\n'
p137
sg96
g84
sg97
Fnan
sg98
g99
sg100
g101
sg102
g84
sg103
F1.0
sg104
g126
sg106
F0.0
sg60
VA0
p138
sg108
S'#\n# Column index\n#  0  SEQ:shot\n#  1  SEQ:shot\n#  2  BRAGG:sum_net_6\n\n2176\t\t2176.0000\t\t37.5263\t\t\n2177\t\t2177.0000\t\t45.0852\t\t\n2178\t\t2178.0000\t\t54.0827\t\t\n2179\t\t2179.0000\t\t41.0401\t\t\n2180\t\t2180.0000\t\t54.0050\t\t\n2181\t\t2181.0000\t\t32.9549\t\t\n2182\t\t2182.0000\t\t37.0376\t\t\n2183\t\t2183.0000\t\t87.1178\t\t\n2184\t\t2184.0000\t\t38.8797\t\t\n2185\t\t2185.0000\t\t79.8045\t\t\n2186\t\t2186.0000\t\t44.3358\t\t\n2187\t\t2187.0000\t\t78.5564\t\t\n2188\t\t2188.0000\t\t47.4110\t\t\n2189\t\t2189.0000\t\t70.5764\t\t\n2190\t\t2190.0000\t\t53.3709\t\t\n2191\t\t2191.0000\t\t31.9098\t\t\n2192\t\t2192.0000\t\t41.9273\t\t\n2193\t\t2193.0000\t\t50.1479\t\t\n2194\t\t2194.0000\t\t45.7093\t\t\n2195\t\t2195.0000\t\t33.1830\t\t\n2196\t\t2196.0000\t\t47.9825\t\t\n2197\t\t2197.0000\t\t54.5138\t\t\n2198\t\t2198.0000\t\t54.8571\t\t\n2199\t\t2199.0000\t\t44.7343\t\t\n2200\t\t2200.0000\t\t58.5915\t\t'
p139
sg110
g111
sg112
I01
sg113
V2176:2200
p140
sg115
V-1.25 mrad
p141
sg117
F10.0
sg118
I01
sg119
Fnan
sg120
g121
sg122
I00
sbag4
(g14
tp142
Rp143
(dp144
g9
g10
sg18
Vgreen
p145
sg20
F90.0
sg21
g4
(g22
tp146
Rp147
(dp148
g26
g32
sg9
g10
sg42
g45
sg49
g50
sg51
F1000000000000000.0
sg52
F1000000000000000.0
sg53
g0
(g1
g2
(lp149
I01
aI01
aI01
aI01
aI01
atp150
Rp151
(dp152
g58
S'fit_mask_items'
p153
sg60
g53
sbsg61
g64
sg68
g69
sg70
g71
sg72
F-1000000000000000.0
sg73
F-1000000000000000.0
sg74
I00
sg75
I00
sbsg76
I01
sg77
g78
sg79
I00
sg80
I00
sg81
VAngle0 with RF. 
p154
sg83
g84
sg85
I00
sg86
I00
sg87
I00
sg88
V/lab/data/app3/2013/1302/130222/
p155
sg90
g84
sg92
I00
sg93
I01
sg94
S'Mean                   = 2211.500000\nStd. deviation         =   6.344289\nStd. error of the mean =   1.384437\nPk-Pk                  =  21.000000\n\nMean                   =  43.789474\nStd. deviation         =  13.766231\nStd. error of the mean =   3.004038\nPk-Pk                  =  53.634085\n\n'
p156
sg96
g84
sg97
Fnan
sg98
g99
sg100
g101
sg102
g84
sg103
F1.0
sg104
g145
sg106
F0.0
sg60
VA0_1
p157
sg108
S'#\n# Column index\n#  0  SEQ:shot\n#  1  SEQ:shot\n#  2  BRAGG:sum_net_6\n\n2201\t\t2201.0000\t\t54.9925\t\t\n2202\t\t2202.0000\t\t31.2381\t\t\n2203\t\t2203.0000\t\t50.4185\t\t\n2204\t\t2204.0000\t\t40.2506\t\t\n2205\t\t2205.0000\t\t23.0476\t\t\n2206\t\t2206.0000\t\t58.5163\t\t\n2207\t\t2207.0000\t\t10.9825\t\t\n2208\t\t2208.0000\t\t51.0301\t\t\n2209\t\t2209.0000\t\t49.7494\t\t\n2210\t\t2210.0000\t\t50.4511\t\t\n2211\t\t2211.0000\t\t32.0351\t\t\n2212\t\t2212.0000\t\t18.5789\t\t\n2213\t\t2213.0000\t\t47.2155\t\t\n2214\t\t2214.0000\t\t60.3133\t\t\n2215\t\t2215.0000\t\t41.1228\t\t\n2216\t\t2216.0000\t\t42.0602\t\t\n2217\t\t2217.0000\t\t64.6165\t\t\n2218\t\t2218.0000\t\t56.2281\t\t\n2219\t\t2219.0000\t\t32.0727\t\t\n2220\t\t2220.0000\t\t52.7920\t\t\n2221\t\t2221.0000\t\t42.0877\t\t\n2222\t\t2222.0000\t\t53.5689\t\t'
p158
sg110
Vs
p159
sg112
I01
sg113
V2201:2222
p160
sg115
V-1.25 mrad
p161
sg117
F10.0
sg118
I01
sg119
Fnan
sg120
g121
sg122
I00
sbag4
(g14
tp162
Rp163
(dp164
g9
g10
sg18
Vblue
p165
sg20
F90.0
sg21
g4
(g22
tp166
Rp167
(dp168
g26
g32
sg9
g10
sg42
g45
sg49
g50
sg51
F1000000000000000.0
sg52
F1000000000000000.0
sg53
g0
(g1
g2
(lp169
I01
aI01
aI01
aI01
aI01
atp170
Rp171
(dp172
g58
S'fit_mask_items'
p173
sg60
g53
sbsg61
g64
sg68
g69
sg70
g71
sg72
F-1000000000000000.0
sg73
F-1000000000000000.0
sg74
I00
sg75
I00
sbsg76
I01
sg77
g78
sg79
I00
sg80
I01
sg81
VIris was open
p174
sg83
g84
sg85
I00
sg86
I00
sg87
I00
sg88
g89
sg90
V 
p175
sg92
I00
sg93
I01
sg94
S'Mean                   = 2293.000000\nStd. deviation         =   6.055301\nStd. error of the mean =   1.354006\nPk-Pk                  =  20.000000\n\nMean                   =  44.660103\nStd. deviation         =  18.036911\nStd. error of the mean =   4.033176\nPk-Pk                  =  79.020050\n\n'
p176
sg96
g84
sg97
Fnan
sg98
g99
sg100
g101
sg102
g84
sg103
F1.0
sg104
g165
sg106
F0.0
sg60
VA1
p177
sg108
S'#\n# Column index\n#  0  SEQ:shot\n#  1  SEQ:shot\n#  2  BRAGG:sum_net_6\n\n2283\t\t2283.0000\t\t45.2807\t\t\n2284\t\t2284.0000\t\t84.6015\t\t\n2285\t\t2285.0000\t\t51.3509\t\t\n2286\t\t2286.0000\t\t28.5614\t\t\n2287\t\t2287.0000\t\t49.5614\t\t\n2288\t\t2288.0000\t\t17.4637\t\t\n2289\t\t2289.0000\t\t32.7243\t\t\n2290\t\t2290.0000\t\t37.2581\t\t\n2291\t\t2291.0000\t\t51.3434\t\t\n2292\t\t2292.0000\t\t75.0827\t\t\n2293\t\t2293.0000\t\t52.7043\t\t\n2294\t\t2294.0000\t\t27.1128\t\t\n2295\t\t2295.0000\t\t36.3910\t\t\n2296\t\t2296.0000\t\t37.3208\t\t\n2297\t\t2297.0000\t\t55.6015\t\t\n2298\t\t2298.0000\t\t5.5815\t\t\n2299\t\t2299.0000\t\t36.4336\t\t\n2300\t\t2300.0000\t\t46.9825\t\t\n2301\t\t2301.0000\t\t69.2556\t\t\n2302\t\t2302.0000\t\t39.9649\t\t\n2303\t\t2303.0000\t\t57.2857\t\t'
p178
sg110
g111
sg112
I01
sg113
V2283:2303
p179
sg115
V-2.7 mrad
p180
sg117
F10.0
sg118
I01
sg119
Fnan
sg120
g121
sg122
I00
sbag4
(g14
tp181
Rp182
(dp183
g9
g10
sg18
Vblue
p184
sg20
F90.0
sg21
g4
(g22
tp185
Rp186
(dp187
g26
g32
sg9
g10
sg42
g45
sg49
g50
sg51
F1000000000000000.0
sg52
F1000000000000000.0
sg53
g0
(g1
g2
(lp188
I01
aI01
aI01
aI01
aI01
atp189
Rp190
(dp191
g58
S'fit_mask_items'
p192
sg60
g53
sbsg61
g64
sg68
g69
sg70
g71
sg72
F-1000000000000000.0
sg73
F-1000000000000000.0
sg74
I00
sg75
I00
sbsg76
I01
sg77
g78
sg79
I00
sg80
I00
sg81
VIris was closed
p193
sg83
g84
sg85
I00
sg86
I00
sg87
I00
sg88
g89
sg90
g84
sg92
I00
sg93
I01
sg94
S'Mean                   = 2272.000000\nStd. deviation         =   6.055301\nStd. error of the mean =   1.354006\nPk-Pk                  =  20.000000\n\nMean                   =  54.248836\nStd. deviation         =  14.509210\nStd. error of the mean =   3.244358\nPk-Pk                  =  51.661654\n\n'
p194
sg96
g84
sg97
Fnan
sg98
g99
sg100
g101
sg102
g84
sg103
F1.0
sg104
g184
sg106
F0.0
sg60
VA1_X
p195
sg108
S'#\n# Column index\n#  0  SEQ:shot\n#  1  SEQ:shot\n#  2  BRAGG:sum_net_6\n\n2262\t\t2262.0000\t\t39.2682\t\t\n2263\t\t2263.0000\t\t82.2231\t\t\n2264\t\t2264.0000\t\t52.3459\t\t\n2265\t\t2265.0000\t\t63.6717\t\t\n2266\t\t2266.0000\t\t49.3409\t\t\n2267\t\t2267.0000\t\t59.7544\t\t\n2268\t\t2268.0000\t\t37.4085\t\t\n2269\t\t2269.0000\t\t32.2256\t\t\n2270\t\t2270.0000\t\t42.9699\t\t\n2271\t\t2271.0000\t\t57.0752\t\t\n2272\t\t2272.0000\t\t46.1604\t\t\n2273\t\t2273.0000\t\t45.0376\t\t\n2274\t\t2274.0000\t\t83.8872\t\t\n2275\t\t2275.0000\t\t41.3484\t\t\n2276\t\t2276.0000\t\t69.1378\t\t\n2277\t\t2277.0000\t\t58.1479\t\t\n2278\t\t2278.0000\t\t61.5063\t\t\n2279\t\t2279.0000\t\t36.1128\t\t\n2280\t\t2280.0000\t\t49.9499\t\t\n2281\t\t2281.0000\t\t77.2957\t\t\n2282\t\t2282.0000\t\t54.3584\t\t'
p196
sg110
g111
sg112
I01
sg113
V2262:2282
p197
sg115
V-2.7 mrad
p198
sg117
F10.0
sg118
I01
sg119
Fnan
sg120
g121
sg122
I00
sbag4
(g14
tp199
Rp200
(dp201
g9
g10
sg18
Vred
p202
sg20
F90.0
sg21
g4
(g22
tp203
Rp204
(dp205
g26
g32
sg9
g10
sg42
g45
sg49
g50
sg51
F1000000000000000.0
sg52
F1000000000000000.0
sg53
g0
(g1
g2
(lp206
I01
aI01
aI01
aI01
aI01
atp207
Rp208
(dp209
g58
S'fit_mask_items'
p210
sg60
g53
sbsg61
g64
sg68
g69
sg70
g71
sg72
F-1000000000000000.0
sg73
F-1000000000000000.0
sg74
I00
sg75
I00
sbsg76
I01
sg77
g78
sg79
I00
sg80
I01
sg81
VAngle 2 no RF
p211
sg83
g84
sg85
I00
sg86
I00
sg87
I00
sg88
V/lab/data/app3/2013/1302/130222/
p212
sg90
g84
sg92
I00
sg93
I01
sg94
S'Mean                   = 2350.772727\nStd. deviation         =   7.166410\nStd. error of the mean =   1.563839\nPk-Pk                  =  23.000000\n\nMean                   =  49.406471\nStd. deviation         =  13.829510\nStd. error of the mean =   3.017847\nPk-Pk                  =  44.418546\n\n'
p213
sg96
g84
sg97
Fnan
sg98
g99
sg100
g101
sg102
g84
sg103
F1.0
sg104
g202
sg106
F0.0
sg60
VA2
p214
sg108
S'#\n# Column index\n#  0  SEQ:shot\n#  1  SEQ:shot\n#  2  BRAGG:sum_net_6\n\n2339\t\t2339.0000\t\t72.5689\t\t\n2340\t\t2340.0000\t\t68.2707\t\t\n2341\t\t2341.0000\t\t53.0777\t\t\n2342\t\t2342.0000\t\t49.0100\t\t\n2343\t\t2343.0000\t\t29.6566\t\t\n2344\t\t2344.0000\t\t43.8722\t\t\n2345\t\t2345.0000\t\t33.8922\t\t\n2346\t\t2346.0000\t\t62.6892\t\t\n2349\t\t2349.0000\t\t65.3008\t\t\n2350\t\t2350.0000\t\t30.7093\t\t\n2351\t\t2351.0000\t\t32.9799\t\t\n2352\t\t2352.0000\t\t52.7769\t\t\n2353\t\t2353.0000\t\t37.7870\t\t\n2354\t\t2354.0000\t\t40.4261\t\t\n2355\t\t2355.0000\t\t52.7444\t\t\n2356\t\t2356.0000\t\t44.7318\t\t\n2357\t\t2357.0000\t\t38.1880\t\t\n2358\t\t2358.0000\t\t43.2857\t\t\n2359\t\t2359.0000\t\t36.7644\t\t\n2360\t\t2360.0000\t\t55.7644\t\t\n2361\t\t2361.0000\t\t74.0752\t\t\n2362\t\t2362.0000\t\t68.3709\t\t'
p215
sg110
g111
sg112
I01
sg113
V2339:2346,2349:2362
p216
sg115
V1.22 mrad
p217
sg117
F10.0
sg118
I01
sg119
Fnan
sg120
g121
sg122
I00
sbag4
(g14
tp218
Rp219
(dp220
g9
g10
sg18
Vred
p221
sg20
F90.0
sg21
g4
(g22
tp222
Rp223
(dp224
g26
g32
sg9
g10
sg42
g45
sg49
g50
sg51
F1000000000000000.0
sg52
F1000000000000000.0
sg53
g0
(g1
g2
(lp225
I01
aI01
aI01
aI01
aI01
atp226
Rp227
(dp228
g58
S'fit_mask_items'
p229
sg60
g53
sbsg61
g64
sg68
g69
sg70
g71
sg72
F-1000000000000000.0
sg73
F-1000000000000000.0
sg74
I00
sg75
I00
sbsg76
I01
sg77
g78
sg79
I00
sg80
I00
sg81
VAngle 2 with RF
p230
sg83
g84
sg85
I00
sg86
I00
sg87
I00
sg88
V/lab/data/app3/2013/1302/130222/
p231
sg90
g84
sg92
I00
sg93
I01
sg94
S'Mean                   = 2367.500000\nStd. deviation         =   2.872281\nStd. error of the mean =   0.957427\nPk-Pk                  =   9.000000\n\nMean                   =  34.996742\nStd. deviation         =  13.037933\nStd. error of the mean =   4.345978\nPk-Pk                  =  45.022556\n\n'
p232
sg96
g84
sg97
Fnan
sg98
VBRAGG:sum_net_6
p233
sg100
VSEQ:shot
p234
sg102
g84
sg103
F1.0
sg104
g221
sg106
F0.0
sg60
VA2_1
p235
sg108
S'#\n# Column index\n#  0  SEQ:shot\n#  1  SEQ:shot\n#  2  BRAGG:sum_net_6\n\n2363\t\t2363.0000\t\t44.1855\t\t\n2364\t\t2364.0000\t\t34.7569\t\t\n2365\t\t2365.0000\t\t31.8070\t\t\n2366\t\t2366.0000\t\t46.1905\t\t\n2367\t\t2367.0000\t\t24.7995\t\t\n2368\t\t2368.0000\t\t41.3258\t\t\n2369\t\t2369.0000\t\t58.2506\t\t\n2370\t\t2370.0000\t\t13.2281\t\t\n2371\t\t2371.0000\t\t38.0827\t\t\n2372\t\t2372.0000\t\t17.3409\t\t'
p236
sg110
Vs
p237
sg112
I01
sg113
V2363:2372
p238
sg115
V1.22
p239
sg117
F10.0
sg118
I01
sg119
Fnan
sg120
g121
sg122
I00
sbag4
(g14
tp240
Rp241
(dp242
g9
g10
sg18
Vdarkorange
p243
sg20
F90.0
sg21
g4
(g22
tp244
Rp245
(dp246
g26
g32
sg9
g10
sg42
g45
sg49
g50
sg51
F1000000000000000.0
sg52
F1000000000000000.0
sg53
g0
(g1
g2
(lp247
I01
aI01
aI01
aI01
aI01
atp248
Rp249
(dp250
g58
S'fit_mask_items'
p251
sg60
g53
sbsg61
g64
sg68
g69
sg70
g71
sg72
F-1000000000000000.0
sg73
F-1000000000000000.0
sg74
I00
sg75
I00
sbsg76
I01
sg77
g78
sg79
I00
sg80
I01
sg81
VAngle3 Manta pictures only
p252
sg83
g84
sg85
I00
sg86
I00
sg87
I00
sg88
V/lab/data/app3/2013/1302/130226/
p253
sg90
g84
sg92
I00
sg93
I01
sg94
S'Mean                   = 2796.000000\nStd. deviation         =   6.055301\nStd. error of the mean =   1.354006\nPk-Pk                  =  20.000000\n\nMean                   =  39.055018\nStd. deviation         =  16.079261\nStd. error of the mean =   3.595432\nPk-Pk                  =  71.634085\n\n'
p254
sg96
g84
sg97
Fnan
sg98
g233
sg100
g234
sg102
g84
sg103
F1.0
sg104
g243
sg106
F0.0
sg60
VA3
p255
sg108
S'#\n# Column index\n#  0  SEQ:shot\n#  1  SEQ:shot\n#  2  BRAGG:sum_net_6\n\n2786\t\t2786.0000\t\t48.0677\t\t\n2787\t\t2787.0000\t\t21.9148\t\t\n2788\t\t2788.0000\t\t62.4386\t\t\n2789\t\t2789.0000\t\t40.8421\t\t\n2790\t\t2790.0000\t\t31.7318\t\t\n2791\t\t2791.0000\t\t32.3158\t\t\n2792\t\t2792.0000\t\t34.7168\t\t\n2793\t\t2793.0000\t\t57.6817\t\t\n2794\t\t2794.0000\t\t33.7920\t\t\n2795\t\t2795.0000\t\t22.2356\t\t\n2796\t\t2796.0000\t\t9.9574\t\t\n2797\t\t2797.0000\t\t37.3885\t\t\n2798\t\t2798.0000\t\t46.4787\t\t\n2799\t\t2799.0000\t\t32.3459\t\t\n2800\t\t2800.0000\t\t50.2456\t\t\n2801\t\t2801.0000\t\t26.5764\t\t\n2802\t\t2802.0000\t\t35.3509\t\t\n2803\t\t2803.0000\t\t59.0602\t\t\n2804\t\t2804.0000\t\t24.7243\t\t\n2805\t\t2805.0000\t\t30.6992\t\t\n2806\t\t2806.0000\t\t81.5915\t\t'
p256
sg110
g111
sg112
I01
sg113
V2786:2806
p257
sg115
V-25 mrad
p258
sg117
F10.0
sg118
I01
sg119
Fnan
sg120
g121
sg122
I00
sbag4
(g14
tp259
Rp260
(dp261
g9
g10
sg18
Vdarkorange
p262
sg20
F90.0
sg21
g4
(g22
tp263
Rp264
(dp265
g26
g32
sg9
g10
sg42
g45
sg49
g50
sg51
F1000000000000000.0
sg52
F1000000000000000.0
sg53
g0
(g1
g2
(lp266
I01
aI01
aI01
aI01
aI01
atp267
Rp268
(dp269
g58
S'fit_mask_items'
p270
sg60
g53
sbsg61
g64
sg68
g69
sg70
g71
sg72
F-1000000000000000.0
sg73
F-1000000000000000.0
sg74
I00
sg75
I00
sbsg76
I01
sg77
g78
sg79
I00
sg80
I01
sg81
VAngle3 Manta + Andor
p271
sg83
g84
sg85
I00
sg86
I00
sg87
I00
sg88
g253
sg90
g84
sg92
I00
sg93
I01
sg94
S'Mean                   = 2841.724138\nStd. deviation         =   8.982345\nStd. error of the mean =   1.697504\nPk-Pk                  =  31.000000\n\nMean                   =  45.524328\nStd. deviation         =  10.137298\nStd. error of the mean =   1.915769\nPk-Pk                  =  41.157895\n\n'
p272
sg96
g84
sg97
Fnan
sg98
g233
sg100
g234
sg102
g84
sg103
F1.0
sg104
g262
sg106
F0.0
sg60
VA3
p273
sg108
S'#\n# Column index\n#  0  SEQ:shot\n#  1  SEQ:shot\n#  2  BRAGG:sum_net_6\n\n2826\t\t2826.0000\t\t65.3509\t\t\n2827\t\t\n2828\t\t2828.0000\t\t50.7744\t\t\n2829\t\t2829.0000\t\t46.0251\t\t\n2830\t\t2830.0000\t\t24.1930\t\t\n2831\t\t2831.0000\t\t45.3459\t\t\n2832\t\t2832.0000\t\t29.1529\t\t\n2833\t\t2833.0000\t\t52.6341\t\t\n2834\t\t2834.0000\t\t46.0025\t\t\n2835\t\t2835.0000\t\t45.8321\t\t\n2836\t\t2836.0000\t\t34.1604\t\t\n2837\t\t\n2838\t\t2838.0000\t\t54.5464\t\t\n2839\t\t2839.0000\t\t51.1980\t\t\n2840\t\t2840.0000\t\t38.5915\t\t\n2841\t\t2841.0000\t\t29.6491\t\t\n2842\t\t2842.0000\t\t60.0977\t\t\n2843\t\t2843.0000\t\t45.1003\t\t\n2844\t\t2844.0000\t\t49.4411\t\t\n2845\t\t2845.0000\t\t42.1729\t\t\n2846\t\t2846.0000\t\t35.3258\t\t\n2847\t\t2847.0000\t\t48.9799\t\t\n2848\t\t2848.0000\t\t37.6992\t\t\n2849\t\t2849.0000\t\t43.4637\t\t\n2850\t\t2850.0000\t\t62.5439\t\t\n2851\t\t2851.0000\t\t46.0050\t\t\n2852\t\t2852.0000\t\t62.0877\t\t\n2853\t\t2853.0000\t\t52.9499\t\t\n2854\t\t\n2855\t\t2855.0000\t\t34.0301\t\t\n2856\t\t2856.0000\t\t48.9774\t\t\n2857\t\t2857.0000\t\t37.8747\t\t'
p274
sg110
g111
sg112
I01
sg113
V2826:2857
p275
sg115
V-25 mrad
p276
sg117
F10.0
sg118
I01
sg119
Fnan
sg120
g121
sg122
I00
sbag4
(g14
tp277
Rp278
(dp279
g9
g10
sg18
Vnone
p280
sg20
F90.0
sg21
g4
(g22
tp281
Rp282
(dp283
g26
g32
sg9
g10
sg42
g45
sg49
g50
sg51
F1000000000000000.0
sg52
F1000000000000000.0
sg53
g0
(g1
g2
(lp284
I01
aI01
aI01
aI01
aI01
atp285
Rp286
(dp287
g58
S'fit_mask_items'
p288
sg60
g53
sbsg61
g64
sg68
g69
sg70
g71
sg72
F-1000000000000000.0
sg73
F-1000000000000000.0
sg74
I00
sg75
I00
sbsg76
I01
sg77
g78
sg79
I00
sg80
I01
sg81
VBragg no rf angle 3 no lattice
p289
sg83
g84
sg85
I00
sg86
I00
sg87
I00
sg88
V/lab/data/app3/2013/1302/130227/
p290
sg90
g84
sg92
I00
sg93
I00
sg94
S'Mean                   = 2974.210526\nStd. deviation         =   6.117954\nStd. error of the mean =   1.442016\nPk-Pk                  =  20.000000\n\nMean                   =  41.526316\nStd. deviation         =  11.293364\nStd. error of the mean =   2.661871\nPk-Pk                  =  46.733333\n\n'
p291
sg96
g84
sg97
Fnan
sg98
g233
sg100
g234
sg102
g84
sg103
F1.0
sg104
Vred
p292
sg106
F0.0
sg60
VA3_6
p293
sg108
S'#\n# Column index\n#  0  SEQ:shot\n#  1  SEQ:shot\n#  2  BRAGG:sum_net_6\n\n2964\t\t2964.0000\t\t32.9333\t\t\n2965\t\t2965.0000\t\t32.3333\t\t\n2966\t\t2966.0000\t\t73.5333\t\t\n2967\t\t\n2968\t\t2968.0000\t\t26.8000\t\t\n2969\t\t2969.0000\t\t37.0000\t\t\n2970\t\t2970.0000\t\t36.8000\t\t\n2971\t\t2971.0000\t\t55.0667\t\t\n2972\t\t2972.0000\t\t43.2667\t\t\n2973\t\t2973.0000\t\t39.8000\t\t\n2974\t\t2974.0000\t\t28.6000\t\t\n2975\t\t2975.0000\t\t35.7333\t\t\n2976\t\t2976.0000\t\t45.5333\t\t\n2977\t\t\n2978\t\t2978.0000\t\t37.8667\t\t\n2979\t\t2979.0000\t\t37.3333\t\t\n2980\t\t2980.0000\t\t45.4667\t\t\n2981\t\t2981.0000\t\t36.7333\t\t\n2982\t\t2982.0000\t\t63.1333\t\t\n2983\t\t2983.0000\t\t44.8000\t\t\n2984\t\t2984.0000\t\t36.2667\t\t\n2985\t\t\n2986\t\t'
p294
sg110
V^
p295
sg112
I01
sg113
V2964:2986
p296
sg115
V-25mrad BGND
p297
sg117
F10.0
sg118
I01
sg119
Fnan
sg120
g121
sg122
I00
sbag4
(g14
tp298
Rp299
(dp300
g9
g10
sg18
g292
sg20
F90.0
sg21
g4
(g22
tp301
Rp302
(dp303
g26
g32
sg9
g10
sg42
g45
sg49
g50
sg51
F1000000000000000.0
sg52
F1000000000000000.0
sg53
g0
(g1
g2
(lp304
I01
aI01
aI01
aI01
aI01
atp305
Rp306
(dp307
g58
S'fit_mask_items'
p308
sg60
g53
sbsg61
g64
sg68
g69
sg70
g71
sg72
F-1000000000000000.0
sg73
F-1000000000000000.0
sg74
I00
sg75
I00
sbsg76
I01
sg77
g78
sg79
I00
sg80
I01
sg81
VBragg no rf angle 3
p309
sg83
g84
sg85
I00
sg86
I00
sg87
I00
sg88
g290
sg90
g84
sg92
I00
sg93
I01
sg94
S'Mean                   = 2950.181818\nStd. deviation         =   7.813952\nStd. error of the mean =   1.705144\nPk-Pk                  =  26.000000\n\nMean                   =  46.293939\nStd. deviation         =  17.812102\nStd. error of the mean =   3.886919\nPk-Pk                  =  78.133333\n\n'
p310
sg96
g84
sg97
Fnan
sg98
g233
sg100
g234
sg102
g84
sg103
F1.0
sg104
g292
sg106
F0.0
sg60
VA3
p311
sg108
S'#\n# Column index\n#  0  SEQ:shot\n#  1  SEQ:shot\n#  2  BRAGG:sum_net_6\n\n2937\t\t2937.0000\t\t37.2000\t\t\n2938\t\t2938.0000\t\t68.9333\t\t\n2939\t\t2939.0000\t\t33.4000\t\t\n2940\t\t2940.0000\t\t33.0667\t\t\n2941\t\t2941.0000\t\t66.4000\t\t\n2945\t\t2945.0000\t\t66.0667\t\t\n2946\t\t2946.0000\t\t38.0000\t\t\n2947\t\t2947.0000\t\t51.6000\t\t\n2948\t\t2948.0000\t\t43.4667\t\t\n2949\t\t2949.0000\t\t50.8000\t\t\n2950\t\t2950.0000\t\t41.6667\t\t\n2951\t\t2951.0000\t\t69.2000\t\t\n2952\t\t2952.0000\t\t74.7333\t\t\n2953\t\t2953.0000\t\t-3.4000\t\t\n2954\t\t2954.0000\t\t40.7333\t\t\n2955\t\t2955.0000\t\t34.2667\t\t\n2956\t\t2956.0000\t\t47.0667\t\t\n2957\t\t2957.0000\t\t57.6000\t\t\n2960\t\t2960.0000\t\t58.0000\t\t\n2961\t\t2961.0000\t\t54.9333\t\t\n2962\t\t2962.0000\t\t33.1333\t\t\n2963\t\t2963.0000\t\t21.6000\t\t'
p312
sg110
g295
sg112
I01
sg113
V2937:2941,2945:2957,2960:2963
p313
sg115
V-25 mrad
p314
sg117
F10.0
sg118
I01
sg119
Fnan
sg120
g121
sg122
I00
sbag4
(g14
tp315
Rp316
(dp317
g9
g10
sg18
V#009999
p318
sg20
F90.0
sg21
g4
(g22
tp319
Rp320
(dp321
g26
g32
sg9
g10
sg42
g45
sg49
g50
sg51
F1000000000000000.0
sg52
F1000000000000000.0
sg53
g0
(g1
g2
(lp322
I01
aI01
aI01
aI01
aI01
atp323
Rp324
(dp325
g58
S'fit_mask_items'
p326
sg60
g53
sbsg61
g64
sg68
g69
sg70
g71
sg72
F-1000000000000000.0
sg73
F-1000000000000000.0
sg74
I00
sg75
I00
sbsg76
I01
sg77
g78
sg79
I00
sg80
I01
sg81
VBragg no rf angle 3. On Saturday
p327
sg83
g84
sg85
I00
sg86
I00
sg87
I00
sg88
V/lab/data/app3/2013/1303/130302/
p328
sg90
g84
sg92
I00
sg93
I01
sg94
S'Mean                   = 3540.500000\nStd. deviation         =   3.452053\nStd. error of the mean =   1.040833\nPk-Pk                  =  11.000000\n\nMean                   =  33.627778\nStd. deviation         =  20.407941\nStd. error of the mean =   6.153226\nPk-Pk                  =  76.066667\n\n'
p329
sg96
g84
sg97
Fnan
sg98
g233
sg100
VSEQ:shot
p330
sg102
g84
sg103
F1.0
sg104
g318
sg106
F0.0
sg60
VA3
p331
sg108
S'#\n# Column index\n#  0  SEQ:shot\n#  1  SEQ:shot\n#  2  BRAGG:sum_net_6\n\n3535\t\t3535.0000\t\t13.8000\t\t\n3536\t\t3536.0000\t\t11.3333\t\t\n3537\t\t3537.0000\t\t79.6000\t\t\n3538\t\t3538.0000\t\t16.1333\t\t\n3539\t\t3539.0000\t\t28.6000\t\t\n3540\t\t3540.0000\t\t41.9333\t\t\n3541\t\t3541.0000\t\t52.1333\t\t\n3542\t\t3542.0000\t\t52.0000\t\t\n3543\t\t3543.0000\t\t3.5333\t\t\n3544\t\t3544.0000\t\t34.3333\t\t\n3545\t\t3545.0000\t\t36.4000\t\t\n3546\t\t3546.0000\t\t33.7333\t\t'
p332
sg110
V^
p333
sg112
I01
sg113
V3535:3546
p334
sg115
V-25 mrad
p335
sg117
F10.0
sg118
I01
sg119
Fnan
sg120
g121
sg122
I00
sbag4
(g14
tp336
Rp337
(dp338
g9
g10
sg18
V#FFCC00
p339
sg20
F90.0
sg21
g4
(g22
tp340
Rp341
(dp342
g26
g32
sg9
g10
sg42
g45
sg49
g50
sg51
F1000000000000000.0
sg52
F1000000000000000.0
sg53
g0
(g1
g2
(lp343
I01
aI01
aI01
aI01
aI01
atp344
Rp345
(dp346
g58
S'fit_mask_items'
p347
sg60
g53
sbsg61
g64
sg68
g69
sg70
g71
sg72
F-1000000000000000.0
sg73
F-1000000000000000.0
sg74
I00
sg75
I00
sbsg76
I01
sg77
g78
sg79
I00
sg80
I01
sg81
VOn Saturday, should be ~ -12.5mrad
p348
sg83
g84
sg85
I00
sg86
I00
sg87
I00
sg88
g328
sg90
g84
sg92
I00
sg93
I01
sg94
S'Mean                   = 3605.000000\nStd. deviation         =   6.055301\nStd. error of the mean =   1.354006\nPk-Pk                  =  20.000000\n\nMean                   =  47.006349\nStd. deviation         =  13.850004\nStd. error of the mean =   3.096955\nPk-Pk                  =  51.333333\n\n'
p349
sg96
g84
sg97
Fnan
sg98
g233
sg100
g330
sg102
g84
sg103
F1.0
sg104
g339
sg106
F0.0
sg60
VA4
p350
sg108
S'#\n# Column index\n#  0  SEQ:shot\n#  1  SEQ:shot\n#  2  BRAGG:sum_net_6\n\n3595\t\t3595.0000\t\t46.8667\t\t\n3596\t\t3596.0000\t\t26.8667\t\t\n3597\t\t3597.0000\t\t56.7333\t\t\n3598\t\t3598.0000\t\t48.4000\t\t\n3599\t\t3599.0000\t\t46.3333\t\t\n3600\t\t3600.0000\t\t68.7333\t\t\n3601\t\t3601.0000\t\t43.4000\t\t\n3602\t\t3602.0000\t\t43.0000\t\t\n3603\t\t3603.0000\t\t17.4000\t\t\n3604\t\t3604.0000\t\t46.8667\t\t\n3605\t\t3605.0000\t\t26.4667\t\t\n3606\t\t3606.0000\t\t45.4667\t\t\n3607\t\t3607.0000\t\t40.8000\t\t\n3608\t\t3608.0000\t\t63.2667\t\t\n3609\t\t3609.0000\t\t62.6667\t\t\n3610\t\t3610.0000\t\t64.1333\t\t\n3611\t\t3611.0000\t\t29.8000\t\t\n3612\t\t3612.0000\t\t53.1333\t\t\n3613\t\t3613.0000\t\t63.9333\t\t\n3614\t\t3614.0000\t\t35.0000\t\t\n3615\t\t3615.0000\t\t57.8667\t\t'
p351
sg110
g333
sg112
I01
sg113
V3595:3615
p352
sg115
V-12.5 mrad
p353
sg117
F10.0
sg118
I01
sg119
Fnan
sg120
g121
sg122
I00
sbatp354
Rp355
(dp356
g58
S'datasets_items'
p357
sg60
g12
sbsg80
I01
sg81
VBraggData
p358
sS'gridR'
p359
I1
sS'selected'
p360
g163
sS'grids'
p361
g0
(g1
g2
(lp362
I1
aI2
aI3
aI4
aI5
aI6
aI7
aI8
aI9
aI10
aI11
aI12
aI13
atp363
Rp364
(dp365
g58
S'grids_items'
p366
sg60
g361
sbsS'gridC'
p367
I10
sg60
VBraggData
p368
sbag4
(g5
tp369
Rp370
(dp371
g9
g10
sg11
I3
sg12
g0
(g1
g2
(lp372
g4
(g14
tp373
Rp374
(dp375
g9
g10
sg18
V#009999
p376
sg20
F90.0
sg21
g4
(g22
tp377
Rp378
(dp379
g26
g32
sg9
g10
sg42
g45
sg49
g50
sg51
F1000000000000000.0
sg52
F1000000000000000.0
sg53
g0
(g1
g2
(lp380
I01
aI01
aI01
aI01
aI01
atp381
Rp382
(dp383
g58
S'fit_mask_items'
p384
sg60
g53
sbsg61
g64
sg68
g69
sg70
g71
sg72
F-1000000000000000.0
sg73
F-1000000000000000.0
sg74
I00
sg75
I00
sbsg76
I01
sg77
g78
sg79
I00
sg80
I01
sg81
VBragg no rf angle 3
p385
sg83
g84
sg85
I00
sg86
I00
sg87
I00
sg88
V/lab/data/app3/2013/1303/130302/
p386
sg90
g84
sg92
I00
sg93
I01
sg94
S'Mean                   = 3540.500000\nStd. deviation         =   3.452053\nStd. error of the mean =   1.040833\nPk-Pk                  =  11.000000\n\nMean                   =  33.627778\nStd. deviation         =  20.407941\nStd. error of the mean =   6.153226\nPk-Pk                  =  76.066667\n\n'
p387
sg96
g84
sg97
Fnan
sg98
VBRAGG:sum_net_6
p388
sg100
VSEQ:shot
p389
sg102
g84
sg103
F1.0
sg104
g376
sg106
F-10.0
sg60
Vsum6-A3
p390
sg108
S'#\n# Column index\n#  0  SEQ:shot\n#  1  SEQ:shot\n#  2  BRAGG:sum_net_6\n\n3535\t\t3535.0000\t\t13.8000\t\t\n3536\t\t3536.0000\t\t11.3333\t\t\n3537\t\t3537.0000\t\t79.6000\t\t\n3538\t\t3538.0000\t\t16.1333\t\t\n3539\t\t3539.0000\t\t28.6000\t\t\n3540\t\t3540.0000\t\t41.9333\t\t\n3541\t\t3541.0000\t\t52.1333\t\t\n3542\t\t3542.0000\t\t52.0000\t\t\n3543\t\t3543.0000\t\t3.5333\t\t\n3544\t\t3544.0000\t\t34.3333\t\t\n3545\t\t3545.0000\t\t36.4000\t\t\n3546\t\t3546.0000\t\t33.7333\t\t'
p391
sg110
g111
sg112
I01
sg113
V3535:3546
p392
sg115
g84
sg117
F10.0
sg118
I01
sg119
Fnan
sg120
g121
sg122
I00
sbag4
(g14
tp393
Rp394
(dp395
g9
g10
sg18
V#FFCC00
p396
sg20
F90.0
sg21
g4
(g22
tp397
Rp398
(dp399
g26
g27
(g28
(I0
tp400
g30
tp401
Rp402
(I1
(I5
I1
tp403
g34
(S'f8'
p404
I0
I1
tp405
Rp406
(I3
S'<'
p407
NNNI-1
I-1
I0
tp408
bI00
S'\xbf\x08\xfb\x0f\xdd\x7f\xe2Awo\xdd=\xef\xe15\xc1*K\xeb\xc1\xbcL\xc2@\x97\x8f\xd0K\x9e\x9e\xf5\xc0\x00\x00\x00\x00\x00\x00\x00\x00'
p409
tp410
bsg9
g10
sg42
g27
(g28
(I0
tp411
g30
tp412
Rp413
(I1
(I5
I1
tp414
g406
I00
S'\x1b&q\x1d\x16\x0e%B.^\xccjV\x7fMAigU\x96\xd8a\xf8@\xe8\xd3;+ ;"A\x00\x00\x00\x00\x00\x00\x00\x00'
p415
tp416
bsg49
g50
sg51
F1000000000000000.0
sg52
F1000000000000000.0
sg53
g0
(g1
g2
(lp417
I01
aI01
aI01
aI01
aI01
atp418
Rp419
(dp420
g58
S'fit_mask_items'
p421
sg60
g53
sbsg61
g27
(g28
(I0
tp422
g30
tp423
Rp424
(I1
(I5
I1
tp425
g37
I00
S'\x00\x00\x00\x00`\xe36\xc1\x00\x00\x00\x00\x00p\x7f@\xf6(\\\x8f\xc2\xf5\x17@\x00\x00\x00\x00\x00\xdb\xfa@\x00\x00\x00\x00\x00\x00\x00\x00'
p426
tp427
bsg68
S' a[0]*( 1 / ( pi * a[2] * ( 1 + (( x - a[1] ) / a[2])**2 ) ) ) + a[3] )'
p428
sg70
S'Lorentzian'
p429
sg72
F-1000000000000000.0
sg73
F-1000000000000000.0
sg74
I00
sg75
I00
sbsg76
I01
sg77
g78
sg79
I00
sg80
I01
sg81
VBragg no rf angle 3
p430
sg83
g84
sg85
I00
sg86
I00
sg87
I00
sg88
V/lab/data/app3/2013/1303/130302/
p431
sg90
g84
sg92
I00
sg93
I00
sg94
S'Mean                   = 3606.000000\nStd. deviation         =   6.633250\nStd. error of the mean =   1.414214\nPk-Pk                  =  22.000000\n\nMean                   =  47.428986\nStd. deviation         =  13.362328\nStd. error of the mean =   2.848858\nPk-Pk                  =  51.333333\n\n'
p432
sg96
g84
sg97
Fnan
sg98
VBRAGG:sum_net_6
p433
sg100
VSEQ:shot
p434
sg102
g84
sg103
F1.0
sg104
V#FFCC00
p435
sg106
F-10.0
sg60
Vsum6-A4
p436
sg108
S'#\n# Column index\n#  0  SEQ:shot\n#  1  SEQ:shot\n#  2  BRAGG:sum_net_6\n\n3595\t\t3595.0000\t\t46.8667\t\t\n3596\t\t3596.0000\t\t26.8667\t\t\n3597\t\t3597.0000\t\t56.7333\t\t\n3598\t\t3598.0000\t\t48.4000\t\t\n3599\t\t3599.0000\t\t46.3333\t\t\n3600\t\t3600.0000\t\t68.7333\t\t\n3601\t\t3601.0000\t\t43.4000\t\t\n3602\t\t3602.0000\t\t43.0000\t\t\n3603\t\t3603.0000\t\t17.4000\t\t\n3604\t\t3604.0000\t\t46.8667\t\t\n3605\t\t3605.0000\t\t26.4667\t\t\n3606\t\t3606.0000\t\t45.4667\t\t\n3607\t\t3607.0000\t\t40.8000\t\t\n3608\t\t3608.0000\t\t63.2667\t\t\n3609\t\t3609.0000\t\t62.6667\t\t\n3610\t\t3610.0000\t\t64.1333\t\t\n3611\t\t3611.0000\t\t29.8000\t\t\n3612\t\t3612.0000\t\t53.1333\t\t\n3613\t\t3613.0000\t\t63.9333\t\t\n3614\t\t3614.0000\t\t35.0000\t\t\n3615\t\t3615.0000\t\t57.8667\t\t\n3616\t\t3616.0000\t\t47.6667\t\t\n3617\t\t3617.0000\t\t56.0667\t\t'
p437
sg110
g111
sg112
I01
sg113
V3595:3617
p438
sg115
g84
sg117
F10.0
sg118
I01
sg119
Fnan
sg120
g121
sg122
I00
sbag4
(g14
tp439
Rp440
(dp441
g9
g10
sg18
V#009999
p442
sg20
F90.0
sg21
g4
(g22
tp443
Rp444
(dp445
g26
g32
sg9
g10
sg42
g45
sg49
g50
sg51
F1000000000000000.0
sg52
F1000000000000000.0
sg53
g0
(g1
g2
(lp446
I01
aI01
aI01
aI01
aI01
atp447
Rp448
(dp449
g58
S'fit_mask_items'
p450
sg60
g53
sbsg61
g64
sg68
g69
sg70
g71
sg72
F-1000000000000000.0
sg73
F-1000000000000000.0
sg74
I00
sg75
I00
sbsg76
I01
sg77
g78
sg79
I00
sg80
I01
sg81
VBragg no rf angle 3 no lattice
p451
sg83
g84
sg85
I00
sg86
I00
sg87
I00
sg88
V/lab/data/app3/2013/1303/130302/
p452
sg90
g84
sg92
I00
sg93
I01
sg94
S'Mean                   = 3540.500000\nStd. deviation         =   3.452053\nStd. error of the mean =   1.040833\nPk-Pk                  =  11.000000\n\nMean                   =  33.652649\nStd. deviation         =  21.429763\nStd. error of the mean =   6.461317\nPk-Pk                  =  85.664411\n\n'
p453
sg96
g84
sg97
Fnan
sg98
VBRAGG:sum_net_6 / CPP:nfit *1e5
p454
sg100
g389
sg102
g84
sg103
F1.0
sg104
g442
sg106
F-10.0
sg60
Vpeak-A3
p455
sg108
S'#\n# Column index\n#  0  SEQ:shot\n#  1  SEQ:shot\n#  2  BRAGG:sum_net_6 / CPP:nfit *1e5\n\n3535\t\t3535.0000\t\t15.4926\t\t\n3536\t\t3536.0000\t\t11.0497\t\t\n3537\t\t3537.0000\t\t89.1070\t\t\n3538\t\t3538.0000\t\t16.4164\t\t\n3539\t\t3539.0000\t\t30.8499\t\t\n3540\t\t3540.0000\t\t40.0900\t\t\n3541\t\t3541.0000\t\t47.0523\t\t\n3542\t\t3542.0000\t\t45.9926\t\t\n3543\t\t3543.0000\t\t3.4426\t\t\n3544\t\t3544.0000\t\t35.0052\t\t\n3545\t\t3545.0000\t\t34.3474\t\t\n3546\t\t3546.0000\t\t34.9860\t\t'
p456
sg110
V^
p457
sg112
I01
sg113
V3535:3546
p458
sg115
g84
sg117
F10.0
sg118
I01
sg119
Fnan
sg120
g121
sg122
I00
sbag4
(g14
tp459
Rp460
(dp461
g9
g10
sg18
V#FFCC00
p462
sg20
F90.0
sg21
g4
(g22
tp463
Rp464
(dp465
g26
g402
sg9
g10
sg42
g413
sg49
g50
sg51
F1000000000000000.0
sg52
F1000000000000000.0
sg53
g0
(g1
g2
(lp466
I01
aI01
aI01
aI01
aI01
atp467
Rp468
(dp469
g58
S'fit_mask_items'
p470
sg60
g53
sbsg61
g424
sg68
g428
sg70
g429
sg72
F-1000000000000000.0
sg73
F-1000000000000000.0
sg74
I00
sg75
I00
sbsg76
I01
sg77
g78
sg79
I00
sg80
I01
sg81
VBragg no rf angle 3 no lattice
p471
sg83
g84
sg85
I00
sg86
I00
sg87
I00
sg88
V/lab/data/app3/2013/1303/130302/
p472
sg90
g84
sg92
I00
sg93
I00
sg94
S'Mean                   = 3606.000000\nStd. deviation         =   6.633250\nStd. error of the mean =   1.414214\nPk-Pk                  =  22.000000\n\nMean                   =  36.774870\nStd. deviation         =  10.230325\nStd. error of the mean =   2.181113\nPk-Pk                  =  38.780804\n\n'
p473
sg96
g84
sg97
Fnan
sg98
VBRAGG:sum_net_6 / CPP:nfit *1e5
p474
sg100
g434
sg102
g84
sg103
F1.0
sg104
V#FFCC00
p475
sg106
F-10.0
sg60
Vpeak-A4
p476
sg108
S'#\n# Column index\n#  0  SEQ:shot\n#  1  SEQ:shot\n#  2  BRAGG:sum_net_6 / CPP:nfit *1e5\n\n3595\t\t3595.0000\t\t36.5365\t\t\n3596\t\t3596.0000\t\t20.0511\t\t\n3597\t\t3597.0000\t\t47.2671\t\t\n3598\t\t3598.0000\t\t34.6410\t\t\n3599\t\t3599.0000\t\t35.3175\t\t\n3600\t\t3600.0000\t\t50.1989\t\t\n3601\t\t3601.0000\t\t33.7065\t\t\n3602\t\t3602.0000\t\t33.4720\t\t\n3603\t\t3603.0000\t\t15.8220\t\t\n3604\t\t3604.0000\t\t39.7283\t\t\n3605\t\t3605.0000\t\t22.0720\t\t\n3606\t\t3606.0000\t\t37.5628\t\t\n3607\t\t3607.0000\t\t28.8322\t\t\n3608\t\t3608.0000\t\t49.4011\t\t\n3609\t\t3609.0000\t\t46.9201\t\t\n3610\t\t3610.0000\t\t54.6028\t\t\n3611\t\t3611.0000\t\t22.6681\t\t\n3612\t\t3612.0000\t\t43.0844\t\t\n3613\t\t3613.0000\t\t45.1304\t\t\n3614\t\t3614.0000\t\t25.7099\t\t\n3615\t\t3615.0000\t\t43.4954\t\t\n3616\t\t3616.0000\t\t37.8281\t\t\n3617\t\t3617.0000\t\t41.7737\t\t'
p477
sg110
V^
p478
sg112
I01
sg113
V3595:3617
p479
sg115
g84
sg117
F10.0
sg118
I01
sg119
Fnan
sg120
g121
sg122
I00
sbatp480
Rp481
(dp482
g58
S'datasets_items'
p483
sg60
g12
sbsg80
I01
sg81
VAngle3->4
p484
sg359
I1
sg360
g460
sg361
g0
(g1
g2
(lp485
I1
aI2
aI3
aI4
atp486
Rp487
(dp488
g58
S'grids_items'
p489
sg60
g361
sbsg367
I4
sg60
VAngle3->4
p490
sbag4
(g5
tp491
Rp492
(dp493
g9
g10
sg11
I0
sg12
g0
(g1
g2
(lp494
g4
(g14
tp495
Rp496
(dp497
g9
g10
sg18
g126
sg20
Fnan
sg21
g4
(g22
tp498
Rp499
(dp500
g26
g32
sg9
g10
sg42
g45
sg49
g50
sg51
F1000000000000000.0
sg52
F1000000000000000.0
sg53
g0
(g1
g2
(lp501
I01
aI01
aI01
aI01
aI01
atp502
Rp503
(dp504
g58
S'fit_mask_items'
p505
sg60
g53
sbsg61
g64
sg68
g69
sg70
g71
sg72
F-1000000000000000.0
sg73
F-1000000000000000.0
sg74
I00
sg75
I00
sbsg76
I01
sg77
g78
sg79
I00
sg80
I01
sg81
VBragg no rf angle 3
p506
sg83
g84
sg85
I00
sg86
I00
sg87
I00
sg88
V/lab/data/app3/2013/1303/130302/
p507
sg90
g84
sg92
I00
sg93
I01
sg94
S'Mean                   = 3540.500000\nStd. deviation         =   3.452053\nStd. error of the mean =   1.040833\nPk-Pk                  =  11.000000\n\nMean                   = 100293.731667\nStd. deviation         = 7429.843483\nStd. error of the mean = 2240.182099\nPk-Pk                  = 23986.850000\n\n'
p508
sg96
g84
sg97
Fnan
sg98
VCPP:nfit
p509
sg100
g389
sg102
g84
sg103
F1.0
sg104
g126
sg106
Fnan
sg60
VAndor-3.0
p510
sg108
S'#\n# Column index\n#  0  SEQ:shot\n#  1  SEQ:shot\n#  2  CPP:nfit\n\n3535\t\t3535.0000\t\t89074.7500\t\t\n3536\t\t3536.0000\t\t1.026e+05\t\t\n3537\t\t3537.0000\t\t89330.7700\t\t\n3538\t\t3538.0000\t\t98275.8100\t\t\n3539\t\t3539.0000\t\t92706.8500\t\t\n3540\t\t3540.0000\t\t1.046e+05\t\t\n3541\t\t3541.0000\t\t1.108e+05\t\t\n3542\t\t3542.0000\t\t1.131e+05\t\t\n3543\t\t3543.0000\t\t1.026e+05\t\t\n3544\t\t3544.0000\t\t98080.5500\t\t\n3545\t\t3545.0000\t\t1.060e+05\t\t\n3546\t\t3546.0000\t\t96419.4500\t\t'
p511
sg110
g111
sg112
I01
sg113
V3535:3546
p512
sg115
g84
sg117
F10.0
sg118
I01
sg119
Fnan
sg120
g121
sg122
I00
sbag4
(g14
tp513
Rp514
(dp515
g9
g10
sg18
Vred
p516
sg20
Fnan
sg21
g4
(g22
tp517
Rp518
(dp519
g26
g32
sg9
g10
sg42
g45
sg49
g50
sg51
F1000000000000000.0
sg52
F1000000000000000.0
sg53
g0
(g1
g2
(lp520
I01
aI01
aI01
aI01
aI01
atp521
Rp522
(dp523
g58
S'fit_mask_items'
p524
sg60
g53
sbsg61
g64
sg68
g69
sg70
g71
sg72
F-1000000000000000.0
sg73
F-1000000000000000.0
sg74
I00
sg75
I00
sbsg76
I01
sg77
g78
sg79
I00
sg80
I01
sg81
VBragg no lattice angle 3
p525
sg83
g84
sg85
I00
sg86
I00
sg87
I00
sg88
V/lab/data/app3/2013/1303/130302/
p526
sg90
g84
sg92
I01
sg93
I01
sg94
S'Mean                   = 3605.000000\nStd. deviation         =   6.055301\nStd. error of the mean =   1.354006\nPk-Pk                  =  20.000000\n\nMean                   = 128688.409524\nStd. deviation         = 8433.714730\nStd. error of the mean = 1885.835944\nPk-Pk                  = 31690.100000\n\n'
p527
sg96
g84
sg97
Fnan
sg98
g509
sg100
g389
sg102
g84
sg103
F1.0
sg104
g516
sg106
Fnan
sg60
VAndor-4.0
p528
sg108
S'#\n# Column index\n#  0  SEQ:shot\n#  1  SEQ:shot\n#  2  CPP:nfit\n\n3595\t\t3595.0000\t\t1.283e+05\t\t\n3596\t\t3596.0000\t\t1.340e+05\t\t\n3597\t\t3597.0000\t\t1.200e+05\t\t\n3598\t\t3598.0000\t\t1.397e+05\t\t\n3599\t\t3599.0000\t\t1.312e+05\t\t\n3600\t\t3600.0000\t\t1.369e+05\t\t\n3601\t\t3601.0000\t\t1.288e+05\t\t\n3602\t\t3602.0000\t\t1.285e+05\t\t\n3603\t\t3603.0000\t\t1.100e+05\t\t\n3604\t\t3604.0000\t\t1.180e+05\t\t\n3605\t\t3605.0000\t\t1.199e+05\t\t\n3606\t\t3606.0000\t\t1.210e+05\t\t\n3607\t\t3607.0000\t\t1.415e+05\t\t\n3608\t\t3608.0000\t\t1.281e+05\t\t\n3609\t\t3609.0000\t\t1.336e+05\t\t\n3610\t\t3610.0000\t\t1.175e+05\t\t\n3611\t\t3611.0000\t\t1.315e+05\t\t\n3612\t\t3612.0000\t\t1.233e+05\t\t\n3613\t\t3613.0000\t\t1.417e+05\t\t\n3614\t\t3614.0000\t\t1.361e+05\t\t\n3615\t\t3615.0000\t\t1.330e+05\t\t'
p529
sg110
Vs
p530
sg112
I01
sg113
V3595:3615
p531
sg115
g84
sg117
F10.0
sg118
I01
sg119
Fnan
sg120
g121
sg122
I00
sbatp532
Rp533
(dp534
g58
S'datasets_items'
p535
sg60
g12
sbsg80
I01
sg81
VBragg-A3-ANDOR
p536
sg359
I1
sg360
g496
sg361
g0
(g1
g2
(lp537
I1
aI2
aI3
aI4
atp538
Rp539
(dp540
g58
S'grids_items'
p541
sg60
g361
sbsg367
I1
sg60
VBragg-A3-ANDOR
p542
sbag4
(g5
tp543
Rp544
(dp545
g9
g10
sg11
I6
sg12
g0
(g1
g2
(lp546
g4
(g14
tp547
Rp548
(dp549
g9
g10
sg18
g126
sg20
Fnan
sg21
g4
(g22
tp550
Rp551
(dp552
g26
g32
sg9
g10
sg42
g45
sg49
g50
sg51
F1000000000000000.0
sg52
F1000000000000000.0
sg53
g0
(g1
g2
(lp553
I01
aI01
aI01
aI01
aI01
atp554
Rp555
(dp556
g58
S'fit_mask_items'
p557
sg60
g53
sbsg61
g64
sg68
g69
sg70
g71
sg72
F-1000000000000000.0
sg73
F-1000000000000000.0
sg74
I00
sg75
I00
sbsg76
I01
sg77
g78
sg79
I00
sg80
I00
sg81
Vvary uvdet image ODT
p558
sg83
g84
sg85
I00
sg86
I00
sg87
I00
sg88
V/lab/data/app3/2013/1303/130304/
p559
sg90
g84
sg92
I00
sg93
I01
sg94
S'Mean                   =  -2.456757\nStd. deviation         =   0.514409\nStd. error of the mean =   0.085735\nPk-Pk                  =   2.100000\n\nMean                   = 11188682.443243\nStd. deviation         = 3764460.348705\nStd. error of the mean = 627410.058117\nPk-Pk                  = 14499115.600000\n\n'
p560
sg96
g84
sg97
Fnan
sg98
g509
sg100
VUV:uvdet
p561
sg102
g84
sg103
F1.0
sg104
g126
sg106
Fnan
sg60
Vuvdet
p562
sg108
S'#\n# Column index\n#  0  SEQ:shot\n#  1  UV:uvdet\n#  2  CPP:nfit\n\n3656\t\t-3.5000\t\t1.080e+07\t\t\n3657\t\t-3.4000\t\t1.138e+07\t\t\n3658\t\t-3.3000\t\t1.320e+07\t\t\n3659\t\t-3.2000\t\t1.353e+07\t\t\n3660\t\t-3.1000\t\t1.410e+07\t\t\n3661\t\t-3.0000\t\t1.331e+07\t\t\n3662\t\t-2.9000\t\t1.478e+07\t\t\n3663\t\t-2.8000\t\t1.538e+07\t\t\n3664\t\t-2.7000\t\t1.412e+07\t\t\n3665\t\t-2.6000\t\t1.315e+07\t\t\n3666\t\t-2.5000\t\t8.610e+06\t\t\n3667\t\t-2.4000\t\t1.045e+07\t\t\n3668\t\t-2.3000\t\t9.049e+06\t\t\n3669\t\t-2.2000\t\t8.100e+06\t\t\n3670\t\t-2.1000\t\t1.152e+07\t\t\n3671\t\t-2.0000\t\t6.642e+06\t\t\n3672\t\t-1.9000\t\t8.352e+06\t\t\n3673\t\t-1.8000\t\t3.075e+06\t\t\n3674\t\t-1.7000\t\t7.632e+06\t\t\n3675\t\t-1.6000\t\t5.196e+06\t\t\n3676\t\t-1.5000\t\t1.871e+06\t\t\n3677\t\t-1.4000\t\t8.857e+05\t\t\n3678\t\t-2.2000\t\t1.329e+07\t\t\n3679\t\t-2.2000\t\t8.553e+06\t\t\n3680\t\t-2.2000\t\t1.274e+07\t\t\n3681\t\t-2.2000\t\t1.236e+07\t\t\n3682\t\t-2.2000\t\t1.408e+07\t\t\n3683\t\t-2.2000\t\t1.318e+07\t\t\n3684\t\t-2.2000\t\t1.205e+07\t\t\n3685\t\t-2.7000\t\t1.538e+07\t\t\n3686\t\t-2.7000\t\t1.351e+07\t\t\n3687\t\t-2.7000\t\t1.355e+07\t\t\n3688\t\t-2.7000\t\t1.482e+07\t\t\n3689\t\t-2.7000\t\t1.227e+07\t\t\n3690\t\t-2.7000\t\t1.400e+07\t\t\n3691\t\t-2.7000\t\t1.453e+07\t\t\n3692\t\t-2.7000\t\t1.449e+07\t\t\n3693\t\t'
p563
sg110
g111
sg112
I00
sg113
V3656:3693
p564
sg115
g84
sg117
F10.0
sg118
I01
sg119
Fnan
sg120
g121
sg122
I00
sbag4
(g14
tp565
Rp566
(dp567
g9
g10
sg18
g126
sg20
Fnan
sg21
g4
(g22
tp568
Rp569
(dp570
g26
g27
(g28
(I0
tp571
g30
tp572
Rp573
(I1
(I5
I1
tp574
g34
(S'f8'
p575
I0
I1
tp576
Rp577
(I3
S'<'
p578
NNNI-1
I-1
I0
tp579
bI00
S'\x92\x14\x80\xe4\x16w\x17B\xa6\x1d\x03\xe2\x02\x00\xe2?y\xe51#(\xae#@x\x81\xe4G\xcd*p\xc1\x00\x00\x00\x00\x00\x00\x00\x00'
p580
tp581
bsg9
g10
sg42
g27
(g28
(I0
tp582
g30
tp583
Rp584
(I1
(I5
I1
tp585
g577
I00
S'\xb9l\t\xdeyW\xe2A\xf5f\xfc\xbe<\xbf\xd7?\xb3\x8d[Vj\x88\xea?\xe5\xe7\xaaU\xee5yA\x00\x00\x00\x00\x00\x00\x00\x00'
p586
tp587
bsg49
g50
sg51
F1000000000000000.0
sg52
F1000000000000000.0
sg53
g0
(g1
g2
(lp588
I01
aI01
aI01
aI01
aI01
atp589
Rp590
(dp591
g58
S'fit_mask_items'
p592
sg60
g53
sbsg61
g27
(g28
(I0
tp593
g30
tp594
Rp595
(I1
(I5
I1
tp596
g37
I00
S'\x00\x00\x00 _\xa0\x02B\x9a\x99\x99\x99\x99\x99\xb9?\x9a\x99\x99\x99\x99\x99\x17@\x00\x00\x00\x00\x00\x00\x00\x00\x00\x00\x00\x00\x00\x00\x00\x00'
p597
tp598
bsg68
g428
sg70
S'Lorentzian'
p599
sg72
F-1000000000000000.0
sg73
F-1000000000000000.0
sg74
I01
sg75
I01
sbsg76
I01
sg77
g78
sg79
I00
sg80
I00
sg81
Vresonance of red lasers
p600
sg83
g84
sg85
I00
sg86
I00
sg87
I00
sg88
V/lab/data/app3/2013/1302/130228/
p601
sg90
g84
sg92
I00
sg93
I01
sg94
S'Mean                   = -12.500000\nStd. deviation         =  11.456439\nStd. error of the mean =   4.330127\nPk-Pk                  =  35.000000\n\nMean                   = 364429245.437500\nStd. deviation         = 268082727.903098\nStd. error of the mean = 101325746.974771\nPk-Pk                  = 711540211.700000\n\n'
p602
sg96
g84
sg97
Fnan
sg98
VANALYSIS:num
p603
sg100
VBASLER:imgdettrap
p604
sg102
g84
sg103
F1.0
sg104
g126
sg106
Fnan
sg60
VredRes
p605
sg108
S'#\n# Column index\n#  0  SEQ:shot\n#  1  BASLER:imgdettrap\n#  2  ANALYSIS:num\n\n3068\t\t-30.0000\t\t6.728e+07\t\t\n3069\t\t-25.0000\t\t9.321e+07\t\t\n3070\t\t-20.0000\t\t1.340e+08\t\t\n3071\t\t-15.0000\t\t2.009e+08\t\t\n3072\t\t-10.0000\t\t3.460e+08\t\t\n3073\t\t-5.0000\t\t6.273e+08\t\t\n3074\t\t0.0000\t\t7.788e+08\t\t\n3075\t\t5.0000\t\t6.680e+08\t\t'
p606
sg110
g111
sg112
I00
sg113
V3068:3080
p607
sg115
g84
sg117
F10.0
sg118
I01
sg119
Fnan
sg120
g121
sg122
I00
sbag4
(g14
tp608
Rp609
(dp610
g9
g10
sg18
g126
sg20
Fnan
sg21
g4
(g22
tp611
Rp612
(dp613
g26
g27
(g28
(I0
tp614
g30
tp615
Rp616
(I1
(I5
I1
tp617
g577
I00
S'\x8c\xd8$\x12\xd3\xb5aB\x07\x0c\xf4\xc3S\x84\xa3@.\xa8@\x9b\xb2\xb0p\xc0\x9e\x93\xba\xba!\x08PA\x00\x00\x00\x00\x00\x00\x00\x00'
p618
tp619
bsg9
g10
sg42
g27
(g28
(I0
tp620
g30
tp621
Rp622
(I1
(I5
I1
tp623
g577
I00
S'\x08J\xadn\xa4\x05wB\xde_\xa6\xc3\xf1\x02\xbe@\xf1/\xc4\xfc\x86\xd1\x92@k:\x9d\xeb\x1f\xf2nA\x00\x00\x00\x00\x00\x00\x00\x00'
p624
tp625
bsg49
g50
sg51
F1000000000000000.0
sg52
F1000000000000000.0
sg53
g0
(g1
g2
(lp626
I01
aI01
aI01
aI01
aI01
atp627
Rp628
(dp629
g58
S'fit_mask_items'
p630
sg60
g53
sbsg61
g595
sg68
g428
sg70
g599
sg72
F-1000000000000000.0
sg73
F-1000000000000000.0
sg74
I00
sg75
I00
sbsg76
I01
sg77
g78
sg79
I00
sg80
I00
sg81
Vnumber vs phcdet
p631
sg83
g84
sg85
I00
sg86
I00
sg87
I00
sg88
V/lab/data/app3/2013/1302/130228/
p632
sg90
g84
sg92
I00
sg93
I01
sg94
S'Mean                   = 685.000000\nStd. deviation         =  64.807407\nStd. error of the mean =  17.320508\nPk-Pk                  = 210.000000\n\nMean                   = 737914.226667\nStd. deviation         = 83029.203926\nStd. error of the mean = 22190.488156\nPk-Pk                  = 250183.100000\n\n'
p633
sg96
g84
sg97
Fnan
sg98
VCPP:nfit
p634
sg100
VANDOR:hfimg
p635
sg102
g84
sg103
F1.0
sg104
g126
sg106
Fnan
sg60
Vphcdet
p636
sg108
S'#\n# Column index\n#  0  SEQ:shot\n#  1  ANDOR:hfimg\n#  2  CPP:nfit\n\n3082\t\t580.0000\t\t8.538e+05\t\t\n3083\t\t595.0000\t\t8.365e+05\t\t\n3084\t\t610.0000\t\t6.301e+05\t\t\n3085\t\t625.0000\t\t6.793e+05\t\t\n3086\t\t640.0000\t\t6.036e+05\t\t\n3087\t\t655.0000\t\t7.668e+05\t\t\n3088\t\t670.0000\t\t7.084e+05\t\t\n3089\t\t685.0000\t\t7.985e+05\t\t\n3090\t\t700.0000\t\t8.004e+05\t\t\n3091\t\t715.0000\t\t7.119e+05\t\t\n3092\t\t730.0000\t\t6.134e+05\t\t\n3093\t\t745.0000\t\t8.387e+05\t\t\n3094\t\t760.0000\t\t7.529e+05\t\t\n3095\t\t775.0000\t\t6.621e+05\t\t\n3096\t\t790.0000\t\t8.125e+05\t\t'
p637
sg110
g111
sg112
I00
sg113
V3082:3096
p638
sg115
g84
sg117
F10.0
sg118
I01
sg119
Fnan
sg120
g121
sg122
I00
sbag4
(g14
tp639
Rp640
(dp641
g9
g10
sg18
g126
sg20
F100.0
sg21
g4
(g22
tp642
Rp643
(dp644
g26
g27
(g28
(I0
tp645
g30
tp646
Rp647
(I1
(I5
I1
tp648
g577
I00
S'Wd\xc4c\xacJ)@m\xbc*\x94\x12/>@\x8d\x99\x99\x99\x99\x99\x17@\x00\x00\x00\x00\x00\x00\x00\x00\x00\x00\x00\x00\x00\x00\x00\x00'
p649
tp650
bsg9
g10
sg42
g27
(g28
(I0
tp651
g30
tp652
Rp653
(I1
(I5
I1
tp654
g577
I00
S'\xb0\x01\x12\xa35\xf7\x10@\xd7\x05\x19\xa4\x02\xa1\x04@\x00\x00\x00\x00\x00\x00\x1a=\x00\x00\x00\x00\x00\x00\x00\x00\x00\x00\x00\x00\x00\x00\x00\x00'
p655
tp656
bsg49
g50
sg51
F1000000000000000.0
sg52
F1000000000000000.0
sg53
g0
(g1
g2
(lp657
I01
aI01
aI01
aI01
aI01
atp658
Rp659
(dp660
g58
S'fit_mask_items'
p661
sg60
g53
sbsg61
g595
sg68
S'(a[0]^2+2*kb/M*a[1]*x^2)^0.5'
p662
sg70
S'Temperature'
p663
sg72
F-1000000000000000.0
sg73
F-1000000000000000.0
sg74
I01
sg75
I01
sbsg76
I01
sg77
g78
sg79
I00
sg80
I00
sg81
Vtemp of atoms loaded to ODT
p664
sg83
g84
sg85
I00
sg86
I00
sg87
I00
sg88
V/lab/data/app3/2013/1303/130301/
p665
sg90
g84
sg92
I00
sg93
I01
sg94
S'Mean                   =   0.150000\nStd. deviation         =   0.102470\nStd. error of the mean =   0.045826\nPk-Pk                  =   0.300000\n\nMean                   =  47.420965\nStd. deviation         =  26.066057\nStd. error of the mean =  11.657095\nPk-Pk                  =  71.474710\n\n'
p666
sg96
g84
sg97
Fnan
sg98
VCPP:ax0w
p667
sg100
VODT:odttof
p668
sg102
g84
sg103
F1.0
sg104
g126
sg106
Fnan
sg60
V50ms-temp
p669
sg108
S'#\n# Column index\n#  0  SEQ:shot\n#  1  ODT:odttof\n#  2  CPP:ax0w\n\n3269\t\t0.0000\t\t12.1929\t\t\n3270\t\t0.0600\t\t21.8236\t\t\n3271\t\t0.1200\t\t38.0625\t\t\n3272\t\t0.1800\t\t54.3116\t\t\n3273\t\t0.2400\t\t74.4675\t\t\n3274\t\t0.3000\t\t83.6676\t\t'
p670
sg110
g111
sg112
I00
sg113
V3269:3274
p671
sg115
g84
sg117
F10.0
sg118
I01
sg119
Fnan
sg120
g121
sg122
I00
sbag4
(g14
tp672
Rp673
(dp674
g9
g10
sg18
VNone
p675
sg20
Fnan
sg21
g4
(g22
tp676
Rp677
(dp678
g26
g27
(g28
(I0
tp679
g30
tp680
Rp681
(I1
(I5
I1
tp682
g577
I00
S'\x00\xe0\x8e\xc2@H.@1\x91\xd0\x9d\xe0\x1b6@\x8d\x99\x99\x99\x99\x99\x17@\x00\x00\x00\x00\x00\x00\x00\x00\x00\x00\x00\x00\x00\x00\x00\x00'
p683
tp684
bsg9
g10
sg42
g27
(g28
(I0
tp685
g30
tp686
Rp687
(I1
(I5
I1
tp688
g577
I00
S'\xfdv\xe1\xe5R\x84\xf8?I\xe8\xa0D\xac\xea\xf0?\x00\x00\x00\x00\x00\x00\x1a=\x00\x00\x00\x00\x00\x00\x00\x00\x00\x00\x00\x00\x00\x00\x00\x00'
p689
tp690
bsg49
g50
sg51
F1000000000000000.0
sg52
F1000000000000000.0
sg53
g0
(g1
g2
(lp691
I01
aI01
aI01
aI01
aI01
atp692
Rp693
(dp694
g58
S'fit_mask_items'
p695
sg60
g53
sbsg61
g595
sg68
g662
sg70
g663
sg72
F-1000000000000000.0
sg73
F-1000000000000000.0
sg74
I00
sg75
I00
sbsg76
I01
sg77
g78
sg79
I00
sg80
I00
sg81
VN loaded to ODT
p696
sg83
g84
sg85
I00
sg86
I00
sg87
I00
sg88
V/lab/data/app3/2013/1303/130301/
p697
sg90
g84
sg92
I00
sg93
I00
sg94
S'Mean                   =   0.150000\nStd. deviation         =   0.102470\nStd. error of the mean =   0.045826\nPk-Pk                  =   0.300000\n\nMean                   = 7265123.500000\nStd. deviation         = 642919.472494\nStd. error of the mean = 287522.328911\nPk-Pk                  = 1851588.000000\n\n'
p698
sg96
g84
sg97
Fnan
sg98
VCPP:nfit
p699
sg100
g668
sg102
g84
sg103
F1.0
sg104
g126
sg106
Fnan
sg60
VN loaded 
p700
sg108
S'#\n# Column index\n#  0  SEQ:shot\n#  1  ODT:odttof\n#  2  CPP:nfit\n\n3269\t\t0.0000\t\t7.973e+06\t\t\n3270\t\t0.0600\t\t6.929e+06\t\t\n3271\t\t0.1200\t\t6.987e+06\t\t\n3272\t\t0.1800\t\t7.452e+06\t\t\n3273\t\t0.2400\t\t8.050e+06\t\t\n3274\t\t0.3000\t\t6.199e+06\t\t'
p701
sg110
Vs
p702
sg112
I00
sg113
V3269:3274
p703
sg115
g84
sg117
F10.0
sg118
I01
sg119
Fnan
sg120
g121
sg122
I01
sbag4
(g14
tp704
Rp705
(dp706
g9
g10
sg18
Vblack
p707
sg20
Fnan
sg21
g4
(g22
tp708
Rp709
(dp710
g26
g32
sg9
g10
sg42
g45
sg49
g50
sg51
F1000000000000000.0
sg52
F1000000000000000.0
sg53
g0
(g1
g2
(lp711
I01
aI01
aI01
aI01
aI01
atp712
Rp713
(dp714
g58
S'fit_mask_items'
p715
sg60
g53
sbsg61
g64
sg68
g69
sg70
g71
sg72
F-1000000000000000.0
sg73
F-1000000000000000.0
sg74
I00
sg75
I00
sbsg76
I01
sg77
g78
sg79
I00
sg80
I01
sg81
Vz2
p716
sg83
g84
sg85
I00
sg86
I00
sg87
I00
sg88
V/lab/data/app3/2013/1303/130304/
p717
sg90
g84
sg92
I00
sg93
I01
sg94
S'Mean                   = 548.095238\nStd. deviation         =   1.964682\nStd. error of the mean =   0.439316\nPk-Pk                  =   6.000000\n\nMean                   = 1278845.333333\nStd. deviation         = 417321.318761\nStd. error of the mean = 93315.883721\nPk-Pk                  = 1309838.300000\n\n'
p718
sg96
g84
sg97
Fnan
sg98
VCPP:nfit
p719
sg100
VODTPOS:z2
p720
sg102
g84
sg103
F1.0
sg104
g707
sg106
Fnan
sg60
Vz2wig
p721
sg108
S'#\n# Column index\n#  0  SEQ:shot\n#  1  ODTPOS:z2\n#  2  CPP:nfit\n\n3723\t\t548.0000\t\t1.655e+06\t\t\n3724\t\t548.0000\t\t1.776e+06\t\t\n3725\t\t548.0000\t\t1.586e+06\t\t\n3726\t\t551.0000\t\t9.768e+05\t\t\n3727\t\t551.0000\t\t1.122e+06\t\t\n3728\t\t551.0000\t\t1.141e+06\t\t\n3729\t\t545.0000\t\t6.046e+05\t\t\n3730\t\t545.0000\t\t6.030e+05\t\t\n3731\t\t545.0000\t\t4.661e+05\t\t\n3732\t\t545.0000\t\t4.785e+05\t\t\n3733\t\t550.0000\t\t1.392e+06\t\t\n3734\t\t550.0000\t\t1.547e+06\t\t\n3735\t\t550.0000\t\t1.431e+06\t\t\n3736\t\t547.0000\t\t1.336e+06\t\t\n3737\t\t547.0000\t\t1.387e+06\t\t\n3738\t\t547.0000\t\t1.435e+06\t\t\n3739\t\t547.0000\t\t1.183e+06\t\t\n3740\t\t548.7500\t\t1.660e+06\t\t\n3741\t\t548.7500\t\t1.623e+06\t\t\n3742\t\t548.7500\t\t1.681e+06\t\t\n3743\t\t548.7500\t\t1.773e+06\t\t'
p722
sg110
g111
sg112
I00
sg113
V3723:3743
p723
sg115
g84
sg117
F10.0
sg118
I01
sg119
Fnan
sg120
g121
sg122
I00
sbag4
(g14
tp724
Rp725
(dp726
g9
g10
sg18
g707
sg20
Fnan
sg21
g4
(g22
tp727
Rp728
(dp729
g26
g32
sg9
g10
sg42
g45
sg49
g50
sg51
F1000000000000000.0
sg52
F1000000000000000.0
sg53
g0
(g1
g2
(lp730
I01
aI01
aI01
aI01
aI01
atp731
Rp732
(dp733
g58
S'fit_mask_items'
p734
sg60
g53
sbsg61
g64
sg68
g69
sg70
g71
sg72
F-1000000000000000.0
sg73
F-1000000000000000.0
sg74
I00
sg75
I00
sbsg76
I01
sg77
g78
sg79
I00
sg80
I00
sg81
Vz2
p735
sg83
g84
sg85
I00
sg86
I00
sg87
I00
sg88
V/lab/data/app3/2013/1303/130304/
p736
sg90
g84
sg92
I00
sg93
I01
sg94
S'Mean                   = 646.000000\nStd. deviation         =   3.872983\nStd. error of the mean =   0.939336\nPk-Pk                  =  12.000000\n\nMean                   = 631982.016667\nStd. deviation         = 203240.006819\nStd. error of the mean = 49292.942086\nPk-Pk                  = 531256.700000\n\n'
p737
sg96
g84
sg97
Fnan
sg98
g719
sg100
VODTPOS:y1
p738
sg102
g84
sg103
F1.0
sg104
g707
sg106
Fnan
sg60
Vy1wig
p739
sg108
S'#\n# Column index\n#  0  SEQ:shot\n#  1  ODTPOS:y1\n#  2  CPP:nfit\n\n3702\t\t646.0000\t\t7.929e+05\t\t\n3703\t\t646.0000\t\t6.738e+05\t\t\n3704\t\t646.0000\t\t8.021e+05\t\t\n3705\t\t646.0000\t\t8.760e+05\t\t\n3706\t\t649.0000\t\t8.180e+05\t\t\n3707\t\t649.0000\t\t7.654e+05\t\t\n3708\t\t649.0000\t\t7.935e+05\t\t\n3709\t\t652.0000\t\t3.478e+05\t\t\n3710\t\t652.0000\t\t3.629e+05\t\t\n3711\t\t652.0000\t\t3.447e+05\t\t\n3712\t\t643.0000\t\t5.980e+05\t\t\n3713\t\t643.0000\t\t8.538e+05\t\t\n3714\t\t643.0000\t\t6.950e+05\t\t\n3715\t\t640.0000\t\t3.554e+05\t\t\n3716\t\t640.0000\t\t3.744e+05\t\t\n3717\t\t640.0000\t\t3.633e+05\t\t\n3718\t\t646.0000\t\t7.659e+05\t\t\n3719\t\t646.0000\t\t7.928e+05\t\t'
p740
sg110
g111
sg112
I00
sg113
V3702:3719
p741
sg115
g84
sg117
F10.0
sg118
I01
sg119
Fnan
sg120
g121
sg122
I00
sbatp742
Rp743
(dp744
g58
S'datasets_items'
p745
sg60
g12
sbsg80
I00
sg81
VOpt ODT
p746
sg359
I1
sg360
g725
sg361
g0
(g1
g2
(lp747
I1
aI2
aI3
aI4
aI5
aI6
aI7
aI8
atp748
Rp749
(dp750
g58
S'grids_items'
p751
sg60
g361
sbsg367
I1
sg60
VOpt ODT
p752
sbag4
(g5
tp753
Rp754
(dp755
g9
g10
sg11
I0
sg12
g0
(g1
g2
(lp756
g4
(g14
tp757
Rp758
(dp759
g9
g10
sg18
g126
sg20
F1600000.0
sg21
g4
(g22
tp760
Rp761
(dp762
g26
g32
sg9
g10
sg42
g45
sg49
g50
sg51
F1000000000000000.0
sg52
F1000000000000000.0
sg53
g0
(g1
g2
(lp763
I01
aI01
aI01
aI01
aI01
atp764
Rp765
(dp766
g58
S'fit_mask_items'
p767
sg60
g53
sbsg61
g64
sg68
g69
sg70
g71
sg72
F-1000000000000000.0
sg73
F-1000000000000000.0
sg74
I00
sg75
I00
sbsg76
I01
sg77
g78
sg79
I00
sg80
I01
sg81
VLattice ramp up, number and density at 1000a0
p768
sg83
g84
sg85
I01
sg86
I00
sg87
I00
sg88
V/lab/data/app3/2013/1303/130305/
p769
sg90
VNumber 
p770
sg92
I00
sg93
I01
sg94
S'Mean                   = 322.058824\nStd. deviation         = 216.401444\nStd. error of the mean =  54.100361\nPk-Pk                  = 675.000000\n\nMean                   = 306740.257647\nStd. deviation         = 251175.253545\nStd. error of the mean = 62793.813386\nPk-Pk                  = 825402.920000\n\n'
p771
sg96
g84
sg97
Fnan
sg98
S'CPP:nfit'
p772
sg100
VDIMPLELATTICE:image
p773
sg102
g91
sg103
F1.0
sg104
g126
sg106
F20000.0
sg60
V1000a0
p774
sg108
S'#\n# Column index\n#  0  SEQ:shot\n#  1  DIMPLELATTICE:image\n#  2  CPP:nfit\n\n3845\t\t25.0000\t\t9.157e+05\t\t\n3846\t\t50.0000\t\t7.554e+05\t\t\n3847\t\t75.0000\t\t6.708e+05\t\t\n3848\t\t100.0000\t\t5.033e+05\t\t\n3849\t\t125.0000\t\t4.121e+05\t\t\n3850\t\t150.0000\t\t3.557e+05\t\t\n3851\t\t200.0000\t\t2.655e+05\t\t\n3852\t\t250.0000\t\t2.158e+05\t\t\n3853\t\t300.0000\t\t1.744e+05\t\t\n3854\t\t350.0000\t\t1.633e+05\t\t\n3855\t\t400.0000\t\t1.388e+05\t\t\n3856\t\t450.0000\t\t1.236e+05\t\t\n3857\t\t500.0000\t\t1.153e+05\t\t\n3858\t\t550.0000\t\t1.108e+05\t\t\n3859\t\t600.0000\t\t1.044e+05\t\t\n3860\t\t650.0000\t\t90341.3800\t\t\n3861\t\t700.0000\t\t99240.6000\t\t'
p775
sg110
g111
sg112
I00
sg113
V3845:3861
p776
sg115
Vtime (ms)
p777
sg117
F8.0
sg118
I01
sg119
Fnan
sg120
g121
sg122
I00
sbag4
(g14
tp778
Rp779
(dp780
g9
g10
sg18
Vblack
p781
sg20
Fnan
sg21
g4
(g22
tp782
Rp783
(dp784
g26
g32
sg9
g10
sg42
g45
sg49
g50
sg51
F1000000000000000.0
sg52
F1000000000000000.0
sg53
g0
(g1
g2
(lp785
I01
aI01
aI01
aI01
aI01
atp786
Rp787
(dp788
g58
S'fit_mask_items'
p789
sg60
g53
sbsg61
g64
sg68
g69
sg70
g71
sg72
F-1000000000000000.0
sg73
F-1000000000000000.0
sg74
I00
sg75
I00
sbsg76
I01
sg77
g78
sg79
I00
sg80
I01
sg81
g91
sg83
g84
sg85
I00
sg86
I00
sg87
I00
sg88
g769
sg90
g84
sg92
I01
sg93
I01
sg94
S'Mean                   = 339.062500\nStd. deviation         = 211.757665\nStd. error of the mean =  54.675594\nPk-Pk                  = 675.000000\n\nMean                   = 948442.050000\nStd. deviation         = 124782.122109\nStd. error of the mean = 32218.605389\nPk-Pk                  = 365926.000000\n\n'
p790
sg96
g84
sg97
Fnan
sg98
VCPP:nfit
p791
sg100
VDIMPLELATTICE:image
p792
sg102
g91
sg103
F1.0
sg104
g781
sg106
Fnan
sg60
V140a0
p793
sg108
S'#\n# Column index\n#  0  SEQ:shot\n#  1  DIMPLELATTICE:image\n#  2  CPP:nfit\n\n3862\t\t25.0000\t\t1.109e+06\t\t\n3864\t\t75.0000\t\t1.125e+06\t\t\n3865\t\t100.0000\t\t1.111e+06\t\t\n3866\t\t125.0000\t\t1.091e+06\t\t\n3867\t\t150.0000\t\t1.011e+06\t\t\n3868\t\t200.0000\t\t1.096e+06\t\t\n3869\t\t250.0000\t\t1.036e+06\t\t\n3870\t\t300.0000\t\t8.369e+05\t\t\n3871\t\t350.0000\t\t9.016e+05\t\t\n3872\t\t400.0000\t\t8.822e+05\t\t\n3873\t\t450.0000\t\t8.840e+05\t\t\n3874\t\t500.0000\t\t8.312e+05\t\t\n3875\t\t550.0000\t\t8.325e+05\t\t\n3876\t\t600.0000\t\t8.234e+05\t\t\n3877\t\t650.0000\t\t8.463e+05\t\t\n3878\t\t700.0000\t\t7.587e+05\t\t'
p794
sg110
g111
sg112
I00
sg113
V3862:3878,-3863
p795
sg115
g84
sg117
F8.0
sg118
I01
sg119
Fnan
sg120
g121
sg122
I00
sbag4
(g14
tp796
Rp797
(dp798
g9
g10
sg18
Vred
p799
sg20
Fnan
sg21
g4
(g22
tp800
Rp801
(dp802
g26
g32
sg9
g10
sg42
g45
sg49
g50
sg51
F1000000000000000.0
sg52
F1000000000000000.0
sg53
g0
(g1
g2
(lp803
I01
aI01
aI01
aI01
aI01
atp804
Rp805
(dp806
g58
S'fit_mask_items'
p807
sg60
g53
sbsg61
g64
sg68
g69
sg70
g71
sg72
F-1000000000000000.0
sg73
F-1000000000000000.0
sg74
I00
sg75
I00
sbsg76
I01
sg77
g78
sg79
I00
sg80
I01
sg81
g91
sg83
g91
sg85
I00
sg86
I00
sg87
I00
sg88
V/lab/data/app3/2013/1303/130305/
p808
sg90
g84
sg92
I01
sg93
I01
sg94
S'Mean                   = 767.361111\nStd. deviation         = 546.796842\nStd. error of the mean =  92.425535\nPk-Pk                  = 1875.000000\n\nMean                   = 371654.719444\nStd. deviation         = 225659.611311\nStd. error of the mean = 38143.436124\nPk-Pk                  = 917295.000000\n\n'
p809
sg96
g84
sg97
Fnan
sg98
VCPP:nfit
p810
sg100
VDIMPLELATTICE:image
p811
sg102
g91
sg103
F1.0
sg104
g799
sg106
Fnan
sg60
V550a0
p812
sg108
S'#\n# Column index\n#  0  SEQ:shot\n#  1  DIMPLELATTICE:image\n#  2  CPP:nfit\n\n3879\t\t25.0000\t\t1.079e+06\t\t\n3880\t\t50.0000\t\t9.387e+05\t\t\n3881\t\t75.0000\t\t7.992e+05\t\t\n3882\t\t100.0000\t\t7.082e+05\t\t\n3883\t\t125.0000\t\t6.756e+05\t\t\n3884\t\t150.0000\t\t5.897e+05\t\t\n3885\t\t150.0000\t\t6.216e+05\t\t\n3886\t\t200.0000\t\t5.193e+05\t\t\n3887\t\t250.0000\t\t4.805e+05\t\t\n3888\t\t300.0000\t\t4.271e+05\t\t\n3889\t\t350.0000\t\t3.768e+05\t\t\n3890\t\t400.0000\t\t3.648e+05\t\t\n3891\t\t450.0000\t\t3.438e+05\t\t\n3892\t\t500.0000\t\t3.209e+05\t\t\n3893\t\t500.0000\t\t3.313e+05\t\t\n3894\t\t550.0000\t\t3.188e+05\t\t\n3895\t\t600.0000\t\t3.002e+05\t\t\n3896\t\t650.0000\t\t2.958e+05\t\t\n3897\t\t700.0000\t\t2.686e+05\t\t\n3898\t\t700.0000\t\t2.885e+05\t\t\n3899\t\t800.0000\t\t2.535e+05\t\t\n3900\t\t900.0000\t\t2.530e+05\t\t\n3901\t\t1000.0000\t\t2.253e+05\t\t\n3902\t\t1100.0000\t\t2.171e+05\t\t\n3903\t\t1200.0000\t\t2.112e+05\t\t\n3904\t\t1300.0000\t\t1.987e+05\t\t\n4012\t\t1000.0000\t\t2.503e+05\t\t\n4013\t\t1100.0000\t\t2.168e+05\t\t\n4014\t\t1200.0000\t\t2.183e+05\t\t\n4015\t\t1300.0000\t\t2.081e+05\t\t\n4016\t\t1400.0000\t\t1.948e+05\t\t\n4017\t\t1500.0000\t\t1.938e+05\t\t\n4018\t\t1600.0000\t\t1.839e+05\t\t\n4019\t\t1700.0000\t\t1.761e+05\t\t\n4020\t\t1800.0000\t\t1.682e+05\t\t\n4021\t\t1900.0000\t\t1.618e+05\t\t'
p813
sg110
g111
sg112
I00
sg113
V3879:3904,4012:4021
p814
sg115
g84
sg117
F8.0
sg118
I01
sg119
Fnan
sg120
g121
sg122
I00
sbag4
(g14
tp815
Rp816
(dp817
g9
g10
sg18
VNone
p818
sg20
Fnan
sg21
g4
(g22
tp819
Rp820
(dp821
g26
g32
sg9
g10
sg42
g45
sg49
g50
sg51
F1000000000000000.0
sg52
F1000000000000000.0
sg53
g0
(g1
g2
(lp822
I01
aI01
aI01
aI01
aI01
atp823
Rp824
(dp825
g58
S'fit_mask_items'
p826
sg60
g53
sbsg61
g64
sg68
g69
sg70
g71
sg72
F-1000000000000000.0
sg73
F-1000000000000000.0
sg74
I00
sg75
I00
sbsg76
I01
sg77
g78
sg79
I00
sg80
I01
sg81
g91
sg83
g91
sg85
I00
sg86
I00
sg87
I00
sg88
g808
sg90
g84
sg92
I01
sg93
I00
sg94
S'Mean                   = 732.638889\nStd. deviation         = 575.567939\nStd. error of the mean =  97.288739\nPk-Pk                  = 1975.000000\n\nMean                   = 159521.495556\nStd. deviation         = 266305.194243\nStd. error of the mean = 45013.793594\nPk-Pk                  = 1354572.430000\n\n'
p827
sg96
g84
sg97
Fnan
sg98
g810
sg100
g811
sg102
g91
sg103
F2.0
sg104
Vblue
p828
sg106
Fnan
sg60
V1000a0-NoGR
p829
sg108
S'#\n# Column index\n#  0  SEQ:shot\n#  1  DIMPLELATTICE:image\n#  2  CPP:nfit\n\n3907\t\t25.0000\t\t1.383e+06\t\t\n3908\t\t50.0000\t\t8.470e+05\t\t\n3909\t\t75.0000\t\t5.714e+05\t\t\n3910\t\t100.0000\t\t4.208e+05\t\t\n3911\t\t125.0000\t\t3.172e+05\t\t\n3912\t\t150.0000\t\t2.531e+05\t\t\n3913\t\t200.0000\t\t1.765e+05\t\t\n3914\t\t250.0000\t\t1.416e+05\t\t\n3915\t\t300.0000\t\t1.079e+05\t\t\n3916\t\t350.0000\t\t95092.5800\t\t\n3917\t\t400.0000\t\t84809.0900\t\t\n3918\t\t450.0000\t\t81008.4200\t\t\n3919\t\t500.0000\t\t69694.8200\t\t\n3920\t\t550.0000\t\t63920.0400\t\t\n3921\t\t600.0000\t\t58917.8600\t\t\n3922\t\t650.0000\t\t55466.5800\t\t\n3923\t\t700.0000\t\t57858.3300\t\t\n3993\t\t200.0000\t\t1.603e+05\t\t\n3994\t\t300.0000\t\t99662.5800\t\t\n3995\t\t400.0000\t\t74893.7700\t\t\n3996\t\t500.0000\t\t63847.5700\t\t\n3997\t\t600.0000\t\t55102.1100\t\t\n3998\t\t700.0000\t\t48219.6400\t\t\n3999\t\t800.0000\t\t45841.6200\t\t\n4000\t\t900.0000\t\t43639.6600\t\t\n4001\t\t1000.0000\t\t39770.1300\t\t\n4002\t\t1100.0000\t\t37961.8300\t\t\n4003\t\t1200.0000\t\t35266.2600\t\t\n4004\t\t1300.0000\t\t35564.8800\t\t\n4005\t\t1400.0000\t\t34845.6900\t\t\n4006\t\t1500.0000\t\t30103.7600\t\t\n4007\t\t1600.0000\t\t32210.3600\t\t\n4008\t\t1700.0000\t\t32958.8000\t\t\n4009\t\t1800.0000\t\t30278.6500\t\t\n4010\t\t1900.0000\t\t28165.5700\t\t\n4011\t\t2000.0000\t\t29179.5400\t\t'
p830
sg110
g111
sg112
I00
sg113
V3907:3923,3993:4011
p831
sg115
g84
sg117
F8.0
sg118
I01
sg119
Fnan
sg120
g121
sg122
I00
sbag4
(g14
tp832
Rp833
(dp834
g9
g10
sg18
g818
sg20
Fnan
sg21
g4
(g22
tp835
Rp836
(dp837
g26
g32
sg9
g10
sg42
g45
sg49
g50
sg51
F1000000000000000.0
sg52
F1000000000000000.0
sg53
g0
(g1
g2
(lp838
I01
aI01
aI01
aI01
aI01
atp839
Rp840
(dp841
g58
S'fit_mask_items'
p842
sg60
g53
sbsg61
g64
sg68
g69
sg70
g71
sg72
F-1000000000000000.0
sg73
F-1000000000000000.0
sg74
I00
sg75
I00
sbsg76
I01
sg77
g78
sg79
I00
sg80
I01
sg81
g91
sg83
g91
sg85
I00
sg86
I00
sg87
I00
sg88
g808
sg90
g84
sg92
I01
sg93
I00
sg94
S'Mean                   = 322.058824\nStd. deviation         = 216.401444\nStd. error of the mean =  54.100361\nPk-Pk                  = 675.000000\n\nMean                   = 317979.441765\nStd. deviation         = 275069.250758\nStd. error of the mean = 68767.312689\nPk-Pk                  = 986462.130000\n\n'
p843
sg96
g84
sg97
Fnan
sg98
g810
sg100
g811
sg102
g91
sg103
F2.0
sg104
Vdarkorange
p844
sg106
Fnan
sg60
V1000a0-MoreGR
p845
sg108
S'#\n# Column index\n#  0  SEQ:shot\n#  1  DIMPLELATTICE:image\n#  2  CPP:nfit\n\n3925\t\t25.0000\t\t1.076e+06\t\t\n3926\t\t50.0000\t\t7.862e+05\t\t\n3927\t\t75.0000\t\t6.440e+05\t\t\n3928\t\t100.0000\t\t5.070e+05\t\t\n3929\t\t125.0000\t\t4.075e+05\t\t\n3930\t\t150.0000\t\t3.402e+05\t\t\n3931\t\t200.0000\t\t2.650e+05\t\t\n3932\t\t250.0000\t\t2.176e+05\t\t\n3933\t\t300.0000\t\t1.888e+05\t\t\n3934\t\t350.0000\t\t1.647e+05\t\t\n3935\t\t400.0000\t\t1.436e+05\t\t\n3936\t\t450.0000\t\t1.392e+05\t\t\n3937\t\t500.0000\t\t1.225e+05\t\t\n3938\t\t550.0000\t\t1.137e+05\t\t\n3939\t\t600.0000\t\t95180.6400\t\t\n3940\t\t650.0000\t\t1.056e+05\t\t\n3941\t\t700.0000\t\t89174.8700\t\t'
p846
sg110
g111
sg112
I00
sg113
V3925:3941
p847
sg115
g84
sg117
F8.0
sg118
I01
sg119
Fnan
sg120
g121
sg122
I00
sbag4
(g14
tp848
Rp849
(dp850
g9
g10
sg18
VNone
p851
sg20
Fnan
sg21
g4
(g22
tp852
Rp853
(dp854
g26
g32
sg9
g10
sg42
g45
sg49
g50
sg51
F1000000000000000.0
sg52
F1000000000000000.0
sg53
g0
(g1
g2
(lp855
I01
aI01
aI01
aI01
aI01
atp856
Rp857
(dp858
g58
S'fit_mask_items'
p859
sg60
g53
sbsg61
g64
sg68
g69
sg70
g71
sg72
F-1000000000000000.0
sg73
F-1000000000000000.0
sg74
I00
sg75
I00
sbsg76
I01
sg77
g78
sg79
I00
sg80
I01
sg81
g91
sg83
g91
sg85
I00
sg86
I00
sg87
I00
sg88
V/lab/data/app3/2013/1303/130305/
p860
sg90
g84
sg92
I01
sg93
I00
sg94
S'Mean                   = 473.958333\nStd. deviation         = 304.692397\nStd. error of the mean =  63.532757\nPk-Pk                  = 975.000000\n\nMean                   = 209918.087917\nStd. deviation         = 234631.261601\nStd. error of the mean = 48924.000032\nPk-Pk                  = 803421.470000\n\n'
p861
sg96
g84
sg97
Fnan
sg98
g810
sg100
g811
sg102
g91
sg103
F1.5
sg104
Vdarkviolet
p862
sg106
Fnan
sg60
V1000a0-Dimple
p863
sg108
S'#\n# Column index\n#  0  SEQ:shot\n#  1  DIMPLELATTICE:image\n#  2  CPP:nfit\n\n3947\t\t25.0000\t\t8.448e+05\t\t\n3948\t\t50.0000\t\t7.606e+05\t\t\n3949\t\t75.0000\t\t6.131e+05\t\t\n3950\t\t100.0000\t\t5.116e+05\t\t\n3951\t\t125.0000\t\t3.825e+05\t\t\n3952\t\t150.0000\t\t3.472e+05\t\t\n3953\t\t200.0000\t\t2.094e+05\t\t\n3954\t\t250.0000\t\t1.910e+05\t\t\n3955\t\t300.0000\t\t1.473e+05\t\t\n3956\t\t350.0000\t\t1.215e+05\t\t\n3957\t\t400.0000\t\t1.088e+05\t\t\n3958\t\t450.0000\t\t94257.5200\t\t\n3959\t\t500.0000\t\t84875.3300\t\t\n3960\t\t550.0000\t\t93226.7200\t\t\n3962\t\t650.0000\t\t69869.5300\t\t\n3964\t\t600.0000\t\t63594.6300\t\t\n3965\t\t650.0000\t\t58719.4900\t\t\n3966\t\t700.0000\t\t54349.5700\t\t\n3967\t\t750.0000\t\t50741.0100\t\t\n3968\t\t800.0000\t\t50740.3000\t\t\n3969\t\t850.0000\t\t49046.7400\t\t\n3970\t\t900.0000\t\t47136.5600\t\t\n3971\t\t950.0000\t\t42013.4800\t\t\n3972\t\t1000.0000\t\t41420.6300\t\t'
p864
sg110
Vs
p865
sg112
I00
sg113
V3947:3972,-3961,-3963
p866
sg115
g84
sg117
F6.0
sg118
I01
sg119
Fnan
sg120
g121
sg122
I00
sbag4
(g14
tp867
Rp868
(dp869
g9
g10
sg18
g818
sg20
Fnan
sg21
g4
(g22
tp870
Rp871
(dp872
g26
g32
sg9
g10
sg42
g45
sg49
g50
sg51
F1000000000000000.0
sg52
F1000000000000000.0
sg53
g0
(g1
g2
(lp873
I01
aI01
aI01
aI01
aI01
atp874
Rp875
(dp876
g58
S'fit_mask_items'
p877
sg60
g53
sbsg61
g64
sg68
g69
sg70
g71
sg72
F-1000000000000000.0
sg73
F-1000000000000000.0
sg74
I00
sg75
I00
sbsg76
I01
sg77
g78
sg79
I00
sg80
I01
sg81
g91
sg83
g91
sg85
I00
sg86
I00
sg87
I00
sg88
g808
sg90
g84
sg92
I01
sg93
I00
sg94
S'Mean                   = 1100.000000\nStd. deviation         = 547.722558\nStd. error of the mean = 129.099445\nPk-Pk                  = 1800.000000\n\nMean                   = 86496.885789\nStd. deviation         = 44879.138075\nStd. error of the mean = 10578.114289\nPk-Pk                  = 175613.210000\n\n'
p878
sg96
g84
sg97
Fnan
sg98
g810
sg100
g811
sg102
g91
sg103
F2.0
sg104
Vgold
p879
sg106
Fnan
sg60
V1000a0-MoreGR det
p880
sg108
S'#\n# Column index\n#  0  SEQ:shot\n#  1  DIMPLELATTICE:image\n#  2  CPP:nfit\n\n3974\t\t200.0000\t\t2.187e+05\t\t\n3975\t\t300.0000\t\t1.712e+05\t\t\n3976\t\t400.0000\t\t1.385e+05\t\t\n3977\t\t500.0000\t\t1.120e+05\t\t\n3978\t\t600.0000\t\t97658.2800\t\t\n3979\t\t700.0000\t\t91935.6400\t\t\n3980\t\t800.0000\t\t91795.7900\t\t\n3981\t\t900.0000\t\t82729.1500\t\t\n3982\t\t1000.0000\t\t80119.8100\t\t\n3983\t\t1100.0000\t\t69681.7200\t\t\n3984\t\t1200.0000\t\t63307.0500\t\t\n3985\t\t1300.0000\t\t66520.4900\t\t\n3986\t\t1400.0000\t\t57402.0600\t\t\n3987\t\t1500.0000\t\t56368.0500\t\t\n3988\t\t1600.0000\t\t52672.4100\t\t\n3989\t\t1700.0000\t\t49625.6000\t\t\n3990\t\t1800.0000\t\t52603.9500\t\t\n3991\t\t1900.0000\t\t43078.4900\t\t\n3992\t\t2000.0000\t\t47550.4400\t\t'
p881
sg110
g111
sg112
I00
sg113
V3974:3992
p882
sg115
g91
sg117
F8.0
sg118
I01
sg119
Fnan
sg120
g121
sg122
I00
sbatp883
Rp884
(dp885
g58
S'datasets_items'
p886
sg60
g12
sbsg80
I00
sg81
VNumber
p887
sg359
I1
sg360
g758
sg361
g0
(g1
g2
(lp888
I1
aI2
aI3
aI4
aI5
aI6
aI7
atp889
Rp890
(dp891
g58
S'grids_items'
p892
sg60
g361
sbsg367
I1
sg60
VNumber
p893
sbag4
(g5
tp894
Rp895
(dp896
g9
g10
sg11
I0
sg12
g0
(g1
g2
(lp897
g4
(g14
tp898
Rp899
(dp900
g9
g10
sg18
g126
sg20
Fnan
sg21
g4
(g22
tp901
Rp902
(dp903
g26
g402
sg9
g10
sg42
g413
sg49
g50
sg51
F1000000000000000.0
sg52
F1000000000000000.0
sg53
g0
(g1
g2
(lp904
I01
aI01
aI01
aI01
aI01
atp905
Rp906
(dp907
g58
S'fit_mask_items'
p908
sg60
g53
sbsg61
g424
sg68
g428
sg70
g429
sg72
F-1000000000000000.0
sg73
F-1000000000000000.0
sg74
I00
sg75
I00
sbsg76
I01
sg77
g78
sg79
I00
sg80
I01
sg81
g91
sg83
g84
sg85
I00
sg86
I00
sg87
I00
sg88
V/lab/data/app3/2013/1303/130305/
p909
sg90
Vpeak density / 6e12
p910
sg92
I00
sg93
I01
sg94
S'Mean                   = 322.058824\nStd. deviation         = 216.401444\nStd. error of the mean =  54.100361\nPk-Pk                  = 675.000000\n\nMean                   =   1.252546\nStd. deviation         =   0.706083\nStd. error of the mean =   0.176521\nPk-Pk                  =   2.345177\n\n'
p911
sg96
g84
sg97
Fnan
sg98
VCPP:peakd / 6e12
p912
sg100
VDIMPLELATTICE:image
p913
sg102
V1000 a0
p914
sg103
F1.0
sg104
g126
sg106
Fnan
sg60
V1000a0
p915
sg108
S'#\n# Column index\n#  0  SEQ:shot\n#  1  DIMPLELATTICE:image\n#  2  CPP:peakd / 6e12\n\n3845\t\t25.0000\t\t2.9588\t\t\n3846\t\t50.0000\t\t2.5167\t\t\n3847\t\t75.0000\t\t2.1465\t\t\n3848\t\t100.0000\t\t1.9267\t\t\n3849\t\t125.0000\t\t1.6265\t\t\n3850\t\t150.0000\t\t1.4617\t\t\n3851\t\t200.0000\t\t1.0492\t\t\n3852\t\t250.0000\t\t0.9099\t\t\n3853\t\t300.0000\t\t0.8591\t\t\n3854\t\t350.0000\t\t0.7823\t\t\n3855\t\t400.0000\t\t0.7689\t\t\n3856\t\t450.0000\t\t0.8157\t\t\n3857\t\t500.0000\t\t0.7579\t\t\n3858\t\t550.0000\t\t0.7139\t\t\n3859\t\t600.0000\t\t0.6964\t\t\n3860\t\t650.0000\t\t0.6895\t\t\n3861\t\t700.0000\t\t0.6136\t\t'
p916
sg110
g111
sg112
I00
sg113
V3845:3861
p917
sg115
Vtime (ms)
p918
sg117
F8.0
sg118
I01
sg119
Fnan
sg120
g121
sg122
I00
sbag4
(g14
tp919
Rp920
(dp921
g9
g10
sg18
Vblack
p922
sg20
Fnan
sg21
g4
(g22
tp923
Rp924
(dp925
g26
g402
sg9
g10
sg42
g413
sg49
g50
sg51
F1000000000000000.0
sg52
F1000000000000000.0
sg53
g0
(g1
g2
(lp926
I01
aI01
aI01
aI01
aI01
atp927
Rp928
(dp929
g58
S'fit_mask_items'
p930
sg60
g53
sbsg61
g424
sg68
g428
sg70
g429
sg72
F-1000000000000000.0
sg73
F-1000000000000000.0
sg74
I00
sg75
I00
sbsg76
I01
sg77
g78
sg79
I00
sg80
I01
sg81
g91
sg83
g91
sg85
I00
sg86
I00
sg87
I00
sg88
V/lab/data/app3/2013/1303/130305/
p931
sg90
g84
sg92
I01
sg93
I01
sg94
S'Mean                   = 339.062500\nStd. deviation         = 211.757665\nStd. error of the mean =  54.675594\nPk-Pk                  = 675.000000\n\nMean                   =   3.306808\nStd. deviation         =   0.089953\nStd. error of the mean =   0.023226\nPk-Pk                  =   0.309992\n\n'
p932
sg96
g84
sg97
Fnan
sg98
VCPP:peakd / 6e12
p933
sg100
VDIMPLELATTICE:image
p934
sg102
V140 a0
p935
sg103
F1.0
sg104
g922
sg106
Fnan
sg60
V140a0
p936
sg108
S'#\n# Column index\n#  0  SEQ:shot\n#  1  DIMPLELATTICE:image\n#  2  CPP:peakd / 6e12\n\n3862\t\t25.0000\t\t3.4781\t\t\n3864\t\t75.0000\t\t3.3842\t\t\n3865\t\t100.0000\t\t3.4310\t\t\n3866\t\t125.0000\t\t3.3795\t\t\n3867\t\t150.0000\t\t3.3014\t\t\n3868\t\t200.0000\t\t3.3557\t\t\n3869\t\t250.0000\t\t3.2266\t\t\n3870\t\t300.0000\t\t3.1681\t\t\n3871\t\t350.0000\t\t3.2841\t\t\n3872\t\t400.0000\t\t3.3411\t\t\n3873\t\t450.0000\t\t3.3407\t\t\n3874\t\t500.0000\t\t3.1799\t\t\n3875\t\t550.0000\t\t3.2238\t\t\n3876\t\t600.0000\t\t3.2690\t\t\n3877\t\t650.0000\t\t3.3616\t\t\n3878\t\t700.0000\t\t3.1841\t\t'
p937
sg110
g111
sg112
I00
sg113
V3862:3878,-3863
p938
sg115
g84
sg117
F8.0
sg118
I01
sg119
Fnan
sg120
g121
sg122
I00
sbag4
(g14
tp939
Rp940
(dp941
g9
g10
sg18
Vred
p942
sg20
Fnan
sg21
g4
(g22
tp943
Rp944
(dp945
g26
g402
sg9
g10
sg42
g413
sg49
g50
sg51
F1000000000000000.0
sg52
F1000000000000000.0
sg53
g0
(g1
g2
(lp946
I01
aI01
aI01
aI01
aI01
atp947
Rp948
(dp949
g58
S'fit_mask_items'
p950
sg60
g53
sbsg61
g424
sg68
g428
sg70
g429
sg72
F-1000000000000000.0
sg73
F-1000000000000000.0
sg74
I00
sg75
I00
sbsg76
I01
sg77
g78
sg79
I00
sg80
I01
sg81
g91
sg83
g91
sg85
I00
sg86
I00
sg87
I00
sg88
V/lab/data/app3/2013/1303/130305/
p951
sg90
g84
sg92
I01
sg93
I01
sg94
S'Mean                   = 767.361111\nStd. deviation         = 546.796842\nStd. error of the mean =  92.425535\nPk-Pk                  = 1875.000000\n\nMean                   =   1.863340\nStd. deviation         =   0.458444\nStd. error of the mean =   0.077491\nPk-Pk                  =   1.849357\n\n'
p952
sg96
g84
sg97
Fnan
sg98
VCPP:peakd / 6e12
p953
sg100
VDIMPLELATTICE:image
p954
sg102
V550 a0
p955
sg103
F1.0
sg104
g942
sg106
Fnan
sg60
V550a0
p956
sg108
S'#\n# Column index\n#  0  SEQ:shot\n#  1  DIMPLELATTICE:image\n#  2  CPP:peakd / 6e12\n\n3879\t\t25.0000\t\t3.1937\t\t\n3880\t\t50.0000\t\t2.8648\t\t\n3881\t\t75.0000\t\t2.9305\t\t\n3882\t\t100.0000\t\t2.7347\t\t\n3883\t\t125.0000\t\t2.4525\t\t\n3884\t\t150.0000\t\t2.4162\t\t\n3885\t\t150.0000\t\t2.2373\t\t\n3886\t\t200.0000\t\t2.0298\t\t\n3887\t\t250.0000\t\t1.9672\t\t\n3888\t\t300.0000\t\t1.9291\t\t\n3889\t\t350.0000\t\t1.8303\t\t\n3890\t\t400.0000\t\t1.8532\t\t\n3891\t\t450.0000\t\t1.8590\t\t\n3892\t\t500.0000\t\t1.7649\t\t\n3893\t\t500.0000\t\t1.7654\t\t\n3894\t\t550.0000\t\t1.7266\t\t\n3895\t\t600.0000\t\t1.7982\t\t\n3896\t\t650.0000\t\t1.8132\t\t\n3897\t\t700.0000\t\t1.7257\t\t\n3898\t\t700.0000\t\t1.7474\t\t\n3899\t\t800.0000\t\t1.6956\t\t\n3900\t\t900.0000\t\t1.6670\t\t\n3901\t\t1000.0000\t\t1.5691\t\t\n3902\t\t1100.0000\t\t1.6607\t\t\n3903\t\t1200.0000\t\t1.5298\t\t\n3904\t\t1300.0000\t\t1.5180\t\t\n4012\t\t1000.0000\t\t1.6127\t\t\n4013\t\t1100.0000\t\t1.6130\t\t\n4014\t\t1200.0000\t\t1.5728\t\t\n4015\t\t1300.0000\t\t1.5303\t\t\n4016\t\t1400.0000\t\t1.4771\t\t\n4017\t\t1500.0000\t\t1.4577\t\t\n4018\t\t1600.0000\t\t1.4260\t\t\n4019\t\t1700.0000\t\t1.4044\t\t\n4020\t\t1800.0000\t\t1.3620\t\t\n4021\t\t1900.0000\t\t1.3443\t\t'
p957
sg110
g111
sg112
I00
sg113
V3879:3904,4012:4021
p958
sg115
g84
sg117
F8.0
sg118
I01
sg119
Fnan
sg120
g121
sg122
I00
sbag4
(g14
tp959
Rp960
(dp961
g9
g10
sg18
VNone
p962
sg20
Fnan
sg21
g4
(g22
tp963
Rp964
(dp965
g26
g402
sg9
g10
sg42
g413
sg49
g50
sg51
F1000000000000000.0
sg52
F1000000000000000.0
sg53
g0
(g1
g2
(lp966
I01
aI01
aI01
aI01
aI01
atp967
Rp968
(dp969
g58
S'fit_mask_items'
p970
sg60
g53
sbsg61
g424
sg68
g428
sg70
g429
sg72
F-1000000000000000.0
sg73
F-1000000000000000.0
sg74
I00
sg75
I00
sbsg76
I01
sg77
g78
sg79
I00
sg80
I01
sg81
g91
sg83
g91
sg85
I00
sg86
I00
sg87
I00
sg88
g951
sg90
g84
sg92
I01
sg93
I00
sg94
S'Mean                   = 732.638889\nStd. deviation         = 575.567939\nStd. error of the mean =  97.288739\nPk-Pk                  = 1975.000000\n\nMean                   =   0.875889\nStd. deviation         =   0.974627\nStd. error of the mean =   0.164742\nPk-Pk                  =   4.688828\n\n'
p971
sg96
g84
sg97
Fnan
sg98
VCPP:peakd / 6e12
p972
sg100
g954
sg102
V1000 a0 no green
p973
sg103
F2.0
sg104
Vblue
p974
sg106
Fnan
sg60
V1000a0-NoGR
p975
sg108
S'#\n# Column index\n#  0  SEQ:shot\n#  1  DIMPLELATTICE:image\n#  2  CPP:peakd / 6e12\n\n3907\t\t25.0000\t\t4.9705\t\t\n3908\t\t50.0000\t\t3.3132\t\t\n3909\t\t75.0000\t\t2.6734\t\t\n3910\t\t100.0000\t\t2.1498\t\t\n3911\t\t125.0000\t\t1.7890\t\t\n3912\t\t150.0000\t\t1.6067\t\t\n3913\t\t200.0000\t\t1.0329\t\t\n3914\t\t250.0000\t\t0.8616\t\t\n3915\t\t300.0000\t\t0.7758\t\t\n3916\t\t350.0000\t\t0.7021\t\t\n3917\t\t400.0000\t\t0.6394\t\t\n3918\t\t450.0000\t\t0.5725\t\t\n3919\t\t500.0000\t\t0.5783\t\t\n3920\t\t550.0000\t\t0.5367\t\t\n3921\t\t600.0000\t\t0.4850\t\t\n3922\t\t650.0000\t\t0.4438\t\t\n3923\t\t700.0000\t\t0.4826\t\t\n3993\t\t200.0000\t\t0.8429\t\t\n3994\t\t300.0000\t\t0.6296\t\t\n3995\t\t400.0000\t\t0.5805\t\t\n3996\t\t500.0000\t\t0.4951\t\t\n3997\t\t600.0000\t\t0.4735\t\t\n3998\t\t700.0000\t\t0.4355\t\t\n3999\t\t800.0000\t\t0.4117\t\t\n4000\t\t900.0000\t\t0.3839\t\t\n4001\t\t1000.0000\t\t0.3992\t\t\n4002\t\t1100.0000\t\t0.3514\t\t\n4003\t\t1200.0000\t\t0.3525\t\t\n4004\t\t1300.0000\t\t0.3612\t\t\n4005\t\t1400.0000\t\t0.3488\t\t\n4006\t\t1500.0000\t\t0.3270\t\t\n4007\t\t1600.0000\t\t0.3013\t\t\n4008\t\t1700.0000\t\t0.3346\t\t\n4009\t\t1800.0000\t\t0.2948\t\t\n4010\t\t1900.0000\t\t0.2817\t\t\n4011\t\t2000.0000\t\t0.3136\t\t'
p976
sg110
g111
sg112
I00
sg113
V3907:3923,3993:4011
p977
sg115
g84
sg117
F8.0
sg118
I01
sg119
Fnan
sg120
g121
sg122
I00
sbag4
(g14
tp978
Rp979
(dp980
g9
g10
sg18
g962
sg20
Fnan
sg21
g4
(g22
tp981
Rp982
(dp983
g26
g402
sg9
g10
sg42
g413
sg49
g50
sg51
F1000000000000000.0
sg52
F1000000000000000.0
sg53
g0
(g1
g2
(lp984
I01
aI01
aI01
aI01
aI01
atp985
Rp986
(dp987
g58
S'fit_mask_items'
p988
sg60
g53
sbsg61
g424
sg68
g428
sg70
g429
sg72
F-1000000000000000.0
sg73
F-1000000000000000.0
sg74
I00
sg75
I00
sbsg76
I01
sg77
g78
sg79
I00
sg80
I01
sg81
g91
sg83
g91
sg85
I00
sg86
I00
sg87
I00
sg88
V/lab/data/app3/2013/1303/130305/
p989
sg90
g84
sg92
I01
sg93
I00
sg94
S'Mean                   = 322.058824\nStd. deviation         = 216.401444\nStd. error of the mean =  54.100361\nPk-Pk                  = 675.000000\n\nMean                   =   1.222101\nStd. deviation         =   0.718462\nStd. error of the mean =   0.179615\nPk-Pk                  =   2.466738\n\n'
p990
sg96
g84
sg97
Fnan
sg98
VCPP:peakd / 6e12
p991
sg100
VDIMPLELATTICE:image
p992
sg102
V1000 a0 more green
p993
sg103
F2.0
sg104
Vdarkorange
p994
sg106
Fnan
sg60
V1000a0-MoreGR
p995
sg108
S'#\n# Column index\n#  0  SEQ:shot\n#  1  DIMPLELATTICE:image\n#  2  CPP:peakd / 6e12\n\n3925\t\t25.0000\t\t3.1395\t\t\n3926\t\t50.0000\t\t2.4631\t\t\n3927\t\t75.0000\t\t2.0802\t\t\n3928\t\t100.0000\t\t1.7976\t\t\n3929\t\t125.0000\t\t1.5223\t\t\n3930\t\t150.0000\t\t1.3492\t\t\n3931\t\t200.0000\t\t0.9712\t\t\n3932\t\t250.0000\t\t0.8846\t\t\n3933\t\t300.0000\t\t0.8290\t\t\n3934\t\t350.0000\t\t0.7954\t\t\n3935\t\t400.0000\t\t0.7854\t\t\n3936\t\t450.0000\t\t0.7081\t\t\n3937\t\t500.0000\t\t0.6998\t\t\n3938\t\t550.0000\t\t0.7144\t\t\n3939\t\t600.0000\t\t0.6809\t\t\n3940\t\t650.0000\t\t0.6823\t\t\n3941\t\t700.0000\t\t0.6728\t\t'
p996
sg110
g111
sg112
I00
sg113
V3925:3941
p997
sg115
g84
sg117
F8.0
sg118
I01
sg119
Fnan
sg120
g121
sg122
I00
sbag4
(g14
tp998
Rp999
(dp1000
g9
g10
sg18
VNone
p1001
sg20
Fnan
sg21
g4
(g22
tp1002
Rp1003
(dp1004
g26
g402
sg9
g10
sg42
g413
sg49
g50
sg51
F1000000000000000.0
sg52
F1000000000000000.0
sg53
g0
(g1
g2
(lp1005
I01
aI01
aI01
aI01
aI01
atp1006
Rp1007
(dp1008
g58
S'fit_mask_items'
p1009
sg60
g53
sbsg61
g424
sg68
g428
sg70
g429
sg72
F-1000000000000000.0
sg73
F-1000000000000000.0
sg74
I00
sg75
I00
sbsg76
I01
sg77
g78
sg79
I00
sg80
I01
sg81
g91
sg83
g91
sg85
I01
sg86
I00
sg87
I00
sg88
g989
sg90
g84
sg92
I01
sg93
I00
sg94
S'Mean                   = 473.958333\nStd. deviation         = 304.692397\nStd. error of the mean =  63.532757\nPk-Pk                  = 975.000000\n\nMean                   =   1.097976\nStd. deviation         =   0.961670\nStd. error of the mean =   0.200522\nPk-Pk                  =   2.883420\n\n'
p1010
sg96
g84
sg97
Fnan
sg98
VCPP:peakd / 6e12
p1011
sg100
g992
sg102
V1000 a0 dimple
p1012
sg103
F1.5
sg104
Vdarkviolet
p1013
sg106
Fnan
sg60
V1000a0-Dimple
p1014
sg108
S'#\n# Column index\n#  0  SEQ:shot\n#  1  DIMPLELATTICE:image\n#  2  CPP:peakd / 6e12\n\n3947\t\t25.0000\t\t3.1115\t\t\n3948\t\t50.0000\t\t3.2155\t\t\n3949\t\t75.0000\t\t2.9197\t\t\n3950\t\t100.0000\t\t2.5383\t\t\n3951\t\t125.0000\t\t2.2994\t\t\n3952\t\t150.0000\t\t1.9430\t\t\n3953\t\t200.0000\t\t1.2110\t\t\n3954\t\t250.0000\t\t1.0194\t\t\n3955\t\t300.0000\t\t0.9048\t\t\n3956\t\t350.0000\t\t0.7664\t\t\n3957\t\t400.0000\t\t0.7166\t\t\n3958\t\t450.0000\t\t0.6660\t\t\n3959\t\t500.0000\t\t0.5851\t\t\n3960\t\t550.0000\t\t0.5566\t\t\n3962\t\t650.0000\t\t0.5471\t\t\n3964\t\t600.0000\t\t0.4250\t\t\n3965\t\t650.0000\t\t0.4190\t\t\n3966\t\t700.0000\t\t0.3873\t\t\n3967\t\t750.0000\t\t0.3852\t\t\n3968\t\t800.0000\t\t0.3577\t\t\n3969\t\t850.0000\t\t0.3357\t\t\n3970\t\t900.0000\t\t0.3529\t\t\n3971\t\t950.0000\t\t0.3560\t\t\n3972\t\t1000.0000\t\t0.3321\t\t'
p1015
sg110
Vs
p1016
sg112
I00
sg113
V3947:3972,-3961,-3963
p1017
sg115
g84
sg117
F6.0
sg118
I01
sg119
Fnan
sg120
g121
sg122
I00
sbag4
(g14
tp1018
Rp1019
(dp1020
g9
g10
sg18
g962
sg20
Fnan
sg21
g4
(g22
tp1021
Rp1022
(dp1023
g26
g402
sg9
g10
sg42
g413
sg49
g50
sg51
F1000000000000000.0
sg52
F1000000000000000.0
sg53
g0
(g1
g2
(lp1024
I01
aI01
aI01
aI01
aI01
atp1025
Rp1026
(dp1027
g58
S'fit_mask_items'
p1028
sg60
g53
sbsg61
g424
sg68
g428
sg70
g429
sg72
F-1000000000000000.0
sg73
F-1000000000000000.0
sg74
I00
sg75
I00
sbsg76
I01
sg77
g78
sg79
I00
sg80
I01
sg81
g91
sg83
g91
sg85
I00
sg86
I00
sg87
I00
sg88
g989
sg90
g84
sg92
I01
sg93
I00
sg94
S'Mean                   = 1100.000000\nStd. deviation         = 547.722558\nStd. error of the mean = 129.099445\nPk-Pk                  = 1800.000000\n\nMean                   =   0.476271\nStd. deviation         =   0.104254\nStd. error of the mean =   0.024573\nPk-Pk                  =   0.378122\n\n'
p1029
sg96
g84
sg97
Fnan
sg98
VCPP:peakd / 6e12
p1030
sg100
g992
sg102
V1000 a0 more green (diff img det)
p1031
sg103
F2.0
sg104
Vgold
p1032
sg106
Fnan
sg60
V1000a0-MoreGR det
p1033
sg108
S'#\n# Column index\n#  0  SEQ:shot\n#  1  DIMPLELATTICE:image\n#  2  CPP:peakd / 6e12\n\n3974\t\t200.0000\t\t0.7254\t\t\n3975\t\t300.0000\t\t0.6641\t\t\n3976\t\t400.0000\t\t0.6012\t\t\n3977\t\t500.0000\t\t0.5602\t\t\n3978\t\t600.0000\t\t0.5343\t\t\n3979\t\t700.0000\t\t0.5055\t\t\n3980\t\t800.0000\t\t0.5306\t\t\n3981\t\t900.0000\t\t0.5028\t\t\n3982\t\t1000.0000\t\t0.4821\t\t\n3983\t\t1100.0000\t\t0.4449\t\t\n3984\t\t1200.0000\t\t0.4224\t\t\n3985\t\t1300.0000\t\t0.4324\t\t\n3986\t\t1400.0000\t\t0.4158\t\t\n3987\t\t1500.0000\t\t0.4049\t\t\n3988\t\t1600.0000\t\t0.3923\t\t\n3989\t\t1700.0000\t\t0.3787\t\t\n3990\t\t1800.0000\t\t0.3560\t\t\n3991\t\t1900.0000\t\t0.3473\t\t\n3992\t\t2000.0000\t\t0.3483\t\t'
p1034
sg110
g111
sg112
I00
sg113
V3974:3992
p1035
sg115
g84
sg117
F8.0
sg118
I01
sg119
Fnan
sg120
g121
sg122
I00
sbatp1036
Rp1037
(dp1038
g58
S'datasets_items'
p1039
sg60
g12
sbsg80
I00
sg81
VDensity
p1040
sg359
I1
sg360
g899
sg361
g0
(g1
g2
(lp1041
I1
aI2
aI3
aI4
aI5
aI6
aI7
atp1042
Rp1043
(dp1044
g58
S'grids_items'
p1045
sg60
g361
sbsg367
I1
sg60
VDensity
p1046
sbag4
(g5
tp1047
Rp1048
(dp1049
g9
g10
sg11
I6
sg12
g0
(g1
g2
(lp1050
g4
(g14
tp1051
Rp1052
(dp1053
g9
g10
sg18
g126
sg20
Fnan
sg21
g4
(g22
tp1054
Rp1055
(dp1056
g26
g402
sg9
g10
sg42
g413
sg49
g50
sg51
F1000000000000000.0
sg52
F1000000000000000.0
sg53
g0
(g1
g2
(lp1057
I01
aI01
aI01
aI01
aI01
atp1058
Rp1059
(dp1060
g58
S'fit_mask_items'
p1061
sg60
g53
sbsg61
g424
sg68
g428
sg70
g429
sg72
F-1000000000000000.0
sg73
F-1000000000000000.0
sg74
I00
sg75
I00
sbsg76
I01
sg77
g78
sg79
I00
sg80
I01
sg81
g91
sg83
g84
sg85
I00
sg86
I00
sg87
I00
sg88
g909
sg90
g84
sg92
I00
sg93
I01
sg94
S'Mean                   = 74427266388635300663394304.000000\nStd. deviation         = 85312795266017824889372672.000000\nStd. error of the mean = 21328198816504451927375872.000000\nPk-Pk                  = 301608416394400013305774080.000000\n\nMean                   = 306740.257647\nStd. deviation         = 251175.253545\nStd. error of the mean = 62793.813386\nPk-Pk                  = 825402.920000\n\n'
p1062
sg96
g84
sg97
Fnan
sg98
VCPP:nfit
p1063
sg100
VCPP:peakd * CPP:peakd
p1064
sg102
g84
sg103
F1.0
sg104
g126
sg106
Fnan
sg60
g915
sg108
S'#\n# Column index\n#  0  SEQ:shot\n#  1  CPP:peakd * CPP:peakd\n#  2  CPP:nfit\n\n3845\t\t3.152e+26\t\t9.157e+05\t\t\n3846\t\t2.280e+26\t\t7.554e+05\t\t\n3847\t\t1.659e+26\t\t6.708e+05\t\t\n3848\t\t1.336e+26\t\t5.033e+05\t\t\n3849\t\t9.523e+25\t\t4.121e+05\t\t\n3850\t\t7.691e+25\t\t3.557e+05\t\t\n3851\t\t3.963e+25\t\t2.655e+05\t\t\n3852\t\t2.980e+25\t\t2.158e+05\t\t\n3853\t\t2.657e+25\t\t1.744e+05\t\t\n3854\t\t2.203e+25\t\t1.633e+05\t\t\n3855\t\t2.128e+25\t\t1.388e+05\t\t\n3856\t\t2.396e+25\t\t1.236e+05\t\t\n3857\t\t2.068e+25\t\t1.153e+05\t\t\n3858\t\t1.835e+25\t\t1.108e+05\t\t\n3859\t\t1.746e+25\t\t1.044e+05\t\t\n3860\t\t1.712e+25\t\t90341.3800\t\t\n3861\t\t1.356e+25\t\t99240.6000\t\t'
p1065
sg110
g111
sg112
I00
sg113
g917
sg115
g84
sg117
F10.0
sg118
I01
sg119
Fnan
sg120
g121
sg122
I00
sbag4
(g14
tp1066
Rp1067
(dp1068
g9
g10
sg18
g922
sg20
Fnan
sg21
g4
(g22
tp1069
Rp1070
(dp1071
g26
g402
sg9
g10
sg42
g413
sg49
g50
sg51
F1000000000000000.0
sg52
F1000000000000000.0
sg53
g0
(g1
g2
(lp1072
I01
aI01
aI01
aI01
aI01
atp1073
Rp1074
(dp1075
g58
S'fit_mask_items'
p1076
sg60
g53
sbsg61
g424
sg68
g428
sg70
g429
sg72
F-1000000000000000.0
sg73
F-1000000000000000.0
sg74
I00
sg75
I00
sbsg76
I01
sg77
g78
sg79
I00
sg80
I01
sg81
g91
sg83
g91
sg85
I00
sg86
I00
sg87
I00
sg88
g931
sg90
g84
sg92
I01
sg93
I01
sg94
S'Mean                   = 393950622026874997583118336.000000\nStd. deviation         = 21429813643886233244401664.000000\nStd. error of the mean = 5533154090339990549561344.000000\nPk-Pk                  = 74170137524999987654557696.000000\n\nMean                   = 948442.050000\nStd. deviation         = 124782.122109\nStd. error of the mean = 32218.605389\nPk-Pk                  = 365926.000000\n\n'
p1077
sg96
g84
sg97
Fnan
sg98
VCPP:nfit
p1078
sg100
VCPP:peakd * CPP:peakd
p1079
sg102
g84
sg103
F1.0
sg104
g922
sg106
Fnan
sg60
g936
sg108
S'#\n# Column index\n#  0  SEQ:shot\n#  1  CPP:peakd * CPP:peakd\n#  2  CPP:nfit\n\n3862\t\t4.355e+26\t\t1.109e+06\t\t\n3864\t\t4.123e+26\t\t1.125e+06\t\t\n3865\t\t4.238e+26\t\t1.111e+06\t\t\n3866\t\t4.112e+26\t\t1.091e+06\t\t\n3867\t\t3.924e+26\t\t1.011e+06\t\t\n3868\t\t4.054e+26\t\t1.096e+06\t\t\n3869\t\t3.748e+26\t\t1.036e+06\t\t\n3870\t\t3.613e+26\t\t8.369e+05\t\t\n3871\t\t3.883e+26\t\t9.016e+05\t\t\n3872\t\t4.019e+26\t\t8.822e+05\t\t\n3873\t\t4.018e+26\t\t8.840e+05\t\t\n3874\t\t3.640e+26\t\t8.312e+05\t\t\n3875\t\t3.741e+26\t\t8.325e+05\t\t\n3876\t\t3.847e+26\t\t8.234e+05\t\t\n3877\t\t4.068e+26\t\t8.463e+05\t\t\n3878\t\t3.650e+26\t\t7.587e+05\t\t'
p1080
sg110
g111
sg112
I00
sg113
g938
sg115
g84
sg117
F10.0
sg118
I01
sg119
Fnan
sg120
g121
sg122
I00
sbag4
(g14
tp1081
Rp1082
(dp1083
g9
g10
sg18
g942
sg20
Fnan
sg21
g4
(g22
tp1084
Rp1085
(dp1086
g26
g402
sg9
g10
sg42
g413
sg49
g50
sg51
F1000000000000000.0
sg52
F1000000000000000.0
sg53
g0
(g1
g2
(lp1087
I01
aI01
aI01
aI01
aI01
atp1088
Rp1089
(dp1090
g58
S'fit_mask_items'
p1091
sg60
g53
sbsg61
g424
sg68
g428
sg70
g429
sg72
F-1000000000000000.0
sg73
F-1000000000000000.0
sg74
I00
sg75
I00
sbsg76
I01
sg77
g78
sg79
I00
sg80
I01
sg81
g91
sg83
g91
sg85
I00
sg86
I00
sg87
I00
sg88
g951
sg90
g84
sg92
I01
sg93
I01
sg94
S'Mean                   = 121117529233897627924299776.000000\nStd. deviation         = 72842015989978965250932736.000000\nStd. error of the mean = 11376011660705010710216704.000000\nPk-Pk                  = 318504219304699975931265024.000000\n\nMean                   = 339939.147619\nStd. deviation         = 222936.747326\nStd. error of the mean = 34816.870493\nPk-Pk                  = 942921.200000\n\n'
p1092
sg96
g84
sg97
Fnan
sg98
VCPP:nfit
p1093
sg100
VCPP:peakd * CPP:peakd
p1094
sg102
g84
sg103
F1.0
sg104
g942
sg106
Fnan
sg60
g956
sg108
S'#\n# Column index\n#  0  SEQ:shot\n#  1  CPP:peakd * CPP:peakd\n#  2  CPP:nfit\n\n3879\t\t3.672e+26\t\t1.079e+06\t\t\n3880\t\t2.954e+26\t\t9.387e+05\t\t\n3881\t\t3.092e+26\t\t7.992e+05\t\t\n3882\t\t2.692e+26\t\t7.082e+05\t\t\n3883\t\t2.165e+26\t\t6.756e+05\t\t\n3884\t\t2.102e+26\t\t5.897e+05\t\t\n3885\t\t1.802e+26\t\t6.216e+05\t\t\n3886\t\t1.483e+26\t\t5.193e+05\t\t\n3887\t\t1.393e+26\t\t4.805e+05\t\t\n3888\t\t1.340e+26\t\t4.271e+05\t\t\n3889\t\t1.206e+26\t\t3.768e+05\t\t\n3890\t\t1.236e+26\t\t3.648e+05\t\t\n3891\t\t1.244e+26\t\t3.438e+05\t\t\n3892\t\t1.121e+26\t\t3.209e+05\t\t\n3893\t\t1.122e+26\t\t3.313e+05\t\t\n3894\t\t1.073e+26\t\t3.188e+05\t\t\n3895\t\t1.164e+26\t\t3.002e+05\t\t\n3896\t\t1.184e+26\t\t2.958e+05\t\t\n3897\t\t1.072e+26\t\t2.686e+05\t\t\n3898\t\t1.099e+26\t\t2.885e+05\t\t\n3899\t\t1.035e+26\t\t2.535e+05\t\t\n3900\t\t1.000e+26\t\t2.530e+05\t\t\n3901\t\t8.863e+25\t\t2.253e+05\t\t\n3902\t\t9.929e+25\t\t2.171e+05\t\t\n3903\t\t8.425e+25\t\t2.112e+05\t\t\n3904\t\t8.296e+25\t\t1.987e+05\t\t\n4012\t\t9.363e+25\t\t2.503e+05\t\t\n4013\t\t9.367e+25\t\t2.168e+05\t\t\n4014\t\t8.905e+25\t\t2.183e+05\t\t\n4015\t\t8.430e+25\t\t2.081e+05\t\t\n4016\t\t7.855e+25\t\t1.948e+05\t\t\n4017\t\t7.650e+25\t\t1.938e+05\t\t\n4018\t\t7.320e+25\t\t1.839e+05\t\t\n4019\t\t7.101e+25\t\t1.761e+05\t\t\n4020\t\t6.678e+25\t\t1.682e+05\t\t\n4021\t\t6.506e+25\t\t1.618e+05\t\t\n4022\t\t4.868e+25\t\t1.632e+05\t\t\n4023\t\t5.117e+25\t\t1.632e+05\t\t\n4024\t\t5.236e+25\t\t1.543e+05\t\t\n4025\t\t4.964e+25\t\t1.428e+05\t\t\n4026\t\t6.389e+25\t\t1.362e+05\t\t\n4027\t\t4.906e+25\t\t1.381e+05\t\t'
p1095
sg110
g111
sg112
I00
sg113
V3879:3904,4012:4021
p1096
sg115
g84
sg117
F10.0
sg118
I01
sg119
Fnan
sg120
g121
sg122
I00
sbag4
(g14
tp1097
Rp1098
(dp1099
g9
g10
sg18
VNone
p1100
sg20
Fnan
sg21
g4
(g22
tp1101
Rp1102
(dp1103
g26
g402
sg9
g10
sg42
g413
sg49
g50
sg51
F1000000000000000.0
sg52
F1000000000000000.0
sg53
g0
(g1
g2
(lp1104
I01
aI01
aI01
aI01
aI01
atp1105
Rp1106
(dp1107
g58
S'fit_mask_items'
p1108
sg60
g53
sbsg61
g424
sg68
g428
sg70
g429
sg72
F-1000000000000000.0
sg73
F-1000000000000000.0
sg74
I00
sg75
I00
sbsg76
I01
sg77
g78
sg79
I00
sg80
I01
sg81
g91
sg83
g91
sg85
I00
sg86
I00
sg87
I00
sg88
g951
sg90
g84
sg92
I01
sg93
I00
sg94
S'Mean                   = 61814869540716666716946432.000000\nStd. deviation         = 160785264598673528996233216.000000\nStd. error of the mean = 27177670094643852101025792.000000\nPk-Pk                  = 886556798676779993451724800.000000\n\nMean                   = 159521.495556\nStd. deviation         = 266305.194243\nStd. error of the mean = 45013.793594\nPk-Pk                  = 1354572.430000\n\n'
p1109
sg96
g84
sg97
Fnan
sg98
g1093
sg100
g1094
sg102
g84
sg103
F2.0
sg104
Vblue
p1110
sg106
Fnan
sg60
V1000a0-NoGR
p1111
sg108
S'#\n# Column index\n#  0  SEQ:shot\n#  1  CPP:peakd * CPP:peakd\n#  2  CPP:nfit\n\n3907\t\t8.894e+26\t\t1.383e+06\t\t\n3908\t\t3.952e+26\t\t8.470e+05\t\t\n3909\t\t2.573e+26\t\t5.714e+05\t\t\n3910\t\t1.664e+26\t\t4.208e+05\t\t\n3911\t\t1.152e+26\t\t3.172e+05\t\t\n3912\t\t9.294e+25\t\t2.531e+05\t\t\n3913\t\t3.841e+25\t\t1.765e+05\t\t\n3914\t\t2.672e+25\t\t1.416e+05\t\t\n3915\t\t2.167e+25\t\t1.079e+05\t\t\n3916\t\t1.775e+25\t\t95092.5800\t\t\n3917\t\t1.472e+25\t\t84809.0900\t\t\n3918\t\t1.180e+25\t\t81008.4200\t\t\n3919\t\t1.204e+25\t\t69694.8200\t\t\n3920\t\t1.037e+25\t\t63920.0400\t\t\n3921\t\t8.469e+24\t\t58917.8600\t\t\n3922\t\t7.090e+24\t\t55466.5800\t\t\n3923\t\t8.384e+24\t\t57858.3300\t\t\n3993\t\t2.558e+25\t\t1.603e+05\t\t\n3994\t\t1.427e+25\t\t99662.5800\t\t\n3995\t\t1.213e+25\t\t74893.7700\t\t\n3996\t\t8.826e+24\t\t63847.5700\t\t\n3997\t\t8.071e+24\t\t55102.1100\t\t\n3998\t\t6.827e+24\t\t48219.6400\t\t\n3999\t\t6.101e+24\t\t45841.6200\t\t\n4000\t\t5.307e+24\t\t43639.6600\t\t\n4001\t\t5.737e+24\t\t39770.1300\t\t\n4002\t\t4.444e+24\t\t37961.8300\t\t\n4003\t\t4.474e+24\t\t35266.2600\t\t\n4004\t\t4.697e+24\t\t35564.8800\t\t\n4005\t\t4.380e+24\t\t34845.6900\t\t\n4006\t\t3.849e+24\t\t30103.7600\t\t\n4007\t\t3.267e+24\t\t32210.3600\t\t\n4008\t\t4.030e+24\t\t32958.8000\t\t\n4009\t\t3.129e+24\t\t30278.6500\t\t\n4010\t\t2.856e+24\t\t28165.5700\t\t\n4011\t\t3.540e+24\t\t29179.5400\t\t'
p1112
sg110
g111
sg112
I00
sg113
V3907:3923,3993:4011
p1113
sg115
g84
sg117
F10.0
sg118
I01
sg119
Fnan
sg120
g121
sg122
I00
sbag4
(g14
tp1114
Rp1115
(dp1116
g9
g10
sg18
g1100
sg20
Fnan
sg21
g4
(g22
tp1117
Rp1118
(dp1119
g26
g402
sg9
g10
sg42
g413
sg49
g50
sg51
F1000000000000000.0
sg52
F1000000000000000.0
sg53
g0
(g1
g2
(lp1120
I01
aI01
aI01
aI01
aI01
atp1121
Rp1122
(dp1123
g58
S'fit_mask_items'
p1124
sg60
g53
sbsg61
g424
sg68
g428
sg70
g429
sg72
F-1000000000000000.0
sg73
F-1000000000000000.0
sg74
I00
sg75
I00
sbsg76
I01
sg77
g78
sg79
I00
sg80
I01
sg81
g91
sg83
g91
sg85
I00
sg86
I00
sg87
I00
sg88
V/lab/data/app3/2013/1303/130305/
p1125
sg90
g84
sg92
I01
sg93
I00
sg94
S'Mean                   = 38681553910507792133783552.000000\nStd. deviation         = 69890118813162792955150336.000000\nStd. error of the mean = 11813586255685215965937664.000000\nPk-Pk                  = 350495290854339985805410304.000000\n\nMean                   = 195808.092778\nStd. deviation         = 223936.393126\nStd. error of the mean = 37852.159088\nPk-Pk                  = 1032558.510000\n\n'
p1126
sg96
g84
sg97
Fnan
sg98
VCPP:nfit
p1127
sg100
VCPP:peakd * CPP:peakd
p1128
sg102
g84
sg103
F2.0
sg104
Vdarkorange
p1129
sg106
Fnan
sg60
V1000a0-MoreGR
p1130
sg108
S'#\n# Column index\n#  0  SEQ:shot\n#  1  CPP:peakd * CPP:peakd\n#  2  CPP:nfit\n\n3925\t\t3.548e+26\t\t1.076e+06\t\t\n3926\t\t2.184e+26\t\t7.862e+05\t\t\n3927\t\t1.558e+26\t\t6.440e+05\t\t\n3928\t\t1.163e+26\t\t5.070e+05\t\t\n3929\t\t8.342e+25\t\t4.075e+05\t\t\n3930\t\t6.553e+25\t\t3.402e+05\t\t\n3931\t\t3.396e+25\t\t2.650e+05\t\t\n3932\t\t2.817e+25\t\t2.176e+05\t\t\n3933\t\t2.474e+25\t\t1.888e+05\t\t\n3934\t\t2.278e+25\t\t1.647e+05\t\t\n3935\t\t2.220e+25\t\t1.436e+05\t\t\n3936\t\t1.805e+25\t\t1.392e+05\t\t\n3937\t\t1.763e+25\t\t1.225e+05\t\t\n3938\t\t1.837e+25\t\t1.137e+05\t\t\n3939\t\t1.669e+25\t\t95180.6400\t\t\n3940\t\t1.676e+25\t\t1.056e+05\t\t\n3941\t\t1.629e+25\t\t89174.8700\t\t\n3974\t\t1.894e+25\t\t2.187e+05\t\t\n3975\t\t1.588e+25\t\t1.712e+05\t\t\n3976\t\t1.301e+25\t\t1.385e+05\t\t\n3977\t\t1.130e+25\t\t1.120e+05\t\t\n3978\t\t1.028e+25\t\t97658.2800\t\t\n3979\t\t9.200e+24\t\t91935.6400\t\t\n3980\t\t1.014e+25\t\t91795.7900\t\t\n3981\t\t9.099e+24\t\t82729.1500\t\t\n3982\t\t8.366e+24\t\t80119.8100\t\t\n3983\t\t7.124e+24\t\t69681.7200\t\t\n3984\t\t6.422e+24\t\t63307.0500\t\t\n3985\t\t6.731e+24\t\t66520.4900\t\t\n3986\t\t6.223e+24\t\t57402.0600\t\t\n3987\t\t5.903e+24\t\t56368.0500\t\t\n3988\t\t5.541e+24\t\t52672.4100\t\t\n3989\t\t5.164e+24\t\t49625.6000\t\t\n3990\t\t4.563e+24\t\t52603.9500\t\t\n3991\t\t4.341e+24\t\t43078.4900\t\t\n3992\t\t4.368e+24\t\t47550.4400\t\t'
p1131
sg110
g111
sg112
I00
sg113
V3925:3941
p1132
sg115
g84
sg117
F10.0
sg118
I01
sg119
Fnan
sg120
g121
sg122
I00
sbag4
(g14
tp1133
Rp1134
(dp1135
g9
g10
sg18
VNone
p1136
sg20
Fnan
sg21
g4
(g22
tp1137
Rp1138
(dp1139
g26
g402
sg9
g10
sg42
g413
sg49
g50
sg51
F1000000000000000.0
sg52
F1000000000000000.0
sg53
g0
(g1
g2
(lp1140
I01
aI01
aI01
aI01
aI01
atp1141
Rp1142
(dp1143
g58
S'fit_mask_items'
p1144
sg60
g53
sbsg61
g424
sg68
g428
sg70
g429
sg72
F-1000000000000000.0
sg73
F-1000000000000000.0
sg74
I00
sg75
I00
sbsg76
I01
sg77
g78
sg79
I00
sg80
I01
sg81
g91
sg83
g91
sg85
I00
sg86
I00
sg87
I00
sg88
V/lab/data/app3/2013/1303/130305/
p1145
sg90
g84
sg92
I01
sg93
I00
sg94
S'Mean                   = 76692995200816233146482688.000000\nStd. deviation         = 116954276023979725629161472.000000\nStd. error of the mean = 24386652336609523027410944.000000\nPk-Pk                  = 368254032544399958543958016.000000\n\nMean                   = 209918.087917\nStd. deviation         = 234631.261601\nStd. error of the mean = 48924.000032\nPk-Pk                  = 803421.470000\n\n'
p1146
sg96
g84
sg97
Fnan
sg98
g1127
sg100
g1128
sg102
g84
sg103
F1.5
sg104
Vdarkviolet
p1147
sg106
Fnan
sg60
V1000a0-Dimple
p1148
sg108
S'#\n# Column index\n#  0  SEQ:shot\n#  1  CPP:peakd * CPP:peakd\n#  2  CPP:nfit\n\n3947\t\t3.485e+26\t\t8.448e+05\t\t\n3948\t\t3.722e+26\t\t7.606e+05\t\t\n3949\t\t3.069e+26\t\t6.131e+05\t\t\n3950\t\t2.320e+26\t\t5.116e+05\t\t\n3951\t\t1.903e+26\t\t3.825e+05\t\t\n3952\t\t1.359e+26\t\t3.472e+05\t\t\n3953\t\t5.279e+25\t\t2.094e+05\t\t\n3954\t\t3.741e+25\t\t1.910e+05\t\t\n3955\t\t2.947e+25\t\t1.473e+05\t\t\n3956\t\t2.115e+25\t\t1.215e+05\t\t\n3957\t\t1.848e+25\t\t1.088e+05\t\t\n3958\t\t1.597e+25\t\t94257.5200\t\t\n3959\t\t1.232e+25\t\t84875.3300\t\t\n3960\t\t1.115e+25\t\t93226.7200\t\t\n3962\t\t1.078e+25\t\t69869.5300\t\t\n3964\t\t6.503e+24\t\t63594.6300\t\t\n3965\t\t6.320e+24\t\t58719.4900\t\t\n3966\t\t5.400e+24\t\t54349.5700\t\t\n3967\t\t5.340e+24\t\t50741.0100\t\t\n3968\t\t4.607e+24\t\t50740.3000\t\t\n3969\t\t4.057e+24\t\t49046.7400\t\t\n3970\t\t4.484e+24\t\t47136.5600\t\t\n3971\t\t4.563e+24\t\t42013.4800\t\t\n3972\t\t3.970e+24\t\t41420.6300\t\t'
p1149
sg110
Vs
p1150
sg112
I00
sg113
V3947:3972,-3961,-3963
p1151
sg115
g84
sg117
F8.0
sg118
I01
sg119
Fnan
sg120
g121
sg122
I00
sbag4
(g14
tp1152
Rp1153
(dp1154
g9
g10
sg18
g1100
sg20
Fnan
sg21
g4
(g22
tp1155
Rp1156
(dp1157
g26
g402
sg9
g10
sg42
g413
sg49
g50
sg51
F1000000000000000.0
sg52
F1000000000000000.0
sg53
g0
(g1
g2
(lp1158
I01
aI01
aI01
aI01
aI01
atp1159
Rp1160
(dp1161
g58
S'fit_mask_items'
p1162
sg60
g53
sbsg61
g424
sg68
g428
sg70
g429
sg72
F-1000000000000000.0
sg73
F-1000000000000000.0
sg74
I00
sg75
I00
sbsg76
I01
sg77
g78
sg79
I00
sg80
I01
sg81
g91
sg83
g91
sg85
I00
sg86
I00
sg87
I00
sg88
g1125
sg90
g84
sg92
I01
sg93
I00
sg94
g1126
sg96
g84
sg97
Fnan
sg98
g1127
sg100
g1128
sg102
g84
sg103
F2.0
sg104
Vgold
p1163
sg106
Fnan
sg60
V1000a0-MoreGR det
p1164
sg108
g1131
sg110
g111
sg112
I00
sg113
V3974:3992
p1165
sg115
g84
sg117
F10.0
sg118
I01
sg119
Fnan
sg120
g121
sg122
I00
sbatp1166
Rp1167
(dp1168
g58
S'datasets_items'
p1169
sg60
g12
sbsg80
I00
sg81
VN_vs_n2
p1170
sg359
I1
sg360
g1153
sg361
g0
(g1
g2
(lp1171
I1
aI2
aI3
aI4
aI5
aI6
aI7
atp1172
Rp1173
(dp1174
g58
S'grids_items'
p1175
sg60
g361
sbsg367
I1
sg60
VN_vs_n2
p1176
sbag4
(g5
tp1177
Rp1178
(dp1179
g9
g10
sg11
I0
sg12
g0
(g1
g2
(lp1180
g4
(g14
tp1181
Rp1182
(dp1183
g9
g10
sg18
g126
sg20
Fnan
sg21
g4
(g22
tp1184
Rp1185
(dp1186
g26
g402
sg9
g10
sg42
g413
sg49
g50
sg51
F1000000000000000.0
sg52
F1000000000000000.0
sg53
g0
(g1
g2
(lp1187
I01
aI01
aI01
aI01
aI01
atp1188
Rp1189
(dp1190
g58
S'fit_mask_items'
p1191
sg60
g53
sbsg61
g424
sg68
S'a[0]*x + a[1]'
p1192
sg70
S'Linear'
p1193
sg72
F-1000000000000000.0
sg73
F-1000000000000000.0
sg74
I00
sg75
I00
sbsg76
I01
sg77
g78
sg79
I00
sg80
I01
sg81
g91
sg83
g84
sg85
I00
sg86
I00
sg87
I00
sg88
g909
sg90
Vln( number )
p1194
sg92
I00
sg93
I01
sg94
S'Mean                   =  29.513776\nStd. deviation         =   0.496173\nStd. error of the mean =   0.124043\nPk-Pk                  =   1.573146\n\nMean                   =  12.333638\nStd. deviation         =   0.754697\nStd. error of the mean =   0.188674\nPk-Pk                  =   2.316142\n\n'
p1195
sg96
g84
sg97
Fnan
sg98
Vnumpy.log( CPP:nfit )
p1196
sg100
Vnumpy.log( CPP:peakd )
p1197
sg102
g84
sg103
F1.0
sg104
g126
sg106
Fnan
sg60
g915
sg108
S'#\n# Column index\n#  0  SEQ:shot\n#  1  numpy.log( CPP:peakd )\n#  2  numpy.log( CPP:nfit )\n\n3845\t\t30.5076\t\t13.7275\t\t\n3846\t\t30.3457\t\t13.5351\t\t\n3847\t\t30.1866\t\t13.4162\t\t\n3848\t\t30.0786\t\t13.1290\t\t\n3849\t\t29.9092\t\t12.9289\t\t\n3850\t\t29.8024\t\t12.7819\t\t\n3851\t\t29.4708\t\t12.4895\t\t\n3852\t\t29.3283\t\t12.2820\t\t\n3853\t\t29.2709\t\t12.0694\t\t\n3854\t\t29.1773\t\t12.0036\t\t\n3855\t\t29.1600\t\t11.8406\t\t\n3856\t\t29.2191\t\t11.7248\t\t\n3857\t\t29.1456\t\t11.6551\t\t\n3858\t\t29.0857\t\t11.6159\t\t\n3859\t\t29.0610\t\t11.5558\t\t\n3860\t\t29.0510\t\t11.4114\t\t\n3861\t\t28.9344\t\t11.5053\t\t'
p1198
sg110
g111
sg112
I00
sg113
g917
sg115
Vln( peak density )
p1199
sg117
F10.0
sg118
I01
sg119
Fnan
sg120
g121
sg122
I00
sbag4
(g14
tp1200
Rp1201
(dp1202
g9
g10
sg18
g922
sg20
Fnan
sg21
g4
(g22
tp1203
Rp1204
(dp1205
g26
g402
sg9
g10
sg42
g413
sg49
g50
sg51
F1000000000000000.0
sg52
F1000000000000000.0
sg53
g0
(g1
g2
(lp1206
I01
aI01
aI01
aI01
aI01
atp1207
Rp1208
(dp1209
g58
S'fit_mask_items'
p1210
sg60
g53
sbsg61
g424
sg68
g428
sg70
g429
sg72
F-1000000000000000.0
sg73
F-1000000000000000.0
sg74
I00
sg75
I00
sbsg76
I01
sg77
g78
sg79
I00
sg80
I01
sg81
g91
sg83
g91
sg85
I00
sg86
I00
sg87
I00
sg88
g931
sg90
g84
sg92
I01
sg93
I01
sg94
S'Mean                   =  30.618394\nStd. deviation         =   0.027204\nStd. error of the mean =   0.007024\nPk-Pk                  =   0.093351\n\nMean                   =  13.753958\nStd. deviation         =   0.131135\nStd. error of the mean =   0.033859\nPk-Pk                  =   0.393587\n\n'
p1211
sg96
g84
sg97
Fnan
sg98
Vnumpy.log( CPP:nfit )
p1212
sg100
Vnumpy.log( CPP:peakd )
p1213
sg102
g84
sg103
F1.0
sg104
g922
sg106
Fnan
sg60
g936
sg108
S'#\n# Column index\n#  0  SEQ:shot\n#  1  numpy.log( CPP:peakd )\n#  2  numpy.log( CPP:nfit )\n\n3862\t\t30.6693\t\t13.9187\t\t\n3864\t\t30.6419\t\t13.9330\t\t\n3865\t\t30.6556\t\t13.9204\t\t\n3866\t\t30.6405\t\t13.9030\t\t\n3867\t\t30.6171\t\t13.8267\t\t\n3868\t\t30.6334\t\t13.9068\t\t\n3869\t\t30.5942\t\t13.8511\t\t\n3870\t\t30.5759\t\t13.6375\t\t\n3871\t\t30.6119\t\t13.7120\t\t\n3872\t\t30.6291\t\t13.6901\t\t\n3873\t\t30.6290\t\t13.6922\t\t\n3874\t\t30.5796\t\t13.6307\t\t\n3875\t\t30.5933\t\t13.6322\t\t\n3876\t\t30.6073\t\t13.6212\t\t\n3877\t\t30.6352\t\t13.6486\t\t\n3878\t\t30.5809\t\t13.5394\t\t'
p1214
sg110
g111
sg112
I00
sg113
g938
sg115
g84
sg117
F10.0
sg118
I01
sg119
Fnan
sg120
g121
sg122
I00
sbag4
(g14
tp1215
Rp1216
(dp1217
g9
g10
sg18
g942
sg20
Fnan
sg21
g4
(g22
tp1218
Rp1219
(dp1220
g26
g402
sg9
g10
sg42
g413
sg49
g50
sg51
F1000000000000000.0
sg52
F1000000000000000.0
sg53
g0
(g1
g2
(lp1221
I01
aI01
aI01
aI01
aI01
atp1222
Rp1223
(dp1224
g58
S'fit_mask_items'
p1225
sg60
g53
sbsg61
g424
sg68
g428
sg70
g429
sg72
F-1000000000000000.0
sg73
F-1000000000000000.0
sg74
I00
sg75
I00
sbsg76
I01
sg77
g78
sg79
I00
sg80
I01
sg81
g91
sg83
g91
sg85
I00
sg86
I00
sg87
I00
sg88
g951
sg90
g84
sg92
I01
sg93
I01
sg94
S'Mean                   =  30.019190\nStd. deviation         =   0.219842\nStd. error of the mean =   0.037160\nPk-Pk                  =   0.865292\n\nMean                   =  12.680586\nStd. deviation         =   0.511715\nStd. error of the mean =   0.086496\nPk-Pk                  =   1.897365\n\n'
p1226
sg96
g84
sg97
Fnan
sg98
Vnumpy.log( CPP:nfit )
p1227
sg100
Vnumpy.log( CPP:peakd )
p1228
sg102
g84
sg103
F1.0
sg104
g942
sg106
Fnan
sg60
g956
sg108
S'#\n# Column index\n#  0  SEQ:shot\n#  1  numpy.log( CPP:peakd )\n#  2  numpy.log( CPP:nfit )\n\n3879\t\t30.5839\t\t13.8917\t\t\n3880\t\t30.4753\t\t13.7523\t\t\n3881\t\t30.4979\t\t13.5913\t\t\n3882\t\t30.4288\t\t13.4705\t\t\n3883\t\t30.3199\t\t13.4233\t\t\n3884\t\t30.3050\t\t13.2874\t\t\n3885\t\t30.2281\t\t13.3400\t\t\n3886\t\t30.1307\t\t13.1602\t\t\n3887\t\t30.0994\t\t13.0826\t\t\n3888\t\t30.0798\t\t12.9647\t\t\n3889\t\t30.0273\t\t12.8394\t\t\n3890\t\t30.0397\t\t12.8070\t\t\n3891\t\t30.0428\t\t12.7478\t\t\n3892\t\t29.9908\t\t12.6787\t\t\n3893\t\t29.9912\t\t12.7109\t\t\n3894\t\t29.9689\t\t12.6724\t\t\n3895\t\t30.0096\t\t12.6121\t\t\n3896\t\t30.0178\t\t12.5976\t\t\n3897\t\t29.9684\t\t12.5010\t\t\n3898\t\t29.9809\t\t12.5726\t\t\n3899\t\t29.9508\t\t12.4431\t\t\n3900\t\t29.9338\t\t12.4410\t\t\n3901\t\t29.8733\t\t12.3252\t\t\n3902\t\t29.9300\t\t12.2879\t\t\n3903\t\t29.8479\t\t12.2608\t\t\n3904\t\t29.8402\t\t12.1996\t\t\n4012\t\t29.9007\t\t12.4303\t\t\n4013\t\t29.9009\t\t12.2868\t\t\n4014\t\t29.8756\t\t12.2936\t\t\n4015\t\t29.8482\t\t12.2459\t\t\n4016\t\t29.8129\t\t12.1799\t\t\n4017\t\t29.7997\t\t12.1746\t\t\n4018\t\t29.7776\t\t12.1222\t\t\n4019\t\t29.7624\t\t12.0791\t\t\n4020\t\t29.7318\t\t12.0331\t\t\n4021\t\t29.7187\t\t11.9943\t\t'
p1229
sg110
g111
sg112
I00
sg113
V3879:3904,4012:4021
p1230
sg115
g84
sg117
F10.0
sg118
I01
sg119
Fnan
sg120
g121
sg122
I00
sbag4
(g14
tp1231
Rp1232
(dp1233
g9
g10
sg18
g1100
sg20
Fnan
sg21
g4
(g22
tp1234
Rp1235
(dp1236
g26
g27
(g28
(I0
tp1237
g30
tp1238
Rp1239
(I1
(I5
I1
tp1240
g34
(S'f8'
p1241
I0
I1
tp1242
Rp1243
(I3
S'<'
p1244
NNNI-1
I-1
I0
tp1245
bI00
S'\x1fYE\xf3#\xe7\xf5?[0C\xf4\xbeQ<\xc0\xfd(\\\x8f\xc2\xf5\x17@\x00\x00\x00\x00\x00\xdb\xfa@\x00\x00\x00\x00\x00\x00\x00\x00'
p1246
tp1247
bsg9
g10
sg42
g27
(g28
(I0
tp1248
g30
tp1249
Rp1250
(I1
(I5
I1
tp1251
g1243
I00
S'Ou\xcf\xc8\xee\x1d\xa3?\xcccfRmb\xf1?\x00\x00\x00\x00\x00\x00\x0c=\x00\x00\x00\x00\x00\x00\x00\x00\x00\x00\x00\x00\x00\x00\x00\x00'
p1252
tp1253
bsg49
g50
sg51
F1000000000000000.0
sg52
F1000000000000000.0
sg53
g0
(g1
g2
(lp1254
I01
aI01
aI01
aI01
aI01
atp1255
Rp1256
(dp1257
g58
S'fit_mask_items'
p1258
sg60
g53
sbsg61
g27
(g28
(I0
tp1259
g30
tp1260
Rp1261
(I1
(I5
I1
tp1262
g37
I00
S'\x9a\x99\x99\x99\x99\x99\xf1?\x00\x00\x00\x00\x00\x00.\xc0\xf6(\\\x8f\xc2\xf5\x17@\x00\x00\x00\x00\x00\xdb\xfa@\x00\x00\x00\x00\x00\x00\x00\x00'
p1263
tp1264
bsg68
g1192
sg70
g1193
sg72
F-1000000000000000.0
sg73
F-1000000000000000.0
sg74
I01
sg75
I01
sbsg76
I01
sg77
g78
sg79
I00
sg80
I01
sg81
g91
sg83
g91
sg85
I00
sg86
I00
sg87
I00
sg88
g951
sg90
g84
sg92
I01
sg93
I00
sg94
S'Mean                   =  28.950539\nStd. deviation         =   0.720858\nStd. error of the mean =   0.121847\nPk-Pk                  =   2.870514\n\nMean                   =  11.311706\nStd. deviation         =   0.990746\nStd. error of the mean =   0.167467\nPk-Pk                  =   3.893721\n\n'
p1265
sg96
g84
sg97
Fnan
sg98
Vnumpy.log( CPP:nfit )
p1266
sg100
Vnumpy.log( CPP:peakd )
p1267
sg102
g84
sg103
F2.0
sg104
g1110
sg106
Fnan
sg60
g1111
sg108
S'#\n# Column index\n#  0  SEQ:shot\n#  1  numpy.log( CPP:peakd )\n#  2  numpy.log( CPP:nfit )\n\n3907\t\t31.0263\t\t14.1396\t\t\n3908\t\t30.6207\t\t13.6495\t\t\n3909\t\t30.4061\t\t13.2559\t\t\n3910\t\t30.1882\t\t12.9499\t\t\n3911\t\t30.0044\t\t12.6671\t\t\n3912\t\t29.8970\t\t12.4415\t\t\n3913\t\t29.4552\t\t12.0809\t\t\n3914\t\t29.2738\t\t11.8608\t\t\n3915\t\t29.1689\t\t11.5886\t\t\n3916\t\t29.0691\t\t11.4626\t\t\n3917\t\t28.9756\t\t11.3482\t\t\n3918\t\t28.8651\t\t11.3023\t\t\n3919\t\t28.8751\t\t11.1519\t\t\n3920\t\t28.8005\t\t11.0654\t\t\n3921\t\t28.6992\t\t10.9839\t\t\n3922\t\t28.6104\t\t10.9235\t\t\n3923\t\t28.6942\t\t10.9658\t\t\n3993\t\t29.2519\t\t11.9849\t\t\n3994\t\t28.9602\t\t11.5095\t\t\n3995\t\t28.8789\t\t11.2238\t\t\n3996\t\t28.7199\t\t11.0643\t\t\n3997\t\t28.6752\t\t10.9169\t\t\n3998\t\t28.5915\t\t10.7835\t\t\n3999\t\t28.5352\t\t10.7329\t\t\n4000\t\t28.4655\t\t10.6837\t\t\n4001\t\t28.5045\t\t10.5909\t\t\n4002\t\t28.3768\t\t10.5443\t\t\n4003\t\t28.3802\t\t10.4707\t\t\n4004\t\t28.4045\t\t10.4791\t\t\n4005\t\t28.3696\t\t10.4587\t\t\n4006\t\t28.3050\t\t10.3124\t\t\n4007\t\t28.2230\t\t10.3800\t\t\n4008\t\t28.3279\t\t10.4030\t\t\n4009\t\t28.2013\t\t10.3182\t\t\n4010\t\t28.1558\t\t10.2459\t\t\n4011\t\t28.2631\t\t10.2812\t\t'
p1268
sg110
g111
sg112
I00
sg113
V3907:3923,3993:4011
p1269
sg115
g84
sg117
F10.0
sg118
I01
sg119
Fnan
sg120
g121
sg122
I00
sbag4
(g14
tp1270
Rp1271
(dp1272
g9
g10
sg18
g1100
sg20
Fnan
sg21
g4
(g22
tp1273
Rp1274
(dp1275
g26
g402
sg9
g10
sg42
g413
sg49
g50
sg51
F1000000000000000.0
sg52
F1000000000000000.0
sg53
g0
(g1
g2
(lp1276
I01
aI01
aI01
aI01
aI01
atp1277
Rp1278
(dp1279
g58
S'fit_mask_items'
p1280
sg60
g53
sbsg61
g424
sg68
g428
sg70
g429
sg72
F-1000000000000000.0
sg73
F-1000000000000000.0
sg74
I00
sg75
I00
sbsg76
I01
sg77
g78
sg79
I00
sg80
I01
sg81
g91
sg83
g91
sg85
I00
sg86
I00
sg87
I00
sg88
g1125
sg90
g84
sg92
I01
sg93
I00
sg94
S'Mean                   =  29.485890\nStd. deviation         =   0.495439\nStd. error of the mean =   0.123860\nPk-Pk                  =   1.540405\n\nMean                   =  12.357272\nStd. deviation         =   0.762206\nStd. error of the mean =   0.190551\nPk-Pk                  =   2.490069\n\n'
p1281
sg96
g84
sg97
Fnan
sg98
Vnumpy.log( CPP:nfit )
p1282
sg100
Vnumpy.log( CPP:peakd )
p1283
sg102
g84
sg103
F2.0
sg104
g1129
sg106
Fnan
sg60
V1000a0-MoreGR
p1284
sg108
S'#\n# Column index\n#  0  SEQ:shot\n#  1  numpy.log( CPP:peakd )\n#  2  numpy.log( CPP:nfit )\n\n3925\t\t30.5668\t\t13.8884\t\t\n3926\t\t30.3242\t\t13.5750\t\t\n3927\t\t30.1552\t\t13.3755\t\t\n3928\t\t30.0092\t\t13.1362\t\t\n3929\t\t29.8430\t\t12.9179\t\t\n3930\t\t29.7223\t\t12.7372\t\t\n3931\t\t29.3936\t\t12.4876\t\t\n3932\t\t29.3002\t\t12.2904\t\t\n3933\t\t29.2353\t\t12.1483\t\t\n3934\t\t29.1939\t\t12.0121\t\t\n3935\t\t29.1812\t\t11.8746\t\t\n3936\t\t29.0776\t\t11.8437\t\t\n3937\t\t29.0658\t\t11.7159\t\t\n3938\t\t29.0865\t\t11.6412\t\t\n3939\t\t29.0385\t\t11.4635\t\t\n3940\t\t29.0405\t\t11.5677\t\t\n3941\t\t29.0264\t\t11.3984\t\t'
p1285
sg110
g111
sg112
I00
sg113
V3925:3941
p1286
sg115
g84
sg117
F10.0
sg118
I01
sg119
Fnan
sg120
g121
sg122
I00
sbag4
(g14
tp1287
Rp1288
(dp1289
g9
g10
sg18
g1136
sg20
Fnan
sg21
g4
(g22
tp1290
Rp1291
(dp1292
g26
g402
sg9
g10
sg42
g413
sg49
g50
sg51
F1000000000000000.0
sg52
F1000000000000000.0
sg53
g0
(g1
g2
(lp1293
I01
aI01
aI01
aI01
aI01
atp1294
Rp1295
(dp1296
g58
S'fit_mask_items'
p1297
sg60
g53
sbsg61
g424
sg68
g428
sg70
g429
sg72
F-1000000000000000.0
sg73
F-1000000000000000.0
sg74
I00
sg75
I00
sbsg76
I01
sg77
g78
sg79
I00
sg80
I01
sg81
g91
sg83
g91
sg85
I00
sg86
I00
sg87
I00
sg88
g1145
sg90
g84
sg92
I01
sg93
I00
sg94
S'Mean                   =  29.183553\nStd. deviation         =   0.783458\nStd. error of the mean =   0.163362\nPk-Pk                  =   2.270309\n\nMean                   =  11.739267\nStd. deviation         =   0.967182\nStd. error of the mean =   0.201671\nPk-Pk                  =   3.015371\n\n'
p1298
sg96
g84
sg97
Fnan
sg98
Vnumpy.log( CPP:nfit )
p1299
sg100
Vnumpy.log( CPP:peakd )
p1300
sg102
g84
sg103
F1.5
sg104
g1147
sg106
Fnan
sg60
g1148
sg108
S'#\n# Column index\n#  0  SEQ:shot\n#  1  numpy.log( CPP:peakd )\n#  2  numpy.log( CPP:nfit )\n\n3947\t\t30.5579\t\t13.6469\t\t\n3948\t\t30.5908\t\t13.5419\t\t\n3949\t\t30.4943\t\t13.3263\t\t\n3950\t\t30.3543\t\t13.1453\t\t\n3951\t\t30.2554\t\t12.8546\t\t\n3952\t\t30.0870\t\t12.7576\t\t\n3953\t\t29.6142\t\t12.2521\t\t\n3954\t\t29.4420\t\t12.1602\t\t\n3955\t\t29.3227\t\t11.9005\t\t\n3956\t\t29.1567\t\t11.7080\t\t\n3957\t\t29.0895\t\t11.5975\t\t\n3958\t\t29.0163\t\t11.4538\t\t\n3959\t\t28.8868\t\t11.3489\t\t\n3960\t\t28.8370\t\t11.4428\t\t\n3962\t\t28.8197\t\t11.1544\t\t\n3964\t\t28.5671\t\t11.0603\t\t\n3965\t\t28.5529\t\t10.9805\t\t\n3966\t\t28.4742\t\t10.9032\t\t\n3967\t\t28.4687\t\t10.8345\t\t\n3968\t\t28.3948\t\t10.8345\t\t\n3969\t\t28.3313\t\t10.8005\t\t\n3970\t\t28.3812\t\t10.7608\t\t\n3971\t\t28.3900\t\t10.6457\t\t\n3972\t\t28.3205\t\t10.6315\t\t'
p1301
sg110
g1150
sg112
I00
sg113
g1151
sg115
g84
sg117
F8.0
sg118
I01
sg119
Fnan
sg120
g121
sg122
I00
sbag4
(g14
tp1302
Rp1303
(dp1304
g9
g10
sg18
g1100
sg20
Fnan
sg21
g4
(g22
tp1305
Rp1306
(dp1307
g26
g402
sg9
g10
sg42
g413
sg49
g50
sg51
F1000000000000000.0
sg52
F1000000000000000.0
sg53
g0
(g1
g2
(lp1308
I01
aI01
aI01
aI01
aI01
atp1309
Rp1310
(dp1311
g58
S'fit_mask_items'
p1312
sg60
g53
sbsg61
g424
sg68
g428
sg70
g429
sg72
F-1000000000000000.0
sg73
F-1000000000000000.0
sg74
I00
sg75
I00
sbsg76
I01
sg77
g78
sg79
I00
sg80
I01
sg81
g91
sg83
g91
sg85
I00
sg86
I00
sg87
I00
sg88
g1125
sg90
g91
sg92
I01
sg93
I00
sg94
S'Mean                   =  28.658450\nStd. deviation         =   0.209723\nStd. error of the mean =   0.049432\nPk-Pk                  =   0.736613\n\nMean                   =  11.261900\nStd. deviation         =   0.437809\nStd. error of the mean =   0.103193\nPk-Pk                  =   1.624639\n\n'
p1313
sg96
g84
sg97
Fnan
sg98
g1282
sg100
g1283
sg102
g84
sg103
F2.0
sg104
Vgold
p1314
sg106
Fnan
sg60
V1000a0-MoreGR
p1315
sg108
S'#\n# Column index\n#  0  SEQ:shot\n#  1  numpy.log( CPP:peakd )\n#  2  numpy.log( CPP:nfit )\n\n3974\t\t29.1017\t\t12.2954\t\t\n3975\t\t29.0134\t\t12.0505\t\t\n3976\t\t28.9140\t\t11.8387\t\t\n3977\t\t28.8434\t\t11.6263\t\t\n3978\t\t28.7959\t\t11.4892\t\t\n3979\t\t28.7406\t\t11.4288\t\t\n3980\t\t28.7891\t\t11.4273\t\t\n3981\t\t28.7351\t\t11.3233\t\t\n3982\t\t28.6931\t\t11.2913\t\t\n3983\t\t28.6128\t\t11.1517\t\t\n3984\t\t28.5609\t\t11.0558\t\t\n3985\t\t28.5844\t\t11.1053\t\t\n3986\t\t28.5452\t\t10.9578\t\t\n3987\t\t28.5188\t\t10.9397\t\t\n3988\t\t28.4871\t\t10.8718\t\t\n3989\t\t28.4518\t\t10.8123\t\t\n3990\t\t28.3900\t\t10.8705\t\t\n3991\t\t28.3651\t\t10.6708\t\t\n3992\t\t28.3681\t\t10.7695\t\t'
p1316
sg110
g111
sg112
I00
sg113
V3974:3992
p1317
sg115
g91
sg117
F10.0
sg118
I01
sg119
Fnan
sg120
g121
sg122
I00
sbatp1318
Rp1319
(dp1320
g58
S'datasets_items'
p1321
sg60
g12
sbsg80
I00
sg81
VN_vs_n
p1322
sg359
I1
sg360
g1182
sg361
g0
(g1
g2
(lp1323
I1
aI2
aI3
aI4
aI5
aI6
aI7
atp1324
Rp1325
(dp1326
g58
S'grids_items'
p1327
sg60
g361
sbsg367
I1
sg60
VN_vs_n
p1328
sbag4
(g5
tp1329
Rp1330
(dp1331
g9
g10
sg11
I0
sg12
g0
(g1
g2
(lp1332
g4
(g14
tp1333
Rp1334
(dp1335
g9
g10
sg18
g126
sg20
Fnan
sg21
g4
(g22
tp1336
Rp1337
(dp1338
g26
g402
sg9
g10
sg42
g413
sg49
g50
sg51
F1000000000000000.0
sg52
F1000000000000000.0
sg53
g0
(g1
g2
(lp1339
I01
aI01
aI01
aI01
aI01
atp1340
Rp1341
(dp1342
g58
S'fit_mask_items'
p1343
sg60
g53
sbsg61
g424
sg68
g1192
sg70
g1193
sg72
F-1000000000000000.0
sg73
F-1000000000000000.0
sg74
I00
sg75
I00
sbsg76
I01
sg77
g78
sg79
I00
sg80
I01
sg81
g91
sg83
g84
sg85
I00
sg86
I00
sg87
I00
sg88
g909
sg90
Vln( number) - blue fit
p1344
sg92
I00
sg93
I01
sg94
S'Mean                   =  29.513776\nStd. deviation         =   0.496173\nStd. error of the mean =   0.124043\nPk-Pk                  =   1.573146\n\nMean                   =   0.209765\nStd. deviation         =   0.142368\nStd. error of the mean =   0.035592\nPk-Pk                  =   0.503021\n\n'
p1345
sg96
g84
sg97
Fnan
sg98
Vnumpy.log( CPP:nfit ) - ( 1.37 * numpy.log( CPP:peakd ) - 28.31 )
p1346
sg100
g1197
sg102
g84
sg103
F1.0
sg104
g126
sg106
Fnan
sg60
g915
sg108
S'#\n# Column index\n#  0  SEQ:shot\n#  1  numpy.log( CPP:peakd )\n#  2  numpy.log( CPP:nfit ) - ( 1.37 * numpy.log( CPP:peakd ) - 28.31 )\n\n3845\t\t30.5076\t\t0.2421\t\t\n3846\t\t30.3457\t\t0.2714\t\t\n3847\t\t30.1866\t\t0.3705\t\t\n3848\t\t30.0786\t\t0.2313\t\t\n3849\t\t29.9092\t\t0.2633\t\t\n3850\t\t29.8024\t\t0.2627\t\t\n3851\t\t29.4708\t\t0.4245\t\t\n3852\t\t29.3283\t\t0.4122\t\t\n3853\t\t29.2709\t\t0.2782\t\t\n3854\t\t29.1773\t\t0.3407\t\t\n3855\t\t29.1600\t\t0.2015\t\t\n3856\t\t29.2191\t\t0.0046\t\t\n3857\t\t29.1456\t\t0.0356\t\t\n3858\t\t29.0857\t\t0.0785\t\t\n3859\t\t29.0610\t\t0.0523\t\t\n3860\t\t29.0510\t\t-0.0785\t\t\n3861\t\t28.9344\t\t0.1751\t\t'
p1347
sg110
g111
sg112
I00
sg113
g917
sg115
Vln( peak density )
p1348
sg117
F10.0
sg118
I01
sg119
Fnan
sg120
g121
sg122
I00
sbag4
(g14
tp1349
Rp1350
(dp1351
g9
g10
sg18
g922
sg20
Fnan
sg21
g4
(g22
tp1352
Rp1353
(dp1354
g26
g402
sg9
g10
sg42
g413
sg49
g50
sg51
F1000000000000000.0
sg52
F1000000000000000.0
sg53
g0
(g1
g2
(lp1355
I01
aI01
aI01
aI01
aI01
atp1356
Rp1357
(dp1358
g58
S'fit_mask_items'
p1359
sg60
g53
sbsg61
g424
sg68
g428
sg70
g429
sg72
F-1000000000000000.0
sg73
F-1000000000000000.0
sg74
I00
sg75
I00
sbsg76
I01
sg77
g78
sg79
I00
sg80
I01
sg81
g91
sg83
g91
sg85
I00
sg86
I00
sg87
I00
sg88
g931
sg90
g84
sg92
I01
sg93
I01
sg94
S'Mean                   =  30.618394\nStd. deviation         =   0.027204\nStd. error of the mean =   0.007024\nPk-Pk                  =   0.093351\n\nMean                   =   0.116758\nStd. deviation         =   0.107225\nStd. error of the mean =   0.027685\nPk-Pk                  =   0.310077\n\n'
p1360
sg96
g84
sg97
Fnan
sg98
Vnumpy.log( CPP:nfit ) - ( 1.37 * numpy.log( CPP:peakd ) - 28.31 )
p1361
sg100
g1213
sg102
g84
sg103
F1.0
sg104
g922
sg106
Fnan
sg60
g936
sg108
S'#\n# Column index\n#  0  SEQ:shot\n#  1  numpy.log( CPP:peakd )\n#  2  numpy.log( CPP:nfit ) - ( 1.37 * numpy.log( CPP:peakd ) - 28.31 )\n\n3862\t\t30.6693\t\t0.2118\t\t\n3864\t\t30.6419\t\t0.2636\t\t\n3865\t\t30.6556\t\t0.2321\t\t\n3866\t\t30.6405\t\t0.2355\t\t\n3867\t\t30.6171\t\t0.1912\t\t\n3868\t\t30.6334\t\t0.2489\t\t\n3869\t\t30.5942\t\t0.2470\t\t\n3870\t\t30.5759\t\t0.0585\t\t\n3871\t\t30.6119\t\t0.0837\t\t\n3872\t\t30.6291\t\t0.0383\t\t\n3873\t\t30.6290\t\t0.0405\t\t\n3874\t\t30.5796\t\t0.0466\t\t\n3875\t\t30.5933\t\t0.0293\t\t\n3876\t\t30.6073\t\t-0.0008\t\t\n3877\t\t30.6352\t\t-0.0116\t\t\n3878\t\t30.5809\t\t-0.0465\t\t'
p1362
sg110
g111
sg112
I00
sg113
g938
sg115
g84
sg117
F10.0
sg118
I01
sg119
Fnan
sg120
g121
sg122
I00
sbag4
(g14
tp1363
Rp1364
(dp1365
g9
g10
sg18
g942
sg20
Fnan
sg21
g4
(g22
tp1366
Rp1367
(dp1368
g26
g402
sg9
g10
sg42
g413
sg49
g50
sg51
F1000000000000000.0
sg52
F1000000000000000.0
sg53
g0
(g1
g2
(lp1369
I01
aI01
aI01
aI01
aI01
atp1370
Rp1371
(dp1372
g58
S'fit_mask_items'
p1373
sg60
g53
sbsg61
g424
sg68
g428
sg70
g429
sg72
F-1000000000000000.0
sg73
F-1000000000000000.0
sg74
I00
sg75
I00
sbsg76
I01
sg77
g78
sg79
I00
sg80
I01
sg81
g91
sg83
g91
sg85
I00
sg86
I00
sg87
I00
sg88
g951
sg90
g84
sg92
I01
sg93
I01
sg94
S'Mean                   =  30.019190\nStd. deviation         =   0.219842\nStd. error of the mean =   0.037160\nPk-Pk                  =   0.865292\n\nMean                   =  -0.135704\nStd. deviation         =   0.224073\nStd. error of the mean =   0.037875\nPk-Pk                  =   0.721404\n\n'
p1374
sg96
g84
sg97
Fnan
sg98
Vnumpy.log( CPP:nfit ) - ( 1.37 * numpy.log( CPP:peakd ) - 28.31 )
p1375
sg100
g1228
sg102
g84
sg103
F1.0
sg104
g942
sg106
Fnan
sg60
g956
sg108
S'#\n# Column index\n#  0  SEQ:shot\n#  1  numpy.log( CPP:peakd )\n#  2  numpy.log( CPP:nfit ) - ( 1.37 * numpy.log( CPP:peakd ) - 28.31 )\n\n3879\t\t30.5839\t\t0.3017\t\t\n3880\t\t30.4753\t\t0.3111\t\t\n3881\t\t30.4979\t\t0.1192\t\t\n3882\t\t30.4288\t\t0.0931\t\t\n3883\t\t30.3199\t\t0.1951\t\t\n3884\t\t30.3050\t\t0.0796\t\t\n3885\t\t30.2281\t\t0.2376\t\t\n3886\t\t30.1307\t\t0.1911\t\t\n3887\t\t30.0994\t\t0.1564\t\t\n3888\t\t30.0798\t\t0.0653\t\t\n3889\t\t30.0273\t\t0.0121\t\t\n3890\t\t30.0397\t\t-0.0373\t\t\n3891\t\t30.0428\t\t-0.1008\t\t\n3892\t\t29.9908\t\t-0.0987\t\t\n3893\t\t29.9912\t\t-0.0670\t\t\n3894\t\t29.9689\t\t-0.0750\t\t\n3895\t\t30.0096\t\t-0.1910\t\t\n3896\t\t30.0178\t\t-0.2169\t\t\n3897\t\t29.9684\t\t-0.2457\t\t\n3898\t\t29.9809\t\t-0.1912\t\t\n3899\t\t29.9508\t\t-0.2795\t\t\n3900\t\t29.9338\t\t-0.2583\t\t\n3901\t\t29.8733\t\t-0.2911\t\t\n3902\t\t29.9300\t\t-0.4062\t\t\n3903\t\t29.8479\t\t-0.3209\t\t\n3904\t\t29.8402\t\t-0.3714\t\t\n4012\t\t29.9007\t\t-0.2237\t\t\n4013\t\t29.9009\t\t-0.3675\t\t\n4014\t\t29.8756\t\t-0.3260\t\t\n4015\t\t29.8482\t\t-0.3362\t\t\n4016\t\t29.8129\t\t-0.3537\t\t\n4017\t\t29.7997\t\t-0.3410\t\t\n4018\t\t29.7776\t\t-0.3631\t\t\n4019\t\t29.7624\t\t-0.3855\t\t\n4020\t\t29.7318\t\t-0.3894\t\t\n4021\t\t29.7187\t\t-0.4103\t\t'
p1376
sg110
g111
sg112
I00
sg113
V3879:3904,4012:4021
p1377
sg115
g84
sg117
F10.0
sg118
I01
sg119
Fnan
sg120
g121
sg122
I00
sbag4
(g14
tp1378
Rp1379
(dp1380
g9
g10
sg18
g1100
sg20
Fnan
sg21
g4
(g22
tp1381
Rp1382
(dp1383
g26
g27
(g28
(I0
tp1384
g30
tp1385
Rp1386
(I1
(I5
I1
tp1387
g1243
I00
S'5GL\x96\x04\xb5c\xbf\x8al\x9b\xdc\xdf[\x9c?\xfd(\\\x8f\xc2\xf5\x17@\x00\x00\x00\x00\x00\xdb\xfa@\x00\x00\x00\x00\x00\x00\x00\x00'
p1388
tp1389
bsg9
g10
sg42
g27
(g28
(I0
tp1390
g30
tp1391
Rp1392
(I1
(I5
I1
tp1393
g1243
I00
S'\x18c\x13\xbe\xd0\xb7\xa4?\xb1\xb8\x83\xf2\xbf\xc0\xf2?\x00\x00\x00\x00\x00\x00\x0c=\x00\x00\x00\x00\x00\x00\x00\x00\x00\x00\x00\x00\x00\x00\x00\x00'
p1394
tp1395
bsg49
g50
sg51
F1000000000000000.0
sg52
F1000000000000000.0
sg53
g0
(g1
g2
(lp1396
I01
aI01
aI01
aI01
aI01
atp1397
Rp1398
(dp1399
g58
S'fit_mask_items'
p1400
sg60
g53
sbsg61
g1261
sg68
g1192
sg70
g1193
sg72
F-1000000000000000.0
sg73
F-1000000000000000.0
sg74
I01
sg75
I01
sbsg76
I01
sg77
g78
sg79
I00
sg80
I01
sg81
g91
sg83
g91
sg85
I00
sg86
I00
sg87
I00
sg88
g951
sg90
g84
sg92
I01
sg93
I00
sg94
S'Mean                   =  28.950539\nStd. deviation         =   0.720858\nStd. error of the mean =   0.121847\nPk-Pk                  =   2.870514\n\nMean                   =  -0.040532\nStd. deviation         =   0.083505\nStd. error of the mean =   0.014115\nPk-Pk                  =   0.427220\n\n'
p1401
sg96
g84
sg97
Fnan
sg98
Vnumpy.log( CPP:nfit ) - ( 1.37 * numpy.log( CPP:peakd ) - 28.31 )
p1402
sg100
Vnumpy.log( CPP:peakd )  
p1403
sg102
g84
sg103
F2.0
sg104
g1110
sg106
Fnan
sg60
g1111
sg108
S'#\n# Column index\n#  0  SEQ:shot\n#  1  numpy.log( CPP:peakd )  \n#  2  numpy.log( CPP:nfit ) - ( 1.37 * numpy.log( CPP:peakd ) - 28.31 )\n\n3907\t\t31.0263\t\t-0.0565\t\t\n3908\t\t30.6207\t\t0.0092\t\t\n3909\t\t30.4061\t\t-0.0905\t\t\n3910\t\t30.1882\t\t-0.0979\t\t\n3911\t\t30.0044\t\t-0.1289\t\t\n3912\t\t29.8970\t\t-0.2074\t\t\n3913\t\t29.4552\t\t0.0374\t\t\n3914\t\t29.2738\t\t0.0657\t\t\n3915\t\t29.1689\t\t-0.0629\t\t\n3916\t\t29.0691\t\t-0.0520\t\t\n3917\t\t28.9756\t\t-0.0384\t\t\n3918\t\t28.8651\t\t0.0672\t\t\n3919\t\t28.8751\t\t-0.0971\t\t\n3920\t\t28.8005\t\t-0.0813\t\t\n3921\t\t28.6992\t\t-0.0240\t\t\n3922\t\t28.6104\t\t0.0373\t\t\n3923\t\t28.6942\t\t-0.0353\t\t\n3993\t\t29.2519\t\t0.2198\t\t\n3994\t\t28.9602\t\t0.1441\t\t\n3995\t\t28.8789\t\t-0.0303\t\t\n3996\t\t28.7199\t\t0.0281\t\t\n3997\t\t28.6752\t\t-0.0580\t\t\n3998\t\t28.5915\t\t-0.0768\t\t\n3999\t\t28.5352\t\t-0.0503\t\t\n4000\t\t28.4655\t\t-0.0041\t\t\n4001\t\t28.5045\t\t-0.1503\t\t\n4002\t\t28.3768\t\t-0.0219\t\t\n4003\t\t28.3802\t\t-0.1001\t\t\n4004\t\t28.4045\t\t-0.1250\t\t\n4005\t\t28.3696\t\t-0.0977\t\t\n4006\t\t28.3050\t\t-0.1554\t\t\n4007\t\t28.2230\t\t0.0245\t\t\n4008\t\t28.3279\t\t-0.0962\t\t\n4009\t\t28.2013\t\t-0.0076\t\t\n4010\t\t28.1558\t\t-0.0176\t\t\n4011\t\t28.2631\t\t-0.1292\t\t'
p1404
sg110
g111
sg112
I00
sg113
g1269
sg115
g84
sg117
F10.0
sg118
I01
sg119
Fnan
sg120
g121
sg122
I00
sbag4
(g14
tp1405
Rp1406
(dp1407
g9
g10
sg18
g1100
sg20
Fnan
sg21
g4
(g22
tp1408
Rp1409
(dp1410
g26
g402
sg9
g10
sg42
g413
sg49
g50
sg51
F1000000000000000.0
sg52
F1000000000000000.0
sg53
g0
(g1
g2
(lp1411
I01
aI01
aI01
aI01
aI01
atp1412
Rp1413
(dp1414
g58
S'fit_mask_items'
p1415
sg60
g53
sbsg61
g424
sg68
g428
sg70
g429
sg72
F-1000000000000000.0
sg73
F-1000000000000000.0
sg74
I00
sg75
I00
sbsg76
I01
sg77
g78
sg79
I00
sg80
I01
sg81
g91
sg83
g91
sg85
I00
sg86
I00
sg87
I00
sg88
g1125
sg90
g84
sg92
I01
sg93
I00
sg94
S'Mean                   =  29.485890\nStd. deviation         =   0.495439\nStd. error of the mean =   0.123860\nPk-Pk                  =   1.540405\n\nMean                   =   0.271603\nStd. deviation         =   0.155410\nStd. error of the mean =   0.038852\nPk-Pk                  =   0.586306\n\n'
p1416
sg96
g84
sg97
Fnan
sg98
Vnumpy.log( CPP:nfit ) - ( 1.37 * numpy.log( CPP:peakd ) - 28.31 )
p1417
sg100
g1283
sg102
g84
sg103
F2.0
sg104
g1129
sg106
Fnan
sg60
g1130
sg108
S'#\n# Column index\n#  0  SEQ:shot\n#  1  numpy.log( CPP:peakd )\n#  2  numpy.log( CPP:nfit ) - ( 1.37 * numpy.log( CPP:peakd ) - 28.31 )\n\n3925\t\t30.5668\t\t0.3218\t\t\n3926\t\t30.3242\t\t0.3408\t\t\n3927\t\t30.1552\t\t0.3728\t\t\n3928\t\t30.0092\t\t0.3336\t\t\n3929\t\t29.8430\t\t0.3430\t\t\n3930\t\t29.7223\t\t0.3277\t\t\n3931\t\t29.3936\t\t0.5284\t\t\n3932\t\t29.3002\t\t0.4592\t\t\n3933\t\t29.2353\t\t0.4059\t\t\n3934\t\t29.1939\t\t0.3265\t\t\n3935\t\t29.1812\t\t0.2064\t\t\n3936\t\t29.0776\t\t0.3174\t\t\n3937\t\t29.0658\t\t0.2057\t\t\n3938\t\t29.0865\t\t0.1028\t\t\n3939\t\t29.0385\t\t-0.0091\t\t\n3940\t\t29.0405\t\t0.0922\t\t\n3941\t\t29.0264\t\t-0.0579\t\t'
p1418
sg110
g111
sg112
I00
sg113
V3925:3941
p1419
sg115
g84
sg117
F10.0
sg118
I01
sg119
Fnan
sg120
g121
sg122
I00
sbag4
(g14
tp1420
Rp1421
(dp1422
g9
g10
sg18
g1136
sg20
Fnan
sg21
g4
(g22
tp1423
Rp1424
(dp1425
g26
g402
sg9
g10
sg42
g413
sg49
g50
sg51
F1000000000000000.0
sg52
F1000000000000000.0
sg53
g0
(g1
g2
(lp1426
I01
aI01
aI01
aI01
aI01
atp1427
Rp1428
(dp1429
g58
S'fit_mask_items'
p1430
sg60
g53
sbsg61
g424
sg68
g428
sg70
g429
sg72
F-1000000000000000.0
sg73
F-1000000000000000.0
sg74
I00
sg75
I00
sbsg76
I01
sg77
g78
sg79
I00
sg80
I01
sg81
g91
sg83
g91
sg85
I00
sg86
I00
sg87
I00
sg88
g1145
sg90
g84
sg92
I01
sg93
I00
sg94
S'Mean                   =  29.183553\nStd. deviation         =   0.783458\nStd. error of the mean =   0.163362\nPk-Pk                  =   2.270309\n\nMean                   =   0.067799\nStd. deviation         =   0.143180\nStd. error of the mean =   0.029855\nPk-Pk                  =   0.582031\n\n'
p1431
sg96
g84
sg97
Fnan
sg98
Vnumpy.log( CPP:nfit ) - ( 1.37 * numpy.log( CPP:peakd ) - 28.31 )
p1432
sg100
g1300
sg102
g84
sg103
F1.5
sg104
g1147
sg106
Fnan
sg60
g1148
sg108
S'#\n# Column index\n#  0  SEQ:shot\n#  1  numpy.log( CPP:peakd )\n#  2  numpy.log( CPP:nfit ) - ( 1.37 * numpy.log( CPP:peakd ) - 28.31 )\n\n3947\t\t30.5579\t\t0.0926\t\t\n3948\t\t30.5908\t\t-0.0575\t\t\n3949\t\t30.4943\t\t-0.1409\t\t\n3950\t\t30.3543\t\t-0.1301\t\t\n3951\t\t30.2554\t\t-0.2854\t\t\n3952\t\t30.0870\t\t-0.1516\t\t\n3953\t\t29.6142\t\t-0.0093\t\t\n3954\t\t29.4420\t\t0.1347\t\t\n3955\t\t29.3227\t\t0.0384\t\t\n3956\t\t29.1567\t\t0.0733\t\t\n3957\t\t29.0895\t\t0.0549\t\t\n3958\t\t29.0163\t\t0.0115\t\t\n3959\t\t28.8868\t\t0.0840\t\t\n3960\t\t28.8370\t\t0.2462\t\t\n3962\t\t28.8197\t\t-0.0186\t\t\n3964\t\t28.5671\t\t0.2333\t\t\n3965\t\t28.5529\t\t0.1731\t\t\n3966\t\t28.4742\t\t0.2035\t\t\n3967\t\t28.4687\t\t0.1424\t\t\n3968\t\t28.3948\t\t0.2436\t\t\n3969\t\t28.3313\t\t0.2967\t\t\n3970\t\t28.3812\t\t0.1885\t\t\n3971\t\t28.3900\t\t0.0614\t\t\n3972\t\t28.3205\t\t0.1425\t\t'
p1433
sg110
g1150
sg112
I00
sg113
g1151
sg115
g84
sg117
F8.0
sg118
I01
sg119
Fnan
sg120
g121
sg122
I00
sbag4
(g14
tp1434
Rp1435
(dp1436
g9
g10
sg18
g1100
sg20
Fnan
sg21
g4
(g22
tp1437
Rp1438
(dp1439
g26
g402
sg9
g10
sg42
g413
sg49
g50
sg51
F1000000000000000.0
sg52
F1000000000000000.0
sg53
g0
(g1
g2
(lp1440
I01
aI01
aI01
aI01
aI01
atp1441
Rp1442
(dp1443
g58
S'fit_mask_items'
p1444
sg60
g53
sbsg61
g424
sg68
g428
sg70
g429
sg72
F-1000000000000000.0
sg73
F-1000000000000000.0
sg74
I00
sg75
I00
sbsg76
I01
sg77
g78
sg79
I00
sg80
I01
sg81
g91
sg83
g91
sg85
I00
sg86
I00
sg87
I00
sg88
g1125
sg90
g91
sg92
I01
sg93
I00
sg94
S'Mean                   =  28.658450\nStd. deviation         =   0.209723\nStd. error of the mean =   0.049432\nPk-Pk                  =   0.736613\n\nMean                   =   0.309823\nStd. deviation         =   0.160710\nStd. error of the mean =   0.037880\nPk-Pk                  =   0.615480\n\n'
p1445
sg96
g84
sg97
Fnan
sg98
g1417
sg100
g1283
sg102
g84
sg103
F2.0
sg104
Vgold
p1446
sg106
Fnan
sg60
V1000a0-MoreGR
p1447
sg108
S'#\n# Column index\n#  0  SEQ:shot\n#  1  numpy.log( CPP:peakd )\n#  2  numpy.log( CPP:nfit ) - ( 1.37 * numpy.log( CPP:peakd ) - 28.31 )\n\n3974\t\t29.1017\t\t0.7360\t\t\n3975\t\t29.0134\t\t0.6121\t\t\n3976\t\t28.9140\t\t0.5365\t\t\n3977\t\t28.8434\t\t0.4209\t\t\n3978\t\t28.7959\t\t0.3488\t\t\n3979\t\t28.7406\t\t0.3642\t\t\n3980\t\t28.7891\t\t0.2962\t\t\n3981\t\t28.7351\t\t0.2662\t\t\n3982\t\t28.6931\t\t0.2917\t\t\n3983\t\t28.6128\t\t0.2622\t\t\n3984\t\t28.5609\t\t0.2373\t\t\n3985\t\t28.5844\t\t0.2547\t\t\n3986\t\t28.5452\t\t0.1610\t\t\n3987\t\t28.5188\t\t0.1789\t\t\n3988\t\t28.4871\t\t0.1545\t\t\n3989\t\t28.4518\t\t0.1432\t\t\n3990\t\t28.3900\t\t0.2863\t\t\n3991\t\t28.3651\t\t0.1206\t\t\n3992\t\t28.3681\t\t0.2152\t\t'
p1448
sg110
g111
sg112
I00
sg113
V3974:3992
p1449
sg115
g91
sg117
F10.0
sg118
I01
sg119
Fnan
sg120
g121
sg122
I00
sbatp1450
Rp1451
(dp1452
g58
S'datasets_items'
p1453
sg60
g12
sbsg80
I00
sg81
VInsulators
p1454
sg359
I1
sg360
g1334
sg361
g0
(g1
g2
(lp1455
I1
aI2
aI3
aI4
aI5
aI6
aI7
atp1456
Rp1457
(dp1458
g58
S'grids_items'
p1459
sg60
g361
sbsg367
I1
sg60
VInsulators
p1460
sbatp1461
Rp1462
(dp1463
g58
S'subplots_items'
p1464
sg60
S'subplots'
p1465
sb.