ccopy_reg
_reconstructor
p0
(ctraits.trait_handlers
TraitListObject
p1
c__builtin__
list
p2
(lp3
ctraits.traits
__newobj__
p4
(c__main__
SubPlot
p5
tp6
Rp7
(dp8
S'__traits_version__'
p9
S'4.0.0'
p10
sS'index'
p11
I0
sS'datasets'
p12
g0
(g1
g2
(lp13
g4
(c__main__
DataSet
p14
tp15
Rp16
(dp17
g9
g10
sS'mfc'
p18
S'None'
p19
sS'Ymax'
p20
Fnan
sS'fit1'
p21
g4
(cfitlibrary
Fits
p22
tp23
Rp24
(dp25
S'a'
p26
cnumpy.core.multiarray
_reconstruct
p27
(cnumpy
ndarray
p28
(I0
tp29
S'b'
p30
tp31
Rp32
(I1
(I5
I1
tp33
cnumpy
dtype
p34
(S'f8'
p35
I0
I1
tp36
Rp37
(I3
S'<'
p38
NNNI-1
I-1
I0
tp39
bI00
S'\x00\x00\x00\x00\x00\x00\x00\x00\x00\x00\x00\x00\x00\x00\x00\x00\x00\x00\x00\x00\x00\x00\x00\x00\x00\x00\x00\x00\x00\x00\x00\x00\x00\x00\x00\x00\x00\x00\x00\x00'
p40
tp41
bsg9
g10
sS'ae'
p42
g27
(g28
(I0
tp43
g30
tp44
Rp45
(I1
(I5
I1
tp46
g37
I00
S'\x00\x00\x00\x00\x00\x00\x00\x00\x00\x00\x00\x00\x00\x00\x00\x00\x00\x00\x00\x00\x00\x00\x00\x00\x00\x00\x00\x00\x00\x00\x00\x00\x00\x00\x00\x00\x00\x00\x00\x00'
p47
tp48
bsS'column_labels'
p49
S'A0   |   Afit   |   Aerr   |   Fit Mask'
p50
sS'px0'
p51
Fnan
sS'xf'
p52
F1000000000000000.0
sS'yf'
p53
F1000000000000000.0
sS'fit_mask'
p54
g0
(g1
g2
(lp55
I01
aI01
aI01
aI01
aI01
atp56
Rp57
(dp58
S'name_items'
p59
S'fit_mask_items'
p60
sS'name'
p61
g54
sbsS'a0'
p62
g27
(g28
(I0
tp63
g30
tp64
Rp65
(I1
(I5
I1
tp66
g37
I00
S'\x00\x00\x00\x00\x00\x00\x00\x00\x00\x00\x00\x00\x00\x00\x00\x00\x00\x00\x00\x00\x00\x00\x00\x00\x00\x00\x00\x00\x00\x00\x00\x00\x00\x00\x00\x00\x00\x00\x00\x00'
p67
tp68
bsS'fitexpr'
p69
S'a[0]*sinc^2( 2*pi * (x-a[1]) * a[2]/2 ) +a[3]'
p70
sS'pxf'
p71
Fnan
sS'func'
p72
S'RabiResonance'
p73
sS'y0'
p74
F-1000000000000000.0
sS'x0'
p75
F-1000000000000000.0
sS'doplot'
p76
I00
sS'dofit'
p77
I00
sbsS'xticks'
p78
I01
sS'descr_label'
p79
S'Description:'
p80
sS'plotme'
p81
I00
sS'descr'
p82
S''
p83
sS'title'
p84
g83
sS'logscaleY'
p85
I00
sS'logscaleX'
p86
I00
sS'gridlines'
p87
I00
sS'datadir'
p88
S'/lab/data/app3/'
p89
sS'ylabel'
p90
g83
sS'X2'
p91
I00
sS'match'
p92
I01
sS'stat'
p93
g83
sS'Xmax'
p94
Fnan
sS'Y'
p95
S'CPP:nfit'
p96
sS'X'
p97
S'SEQ:Shot'
p98
sS'legend'
p99
g83
sS'me'
p100
F1.0
sS'c'
p101
S'green'
p102
sS'Ymin'
p103
Fnan
sg61
S'Data1'
p104
sS'raw_data'
p105
g83
sS'm'
p106
S'o'
p107
sS'ST'
p108
I00
sS'range'
p109
g83
sS'xlabel'
p110
g83
sS'ms'
p111
F10.0
sS'yticks'
p112
I01
sS'Xmin'
p113
Fnan
sS'title_label'
p114
S'Title:'
p115
sS'Y2'
p116
I00
sbatp117
Rp118
(dp119
g59
S'datasets_items'
p120
sg61
g12
sbsg81
I00
sg82
g83
sS'gridR'
p121
I1
sS'selected'
p122
NsS'grids'
p123
g0
(g1
g2
(lp124
I1
aI2
aI3
aI4
atp125
Rp126
(dp127
g59
S'grids_items'
p128
sg61
g123
sbsS'gridC'
p129
I1
sg61
S'SubPlot1'
p130
sbag4
(g5
tp131
Rp132
(dp133
g9
g10
sg11
I0
sg12
g0
(g1
g2
(lp134
g4
(g14
tp135
Rp136
(dp137
g9
g10
sg18
S'None'
p138
sg20
Fnan
sg21
g4
(g22
tp139
Rp140
(dp141
g26
g27
(g28
(I0
tp142
g30
tp143
Rp144
(I1
(I5
I1
tp145
g34
(S'f8'
p146
I0
I1
tp147
Rp148
(I3
S'<'
p149
NNNI-1
I-1
I0
tp150
bI00
S'\x00\x00\x00\x00\x00\x00\x00\x00\x00\x00\x00\x00\x00\x00\x00\x00\x00\x00\x00\x00\x00\x00\x00\x00\x00\x00\x00\x00\x00\x00\x00\x00\x00\x00\x00\x00\x00\x00\x00\x00'
p151
tp152
bsg9
g10
sg42
g27
(g28
(I0
tp153
g30
tp154
Rp155
(I1
(I5
I1
tp156
g148
I00
S'\x00\x00\x00\x00\x00\x00\x00\x00\x00\x00\x00\x00\x00\x00\x00\x00\x00\x00\x00\x00\x00\x00\x00\x00\x00\x00\x00\x00\x00\x00\x00\x00\x00\x00\x00\x00\x00\x00\x00\x00'
p157
tp158
bsg49
S'A0   |   Afit   |   Aerr   |   Fit Mask'
p159
sg51
Fnan
sg52
F1000000000000000.0
sg53
F1000000000000000.0
sg54
g0
(g1
g2
(lp160
I01
aI01
aI01
aI01
aI01
atp161
Rp162
(dp163
g59
S'fit_mask_items'
p164
sg61
g54
sbsg62
g27
(g28
(I0
tp165
g30
tp166
Rp167
(I1
(I5
I1
tp168
g148
I00
S'\x00\x00\x00\x00\x00\x00\x00\x00\x00\x00\x00\x00\x00\x00\x00\x00\x00\x00\x00\x00\x00\x00\x00\x00\x00\x00\x00\x00\x00\x00\x00\x00\x00\x00\x00\x00\x00\x00\x00\x00'
p169
tp170
bsg69
g70
sg71
Fnan
sg72
S'RabiResonance'
p171
sg74
F-1000000000000000.0
sg75
F-1000000000000000.0
sg76
I00
sg77
I00
sbsg78
I01
sg79
S'Description:'
p172
sg81
I00
sg82
g83
sg84
g83
sg85
I00
sg86
I00
sg87
I00
sg88
S'/lab/data/app3/'
p173
sg90
g83
sg91
I00
sg92
I01
sg93
g83
sg94
Fnan
sg95
S'CPP:nfit'
p174
sg97
S'SEQ:Shot'
p175
sg99
g83
sg100
F1.0
sg101
S'green'
p176
sg103
Fnan
sg61
S'Data1'
p177
sg105
g83
sg106
S'o'
p178
sg108
I00
sg109
g83
sg110
g83
sg111
F10.0
sg112
I01
sg113
Fnan
sg114
S'Title:'
p179
sg116
I00
sbatp180
Rp181
(dp182
g59
S'datasets_items'
p183
sg61
g12
sbsg81
I00
sg82
g83
sg121
I1
sg122
Nsg123
g0
(g1
g2
(lp184
I1
aI2
aI3
aI4
atp185
Rp186
(dp187
g59
S'grids_items'
p188
sg61
g123
sbsg129
I1
sg61
S'SubPlot1'
p189
sbag4
(g5
tp190
Rp191
(dp192
g9
g10
sg11
I3
sg12
g0
(g1
g2
(lp193
g4
(g14
tp194
Rp195
(dp196
g9
g10
sg18
S'green'
p197
sg20
Fnan
sg21
g4
(g22
tp198
Rp199
(dp200
g26
g27
(g28
(I0
tp201
g30
tp202
Rp203
(I1
(I5
I1
tp204
g34
(S'f8'
p205
I0
I1
tp206
Rp207
(I3
S'<'
p208
NNNI-1
I-1
I0
tp209
bI00
S'\x00\x00\x00\x00\x00\x00\x00\x00\x00\x00\x00\x00\x00\x00\x00\x00\x00\x00\x00\x00\x00\x00\x00\x00\x00\x00\x00\x00\x00\x00\x00\x00\x00\x00\x00\x00\x00\x00\x00\x00'
p210
tp211
bsg9
g10
sg42
g27
(g28
(I0
tp212
g30
tp213
Rp214
(I1
(I5
I1
tp215
g207
I00
S'\x00\x00\x00\x00\x00\x00\x00\x00\x00\x00\x00\x00\x00\x00\x00\x00\x00\x00\x00\x00\x00\x00\x00\x00\x00\x00\x00\x00\x00\x00\x00\x00\x00\x00\x00\x00\x00\x00\x00\x00'
p216
tp217
bsg49
S'A0   |   Afit   |   Aerr   |   Fit Mask'
p218
sg51
Fnan
sg52
F1000000000000000.0
sg53
F1000000000000000.0
sg54
g0
(g1
g2
(lp219
I01
aI01
aI01
aI01
aI01
atp220
Rp221
(dp222
g59
S'fit_mask_items'
p223
sg61
g54
sbsg62
g27
(g28
(I0
tp224
g30
tp225
Rp226
(I1
(I5
I1
tp227
g207
I00
S'\x00\x00\x00\x00\x00\x00\x00\x00\x00\x00\x00\x00\x00\x00\x00\x00\x00\x00\x00\x00\x00\x00\x00\x00\x00\x00\x00\x00\x00\x00\x00\x00\x00\x00\x00\x00\x00\x00\x00\x00'
p228
tp229
bsg69
g70
sg71
Fnan
sg72
S'RabiResonance'
p230
sg74
F-1000000000000000.0
sg75
F-1000000000000000.0
sg76
I00
sg77
I00
sbsg78
I01
sg79
S'Description:'
p231
sS'stats'
p232
I00
sg81
I01
sg82
Vvary uvdet image ODT
p233
sg84
g83
sg85
I00
sg86
I00
sg87
I00
sg88
V/lab/data/app3/2013/1305/130520/
p234
sg90
g83
sg91
I00
sg92
I01
sg93
S'Mean                   =  -3.000000\nStd. deviation         =   0.632456\nStd. error of the mean =   0.200000\nPk-Pk                  =   2.000000\n\nMean                   = 717041.454545\nStd. deviation         = 171527.351661\nStd. error of the mean = 54241.711226\nPk-Pk                  = 494286.000000\n\n'
p235
sS'leg'
p236
g83
sg94
Fnan
sg95
VCPP:nfit
p237
sg97
VUV:uvdet
p238
sg99
g83
sg100
F1.0
sg101
g197
sg103
Fnan
sg61
Vuvdet
p239
sg105
S'#\n# Column index\n#  0  SEQ:shot\n#  1  UV:uvdet\n#  2  CPP:nfit\n\n5141\t\t-4.0000\t\t5.289e+05\t\t\n5142\t\t-3.8000\t\t4.742e+05\t\t\n5143\t\t-3.6000\t\t7.373e+05\t\t\n5144\t\t-3.4000\t\t6.398e+05\t\t\n5145\t\t-3.2000\t\t7.839e+05\t\t\n5146\t\t-3.0000\t\t9.443e+05\t\t\n5147\t\t-2.8000\t\t9.274e+05\t\t\n5148\t\t-2.6000\t\t9.522e+05\t\t\n5149\t\t-2.4000\t\t7.157e+05\t\t\n5150\t\t-2.2000\t\t4.579e+05\t\t\n5151\t\t-2.0000\t\t7.258e+05\t\t\n5152\t\t'
p240
sg106
S'o'
p241
sg108
I00
sg109
V5141:5154
p242
sg110
g83
sg111
F10.0
sg112
I01
sg113
Fnan
sg114
S'Title:'
p243
sg116
I00
sbag4
(g14
tp244
Rp245
(dp246
g9
g10
sg18
g197
sg20
Fnan
sg21
g4
(g22
tp247
Rp248
(dp249
g26
g27
(g28
(I0
tp250
g30
tp251
Rp252
(I1
(I5
I1
tp253
g34
(S'f8'
p254
I0
I1
tp255
Rp256
(I3
S'<'
p257
NNNI-1
I-1
I0
tp258
bI00
S'\x92\x14\x80\xe4\x16w\x17B\xa6\x1d\x03\xe2\x02\x00\xe2?y\xe51#(\xae#@x\x81\xe4G\xcd*p\xc1\x00\x00\x00\x00\x00\x00\x00\x00'
p259
tp260
bsg9
g10
sg42
g27
(g28
(I0
tp261
g30
tp262
Rp263
(I1
(I5
I1
tp264
g256
I00
S'\xb9l\t\xdeyW\xe2A\xf5f\xfc\xbe<\xbf\xd7?\xb3\x8d[Vj\x88\xea?\xe5\xe7\xaaU\xee5yA\x00\x00\x00\x00\x00\x00\x00\x00'
p265
tp266
bsg49
g218
sg51
Fnan
sg52
F1000000000000000.0
sg53
F1000000000000000.0
sg54
g0
(g1
g2
(lp267
I01
aI01
aI01
aI01
aI01
atp268
Rp269
(dp270
g59
S'fit_mask_items'
p271
sg61
g54
sbsg62
g27
(g28
(I0
tp272
g30
tp273
Rp274
(I1
(I5
I1
tp275
g207
I00
S'\x00\x00\x00 _\xa0\x02B\x9a\x99\x99\x99\x99\x99\xb9?\x9a\x99\x99\x99\x99\x99\x17@\x00\x00\x00\x00\x00\x00\x00\x00\x00\x00\x00\x00\x00\x00\x00\x00'
p276
tp277
bsg69
S' a[0]*( 1 / ( pi * a[2] * ( 1 + (( x - a[1] ) / a[2])**2 ) ) ) + a[3] )'
p278
sg71
Fnan
sg72
S'Lorentzian'
p279
sg74
F-1000000000000000.0
sg75
F-1000000000000000.0
sg76
I01
sg77
I01
sbsg78
I01
sg79
g231
sg232
I00
sg81
I01
sg82
Vresonance of red lasers
p280
sg84
g83
sg85
I00
sg86
I00
sg87
I00
sg88
V/lab/data/app3/2013/1305/130521/
p281
sg90
g83
sg91
I00
sg92
I01
sg93
S'Mean                   = -12.500000\nStd. deviation         =  11.456439\nStd. error of the mean =   4.330127\nPk-Pk                  =  35.000000\n\nMean                   = 364429245.437500\nStd. deviation         = 268082727.903098\nStd. error of the mean = 101325746.974771\nPk-Pk                  = 711540211.700000\n\n'
p282
sg236
g83
sg94
Fnan
sg95
VANALYSIS:num
p283
sg97
VBASLER:imgdettrap
p284
sg99
g83
sg100
F1.0
sg101
g197
sg103
Fnan
sg61
VredRes
p285
sg105
S'#\n# Column index\n#  0  SEQ:shot\n#  1  BASLER:imgdettrap\n#  2  ANALYSIS:num\n\n3068\t\t-30.0000\t\t6.728e+07\t\t\n3069\t\t-25.0000\t\t9.321e+07\t\t\n3070\t\t-20.0000\t\t1.340e+08\t\t\n3071\t\t-15.0000\t\t2.009e+08\t\t\n3072\t\t-10.0000\t\t3.460e+08\t\t\n3073\t\t-5.0000\t\t6.273e+08\t\t\n3074\t\t0.0000\t\t7.788e+08\t\t\n3075\t\t5.0000\t\t6.680e+08\t\t'
p286
sg106
g241
sg108
I00
sg109
V5230:5240
p287
sg110
g83
sg111
F10.0
sg112
I01
sg113
Fnan
sg114
g243
sg116
I00
sbag4
(g14
tp288
Rp289
(dp290
g9
g10
sg18
g197
sg20
Fnan
sg21
g4
(g22
tp291
Rp292
(dp293
g26
g27
(g28
(I0
tp294
g30
tp295
Rp296
(I1
(I5
I1
tp297
g256
I00
S'\x8c\xd8$\x12\xd3\xb5aB\x07\x0c\xf4\xc3S\x84\xa3@.\xa8@\x9b\xb2\xb0p\xc0\x9e\x93\xba\xba!\x08PA\x00\x00\x00\x00\x00\x00\x00\x00'
p298
tp299
bsg9
g10
sg42
g27
(g28
(I0
tp300
g30
tp301
Rp302
(I1
(I5
I1
tp303
g256
I00
S'\x08J\xadn\xa4\x05wB\xde_\xa6\xc3\xf1\x02\xbe@\xf1/\xc4\xfc\x86\xd1\x92@k:\x9d\xeb\x1f\xf2nA\x00\x00\x00\x00\x00\x00\x00\x00'
p304
tp305
bsg49
g218
sg51
Fnan
sg52
F1000000000000000.0
sg53
F1000000000000000.0
sg54
g0
(g1
g2
(lp306
I01
aI01
aI01
aI01
aI01
atp307
Rp308
(dp309
g59
S'fit_mask_items'
p310
sg61
g54
sbsg62
g274
sg69
g278
sg71
Fnan
sg72
g279
sg74
F-1000000000000000.0
sg75
F-1000000000000000.0
sg76
I00
sg77
I00
sbsg78
I01
sg79
g231
sg232
I00
sg81
I00
sg82
Vnumber vs phcdet
p311
sg84
g83
sg85
I00
sg86
I00
sg87
I00
sg88
V/lab/data/app3/2013/1302/130228/
p312
sg90
g83
sg91
I00
sg92
I01
sg93
S'Mean                   = 685.000000\nStd. deviation         =  64.807407\nStd. error of the mean =  17.320508\nPk-Pk                  = 210.000000\n\nMean                   = 737914.226667\nStd. deviation         = 83029.203926\nStd. error of the mean = 22190.488156\nPk-Pk                  = 250183.100000\n\n'
p313
sg236
g83
sg94
Fnan
sg95
VCPP:nfit
p314
sg97
VANDOR:hfimg
p315
sg99
g83
sg100
F1.0
sg101
g197
sg103
Fnan
sg61
Vphcdet
p316
sg105
S'#\n# Column index\n#  0  SEQ:shot\n#  1  ANDOR:hfimg\n#  2  CPP:nfit\n\n3082\t\t580.0000\t\t8.538e+05\t\t\n3083\t\t595.0000\t\t8.365e+05\t\t\n3084\t\t610.0000\t\t6.301e+05\t\t\n3085\t\t625.0000\t\t6.793e+05\t\t\n3086\t\t640.0000\t\t6.036e+05\t\t\n3087\t\t655.0000\t\t7.668e+05\t\t\n3088\t\t670.0000\t\t7.084e+05\t\t\n3089\t\t685.0000\t\t7.985e+05\t\t\n3090\t\t700.0000\t\t8.004e+05\t\t\n3091\t\t715.0000\t\t7.119e+05\t\t\n3092\t\t730.0000\t\t6.134e+05\t\t\n3093\t\t745.0000\t\t8.387e+05\t\t\n3094\t\t760.0000\t\t7.529e+05\t\t\n3095\t\t775.0000\t\t6.621e+05\t\t\n3096\t\t790.0000\t\t8.125e+05\t\t'
p317
sg106
g241
sg108
I00
sg109
V3082:3096
p318
sg110
g83
sg111
F10.0
sg112
I01
sg113
Fnan
sg114
g243
sg116
I00
sbag4
(g14
tp319
Rp320
(dp321
g9
g10
sg18
g197
sg20
F100.0
sg21
g4
(g22
tp322
Rp323
(dp324
g26
g27
(g28
(I0
tp325
g30
tp326
Rp327
(I1
(I5
I1
tp328
g34
(S'f8'
p329
I0
I1
tp330
Rp331
(I3
S'<'
p332
NNNI-1
I-1
I0
tp333
bI00
S'FmQ\x0f\x1c\xe2*@\xfa\xb5\x05\x0e\x9b\xf9@@\x8d\x99\x99\x99\x99\x99\x17@\x00\x00\x00\x00\x00\x00\x00\x00\x00\x00\x00\x00\x00\x00\x00\x00'
p334
tp335
bsg9
g10
sg42
g27
(g28
(I0
tp336
g30
tp337
Rp338
(I1
(I5
I1
tp339
g331
I00
S'\xdc`\xa8\xd9.\x86\xfd?\xd3\xd2\xf7\x1c6+\xf0?\x00\x00\x00\x00\x00\x00\x1a=\x00\x00\x00\x00\x00\x00\x00\x00\x00\x00\x00\x00\x00\x00\x00\x00'
p340
tp341
bsg49
g218
sg51
Fnan
sg52
F1000000000000000.0
sg53
F1000000000000000.0
sg54
g0
(g1
g2
(lp342
I01
aI01
aI01
aI01
aI01
atp343
Rp344
(dp345
g59
S'fit_mask_items'
p346
sg61
g54
sbsg62
g274
sg69
S'(a[0]^2+2*kb/M*a[1]*x^2)^0.5'
p347
sg71
Fnan
sg72
S'Temperature'
p348
sg74
F-1000000000000000.0
sg75
F-1000000000000000.0
sg76
I01
sg77
I01
sbsg78
I01
sg79
g231
sg232
I00
sg81
I00
sg82
Vtemp of atoms loaded to ODT
p349
sg84
g83
sg85
I00
sg86
I00
sg87
I00
sg88
V/lab/data/app3/2013/1304/130411/
p350
sg90
g83
sg91
I00
sg92
I01
sg93
S'Mean                   =   0.150000\nStd. deviation         =   0.102470\nStd. error of the mean =   0.045826\nPk-Pk                  =   0.300000\n\nMean                   =  49.844953\nStd. deviation         =  28.300239\nStd. error of the mean =  12.656252\nPk-Pk                  =  79.660490\n\n'
p351
sg236
g83
sg94
Fnan
sg95
VCPP:ax0w
p352
sg97
VODT:odttof
p353
sg99
g83
sg100
F1.0
sg101
g197
sg103
Fnan
sg61
V50ms-temp
p354
sg105
S'#\n# Column index\n#  0  SEQ:shot\n#  1  ODT:odttof\n#  2  CPP:ax0w\n\n7555\t\t0.0000\t\t14.3411\t\t\n7556\t\t0.0600\t\t22.3111\t\t\n7557\t\t0.1200\t\t37.3420\t\t\n7558\t\t0.1800\t\t55.8371\t\t\n7559\t\t0.2400\t\t75.2368\t\t\n7560\t\t0.3000\t\t94.0016\t\t'
p355
sg106
g241
sg108
I00
sg109
V7555:7560
p356
sg110
g83
sg111
F10.0
sg112
I01
sg113
Fnan
sg114
g243
sg116
I00
sbag4
(g14
tp357
Rp358
(dp359
g9
g10
sg18
VNone
p360
sg20
Fnan
sg21
g4
(g22
tp361
Rp362
(dp363
g26
g27
(g28
(I0
tp364
g30
tp365
Rp366
(I1
(I5
I1
tp367
g256
I00
S'\x00\xe0\x8e\xc2@H.@1\x91\xd0\x9d\xe0\x1b6@\x8d\x99\x99\x99\x99\x99\x17@\x00\x00\x00\x00\x00\x00\x00\x00\x00\x00\x00\x00\x00\x00\x00\x00'
p368
tp369
bsg9
g10
sg42
g27
(g28
(I0
tp370
g30
tp371
Rp372
(I1
(I5
I1
tp373
g256
I00
S'\xfdv\xe1\xe5R\x84\xf8?I\xe8\xa0D\xac\xea\xf0?\x00\x00\x00\x00\x00\x00\x1a=\x00\x00\x00\x00\x00\x00\x00\x00\x00\x00\x00\x00\x00\x00\x00\x00'
p374
tp375
bsg49
g218
sg51
Fnan
sg52
F1000000000000000.0
sg53
F1000000000000000.0
sg54
g0
(g1
g2
(lp376
I01
aI01
aI01
aI01
aI01
atp377
Rp378
(dp379
g59
S'fit_mask_items'
p380
sg61
g54
sbsg62
g274
sg69
g347
sg71
Fnan
sg72
g348
sg74
F-1000000000000000.0
sg75
F-1000000000000000.0
sg76
I00
sg77
I00
sbsg78
I01
sg79
g231
sg232
I00
sg81
I00
sg82
VN loaded to ODT
p381
sg84
g83
sg85
I00
sg86
I00
sg87
I00
sg88
V/lab/data/app3/2013/1304/130411/
p382
sg90
g83
sg91
I00
sg92
I00
sg93
S'Mean                   =   0.150000\nStd. deviation         =   0.102470\nStd. error of the mean =   0.045826\nPk-Pk                  =   0.300000\n\nMean                   = 6001129.666667\nStd. deviation         = 405972.978610\nStd. error of the mean = 181556.635440\nPk-Pk                  = 1130967.000000\n\n'
p383
sg236
g83
sg94
Fnan
sg95
VCPP:nfit
p384
sg97
g353
sg99
g83
sg100
F1.0
sg101
g197
sg103
Fnan
sg61
VN loaded 
p385
sg105
S'#\n# Column index\n#  0  SEQ:shot\n#  1  ODT:odttof\n#  2  CPP:nfit\n\n7555\t\t0.0000\t\t6.407e+06\t\t\n7556\t\t0.0600\t\t6.673e+06\t\t\n7557\t\t0.1200\t\t5.945e+06\t\t\n7558\t\t0.1800\t\t5.542e+06\t\t\n7559\t\t0.2400\t\t5.729e+06\t\t\n7560\t\t0.3000\t\t5.710e+06\t\t'
p386
sg106
Vs
p387
sg108
I00
sg109
V7555:7560
p388
sg110
g83
sg111
F10.0
sg112
I01
sg113
Fnan
sg114
g243
sg116
I00
sbag4
(g14
tp389
Rp390
(dp391
g9
g10
sg18
Vblack
p392
sg20
Fnan
sg21
g4
(g22
tp393
Rp394
(dp395
g26
g27
(g28
(I0
tp396
g30
tp397
Rp398
(I1
(I5
I1
tp399
g34
(S'f8'
p400
I0
I1
tp401
Rp402
(I3
S'<'
p403
NNNI-1
I-1
I0
tp404
bI00
S']:*\x8d\xec\x14\xb3\xc0ju\x1e;\x11\x13\x81@\xaf7n/\xde\x9f&A\x00\x00\x00\x00\x00\x00\x00\x00\x00\x00\x00\x00\x00\x00\x00\x00'
p405
tp406
bsg9
g10
sg42
g27
(g28
(I0
tp407
g30
tp408
Rp409
(I1
(I5
I1
tp410
g402
I00
S'b\xfc[\xb7V\x94\xe6@~\x91\xb9\xc0\xf2\xceJ@tb\xf8q\x00\x90IA\x00\x00\x00\x00\x00\x00\x00\x00\x00\x00\x00\x00\x00\x00\x00\x00'
p411
tp412
bsg49
g218
sg51
Fnan
sg52
F1000000000000000.0
sg53
F1000000000000000.0
sg54
g0
(g1
g2
(lp413
I01
aI01
aI01
aI00
aI01
atp414
Rp415
(dp416
g59
S'fit_mask_items'
p417
sg61
g54
sbsg62
g27
(g28
(I0
tp418
g30
tp419
Rp420
(I1
(I5
I1
tp421
g207
I00
S'\x00\x00\x00\x00\x00j\xf8\xc0\x00\x00\x00\x00\x00\xf8\x80@\x00\x00\x00\x00\xc0\\5A\x00\x00\x00\x00\x00\x00\x00\x00\x00\x00\x00\x00\x00\x00\x00\x00'
p422
tp423
bsg69
S'p[0]*(x-p[1])**2 + p[2]'
p424
sg71
Fnan
sg72
S'Parabola'
p425
sg74
F-1000000000000000.0
sg75
F-1000000000000000.0
sg76
I00
sg77
I00
sbsg78
I01
sg79
g231
sg232
I00
sg81
I00
sg82
Vz2
p426
sg84
g83
sg85
I00
sg86
I00
sg87
I00
sg88
V/lab/data/app3/2013/1305/130520/
p427
sg90
g83
sg91
I00
sg92
I01
sg93
S'Mean                   = 541.416667\nStd. deviation         =   2.325881\nStd. error of the mean =   0.701279\nPk-Pk                  =   8.000000\n\nMean                   = 713560.308333\nStd. deviation         = 177105.083045\nStd. error of the mean = 53399.191720\nPk-Pk                  = 554802.700000\n\n'
p428
sg236
g83
sg94
Fnan
sg95
VCPP:nfit
p429
sg97
VODTPOS:z2
p430
sg99
g83
sg100
F1.0
sg101
g392
sg103
Fnan
sg61
Vz2wig
p431
sg105
S'#\n# Column index\n#  0  SEQ:shot\n#  1  ODTPOS:z2\n#  2  CPP:nfit\n\n5128\t\t542.0000\t\t9.832e+05\t\t\n5129\t\t542.0000\t\t7.354e+05\t\t\n5130\t\t542.0000\t\t7.678e+05\t\t\n5131\t\t546.0000\t\t4.284e+05\t\t\n5133\t\t544.0000\t\t5.390e+05\t\t\n5134\t\t544.0000\t\t5.758e+05\t\t\n5135\t\t540.0000\t\t7.891e+05\t\t\n5136\t\t540.0000\t\t9.112e+05\t\t\n5137\t\t540.0000\t\t8.759e+05\t\t\n5138\t\t538.0000\t\t5.453e+05\t\t\n5139\t\t538.0000\t\t5.187e+05\t\t\n5140\t\t541.0000\t\t8.928e+05\t\t'
p432
sg106
g241
sg108
I00
sg109
V5128:5140,-5132
p433
sg110
g83
sg111
F10.0
sg112
I01
sg113
Fnan
sg114
g243
sg116
I00
sbag4
(g14
tp434
Rp435
(dp436
g9
g10
sg18
g392
sg20
Fnan
sg21
g4
(g22
tp437
Rp438
(dp439
g26
g203
sg9
g10
sg42
g214
sg49
g218
sg51
Fnan
sg52
F1000000000000000.0
sg53
F1000000000000000.0
sg54
g0
(g1
g2
(lp440
I01
aI01
aI01
aI01
aI01
atp441
Rp442
(dp443
g59
S'fit_mask_items'
p444
sg61
g54
sbsg62
g226
sg69
g70
sg71
Fnan
sg72
g230
sg74
F-1000000000000000.0
sg75
F-1000000000000000.0
sg76
I00
sg77
I00
sbsg78
I01
sg79
g231
sg232
I00
sg81
I00
sg82
Vy1
p445
sg84
g83
sg85
I00
sg86
I00
sg87
I00
sg88
V/lab/data/app3/2013/1305/130515/
p446
sg90
g83
sg91
I00
sg92
I01
sg93
S'Mean                   = 647.333333\nStd. deviation         =   5.604231\nStd. error of the mean =   1.099080\nPk-Pk                  =  17.000000\n\nMean                   = 442013.164074\nStd. deviation         = 124081.802773\nStd. error of the mean = 24334.443601\nPk-Pk                  = 528821.670000\n\n'
p447
sg236
g83
sg94
Fnan
sg95
g429
sg97
VODTPOS:y1
p448
sg99
g83
sg100
F1.0
sg101
g392
sg103
Fnan
sg61
Vy1wig
p449
sg105
S'#\n# Column index\n#  0  SEQ:shot\n#  1  ODTPOS:y1\n#  2  CPP:nfit\n\n3811\t\t648.0000\t\t4.108e+05\t\t\n3812\t\t\n3813\t\t648.0000\t\t4.311e+05\t\t\n3814\t\t648.0000\t\t4.443e+05\t\t\n3815\t\t653.0000\t\t4.985e+05\t\t\n3816\t\t653.0000\t\t5.143e+05\t\t\n3817\t\t653.0000\t\t4.989e+05\t\t\n3819\t\t656.0000\t\t1.470e+05\t\t\n3820\t\t656.0000\t\t1.419e+05\t\t\n3821\t\t655.0000\t\t4.404e+05\t\t\n3822\t\t655.0000\t\t4.543e+05\t\t\n3823\t\t655.0000\t\t4.207e+05\t\t\n3824\t\t650.0000\t\t4.058e+05\t\t\n3825\t\t650.0000\t\t4.518e+05\t\t\n3826\t\t650.0000\t\t4.883e+05\t\t\n3827\t\t645.0000\t\t4.874e+05\t\t\n3828\t\t645.0000\t\t4.525e+05\t\t\n3829\t\t645.0000\t\t5.001e+05\t\t\n3830\t\t643.0000\t\t5.794e+05\t\t\n3831\t\t643.0000\t\t5.411e+05\t\t\n3832\t\t643.0000\t\t5.656e+05\t\t\n3833\t\t643.0000\t\t5.544e+05\t\t\n3834\t\t641.0000\t\t5.010e+05\t\t\n3835\t\t641.0000\t\t6.244e+05\t\t\n3836\t\t640.0000\t\t4.655e+05\t\t\n3837\t\t640.0000\t\t4.017e+05\t\t\n3838\t\t640.0000\t\t4.176e+05\t\t\n3839\t\t639.0000\t\t95579.4300\t\t'
p450
sg106
g241
sg108
I00
sg109
V3811:3840,-3818
p451
sg110
g83
sg111
F10.0
sg112
I01
sg113
Fnan
sg114
g243
sg116
I00
sbag4
(g14
tp452
Rp453
(dp454
g9
g10
sg18
g392
sg20
Fnan
sg21
g4
(g22
tp455
Rp456
(dp457
g26
g203
sg9
g10
sg42
g214
sg49
g218
sg51
Fnan
sg52
F1000000000000000.0
sg53
F1000000000000000.0
sg54
g0
(g1
g2
(lp458
I01
aI01
aI01
aI01
aI01
atp459
Rp460
(dp461
g59
S'fit_mask_items'
p462
sg61
g54
sbsg62
g226
sg69
g70
sg71
Fnan
sg72
g230
sg74
F-1000000000000000.0
sg75
F-1000000000000000.0
sg76
I00
sg77
I00
sbsg78
I01
sg79
g231
sg232
I00
sg81
I00
sg82
Vbraggkill wiggle
p463
sg84
g83
sg85
I00
sg86
I00
sg87
I00
sg88
V/lab/data/app3/2013/1303/130307/
p464
sg90
g83
sg91
I00
sg92
I01
sg93
S'Mean                   = 2034.000000\nStd. deviation         =  20.099751\nStd. error of the mean =   6.699917\nPk-Pk                  =  60.000000\n\nMean                   = 21988.839900\nStd. deviation         = 16509.968716\nStd. error of the mean = 5503.322905\nPk-Pk                  = 51431.290000\n\n'
p465
sg236
g83
sg94
Fnan
sg95
VCPP:nfit
p466
sg97
VBRAGGPOS:Yfiberhalf
p467
sg99
g83
sg100
F1.0
sg101
g392
sg103
Fnan
sg61
Vkillwig
p468
sg105
S'#\n# Column index\n#  0  SEQ:shot\n#  1  BRAGGPOS:Yfiberhalf\n#  2  CPP:nfit\n\n4481\t\t2025.0000\t\t8324.1390\t\t\n4482\t\t2025.0000\t\t9028.4570\t\t\n4483\t\t2025.0000\t\t8552.0790\t\t\n4484\t\t2045.0000\t\t7071.6740\t\t\n4486\t\t2065.0000\t\t24619.3400\t\t\n4487\t\t2065.0000\t\t25916.2900\t\t\n4488\t\t2005.0000\t\t35397.9200\t\t\n4489\t\t2005.0000\t\t38467.6300\t\t\n4490\t\t2040.0000\t\t5539.7900\t\t\n4491\t\t\n4492\t\t2040.0000\t\t56971.0800\t\t'
p469
sg106
g241
sg108
I00
sg109
V4481:4492,-4485
p470
sg110
g83
sg111
F10.0
sg112
I01
sg113
Fnan
sg114
g243
sg116
I00
sbag4
(g14
tp471
Rp472
(dp473
g9
g10
sg18
g392
sg20
Fnan
sg21
g4
(g22
tp474
Rp475
(dp476
g26
g27
(g28
(I0
tp477
g30
tp478
Rp479
(I1
(I5
I1
tp480
g402
I00
S'\x8d\xdc`\xf9r\xae\xe3\xc0\x85f{c\x0c\x02\x85@\xec\x99\xa1\xe4\x04\xd9\x1cA\x00\x00\x00\x00\x00\x00\x00\x00\x00\x00\x00\x00\x00\x00\x00\x00'
p481
tp482
bsg9
g10
sg42
g27
(g28
(I0
tp483
g30
tp484
Rp485
(I1
(I5
I1
tp486
g402
I00
S'^\x12\xd4Nd\x91\xc5@A\xa8\xa3FE=\xc5?\xadT\xcf\xc7\x1d/\xcd@\x00\x00\x00\x00\x00\x00\x00\x00\x00\x00\x00\x00\x00\x00\x00\x00'
p487
tp488
bsg49
g218
sg51
Fnan
sg52
F1000000000000000.0
sg53
F1000000000000000.0
sg54
g0
(g1
g2
(lp489
I01
aI01
aI01
aI01
aI01
atp490
Rp491
(dp492
g59
S'fit_mask_items'
p493
sg61
g54
sbsg62
g27
(g28
(I0
tp494
g30
tp495
Rp496
(I1
(I5
I1
tp497
g207
I00
S'\x00\x00\x00\x00\x00j\xf8\xc033333\x03\x85@\x00\x00\x00\x00\x80O"A\x00\x00\x00\x00\x00\x00\x00\x00\x00\x00\x00\x00\x00\x00\x00\x00'
p498
tp499
bsg69
g424
sg71
Fnan
sg72
S'Parabola'
p500
sg74
F-1000000000000000.0
sg75
F-1000000000000000.0
sg76
I01
sg77
I01
sbsg78
I01
sg79
g231
sg232
I00
sg81
I00
sg82
Vhwig
p501
sg84
g83
sg85
I00
sg86
I00
sg87
I00
sg88
V/lab/data/app3/2013/1305/130520/
p502
sg90
V
p503
sg91
I00
sg92
I01
sg93
S'Mean                   = 672.044118\nStd. deviation         =   0.959608\nStd. error of the mean =   0.239902\nPk-Pk                  =   3.000000\n\nMean                   = 433699.529412\nStd. deviation         = 49823.828063\nStd. error of the mean = 12455.957016\nPk-Pk                  = 182691.300000\n\n'
p504
sg236
g83
sg94
Fnan
sg95
g429
sg97
VLATTICEPOS:beam2H
p505
sg99
g503
sg100
F1.0
sg101
g392
sg103
Fnan
sg61
Vh2wig
p506
sg105
S'#\n# Column index\n#  0  SEQ:shot\n#  1  LATTICEPOS:beam2H\n#  2  CPP:nfit\n\n4941\t\t672.5000\t\t4.784e+05\t\t\n4942\t\t672.5000\t\t4.603e+05\t\t\n4943\t\t672.5000\t\t4.298e+05\t\t\n4944\t\t672.5000\t\t4.538e+05\t\t\n4945\t\t673.5000\t\t3.783e+05\t\t\n4946\t\t673.5000\t\t4.378e+05\t\t\n4947\t\t673.5000\t\t4.231e+05\t\t\n4948\t\t671.5000\t\t4.763e+05\t\t\n4949\t\t671.5000\t\t4.641e+05\t\t\n4950\t\t671.5000\t\t4.366e+05\t\t\n4951\t\t671.5000\t\t4.630e+05\t\t\n4952\t\t670.5000\t\t3.091e+05\t\t\n4953\t\t670.5000\t\t3.427e+05\t\t\n4954\t\t670.5000\t\t3.859e+05\t\t\n4955\t\t672.2500\t\t4.754e+05\t\t\n4956\t\t672.2500\t\t4.918e+05\t\t\n4957\t\t672.2500\t\t4.665e+05\t\t'
p507
sg106
g241
sg108
I00
sg109
V4941:4957
p508
sg110
g503
sg111
F10.0
sg112
I01
sg113
Fnan
sg114
g243
sg116
I00
sbag4
(g14
tp509
Rp510
(dp511
g9
g10
sg18
g392
sg20
Fnan
sg21
g4
(g22
tp512
Rp513
(dp514
g26
g203
sg9
g10
sg42
g214
sg49
g218
sg51
Fnan
sg52
F1000000000000000.0
sg53
F1000000000000000.0
sg54
g0
(g1
g2
(lp515
I01
aI01
aI01
aI01
aI01
atp516
Rp517
(dp518
g59
S'fit_mask_items'
p519
sg61
g54
sbsg62
g226
sg69
g70
sg71
Fnan
sg72
g230
sg74
F-1000000000000000.0
sg75
F-1000000000000000.0
sg76
I00
sg77
I00
sbsg78
I01
sg79
g231
sg232
I00
sg81
I00
sg82
g503
sg84
g83
sg85
I00
sg86
I00
sg87
I00
sg88
V/lab/data/app3/2013/1304/130413/
p520
sg90
g83
sg91
I00
sg92
I01
sg93
S'Mean                   = 1355.900000\nStd. deviation         =  21.037823\nStd. error of the mean =   4.826408\nPk-Pk                  =  70.000000\n\nMean                   = 40329.579500\nStd. deviation         = 6845.639662\nStd. error of the mean = 1570.497447\nPk-Pk                  = 22575.020000\n\n'
p521
sg236
g83
sg94
Fnan
sg95
g429
sg97
VBRAGGPOS:Yfiberhalf
p522
sg99
g83
sg100
F1.0
sg101
g392
sg103
Fnan
sg61
VXfiberone wiggle
p523
sg105
S'#\n# Column index\n#  0  SEQ:shot\n#  1  BRAGGPOS:Yfiberhalf\n#  2  CPP:nfit\n\n8106\t\t1361.0000\t\t35514.5500\t\t\n8107\t\t1361.0000\t\t34466.0400\t\t\n8108\t\t1361.0000\t\t35470.5700\t\t\n8109\t\t1371.0000\t\t35103.9700\t\t\n8110\t\t1371.0000\t\t42108.9600\t\t\n8111\t\t1371.0000\t\t42510.8900\t\t\n8112\t\t1391.0000\t\t52248.8700\t\t\n8113\t\t1391.0000\t\t48977.3400\t\t\n8114\t\t1391.0000\t\t48262.3500\t\t\n8115\t\t1341.0000\t\t39389.2100\t\t\n8116\t\t1341.0000\t\t32437.3100\t\t\n8117\t\t1341.0000\t\t36751.6900\t\t\n8118\t\t1321.0000\t\t50638.7400\t\t\n8119\t\t1321.0000\t\t53222.8800\t\t\n8120\t\t1321.0000\t\t44969.5600\t\t\n8121\t\t1351.0000\t\t35898.8800\t\t\n8122\t\t1351.0000\t\t36885.6400\t\t\n8123\t\t1351.0000\t\t35554.1000\t\t\n8124\t\t1355.0000\t\t35532.1800\t\t\n8125\t\t1355.0000\t\t30647.8600\t\t'
p524
sg106
g241
sg108
I00
sg109
V8106:8125
p525
sg110
g83
sg111
F10.0
sg112
I01
sg113
Fnan
sg114
g243
sg116
I00
sbag4
(g14
tp526
Rp527
(dp528
g9
g10
sg18
g392
sg20
Fnan
sg21
g4
(g22
tp529
Rp530
(dp531
g26
g203
sg9
g10
sg42
g214
sg49
g218
sg51
Fnan
sg52
F1000000000000000.0
sg53
F1000000000000000.0
sg54
g0
(g1
g2
(lp532
I01
aI01
aI01
aI01
aI01
atp533
Rp534
(dp535
g59
S'fit_mask_items'
p536
sg61
g54
sbsg62
g226
sg69
g70
sg71
Fnan
sg72
g230
sg74
F-1000000000000000.0
sg75
F-1000000000000000.0
sg76
I00
sg77
I00
sbsg78
I01
sg79
g231
sg232
I00
sg81
I00
sg82
VY fiberone wiggle
p537
sg84
g83
sg85
I00
sg86
I00
sg87
I00
sg88
V/lab/data/app3/2013/1304/130408/
p538
sg90
g83
sg91
I00
sg92
I01
sg93
S'Mean                   = 237.000000\nStd. deviation         =  20.000000\nStd. error of the mean =   5.345225\nPk-Pk                  =  60.000000\n\nMean                   = 85657.723333\nStd. deviation         = 53944.434873\nStd. error of the mean = 14417.256659\nPk-Pk                  = 138395.150000\n\n'
p539
sg236
g83
sg94
Fnan
sg95
g429
sg97
VBRAGGPOS:Yfiberone
p540
sg99
g83
sg100
F1.0
sg101
g392
sg103
Fnan
sg61
VYfiber
p541
sg105
S'#\n# Column index\n#  0  SEQ:shot\n#  1  BRAGGPOS:Yfiberone\n#  2  CPP:nfit\n\n7058\t\t247.0000\t\t49706.5300\t\t\n7059\t\t247.0000\t\t33780.7500\t\t\n7060\t\t247.0000\t\t46084.9200\t\t\n7061\t\t227.0000\t\t50464.9600\t\t\n7062\t\t227.0000\t\t36372.7600\t\t\n7063\t\t227.0000\t\t57134.2800\t\t\n7064\t\t207.0000\t\t1.496e+05\t\t\n7065\t\t207.0000\t\t1.694e+05\t\t\n7066\t\t207.0000\t\t1.251e+05\t\t\n7067\t\t267.0000\t\t1.718e+05\t\t\n7068\t\t267.0000\t\t1.542e+05\t\t\n7069\t\t267.0000\t\t1.285e+05\t\t\n7070\t\t237.0000\t\t35273.4900\t\t\n7071\t\t237.0000\t\t43992.9100\t\t\n7072\t\t237.0000\t\t33428.9500\t\t'
p542
sg106
g241
sg108
I00
sg109
V7058:7072
p543
sg110
g83
sg111
F10.0
sg112
I01
sg113
Fnan
sg114
g243
sg116
I00
sbag4
(g14
tp544
Rp545
(dp546
g9
g10
sg18
g392
sg20
Fnan
sg21
g4
(g22
tp547
Rp548
(dp549
g26
g27
(g28
(I0
tp550
g30
tp551
Rp552
(I1
(I5
I1
tp553
g402
I00
S"\xef\xaaj\xbfeN\xda\xc0\xbb\xaa4\xa6\x02\xc8~@\x03'Vw\t\xa9\x1aA\x00\x00\x00\x00\x00\x00\x00\x00\x00\x00\x00\x00\x00\x00\x00\x00"
p554
tp555
bsg9
g10
sg42
g27
(g28
(I0
tp556
g30
tp557
Rp558
(I1
(I5
I1
tp559
g402
I00
S'\x19\x0bz\xf9\x0b\xf9\xd5@\xc8\xfa%\x06\x14\xfd\xdd?\x0b\x8e\x07\xfb\xd7\xcf\xcf@\x00\x00\x00\x00\x00\x00\x00\x00\x00\x00\x00\x00\x00\x00\x00\x00'
p560
tp561
bsg49
g218
sg51
Fnan
sg52
F1000000000000000.0
sg53
F1000000000000000.0
sg54
g0
(g1
g2
(lp562
I01
aI01
aI01
aI01
aI01
atp563
Rp564
(dp565
g59
S'fit_mask_items'
p566
sg61
g54
sbsg62
g27
(g28
(I0
tp567
g30
tp568
Rp569
(I1
(I5
I1
tp570
g207
I00
S'\x00\x00\x00\x00\x00j\xf8\xc0\x00\x00\x00\x00\x00\xe0~@\x00\x00\x00\x00\xc0\\%A\x00\x00\x00\x00\x00\x00\x00\x00\x00\x00\x00\x00\x00\x00\x00\x00'
p571
tp572
bsg69
g424
sg71
Fnan
sg72
g425
sg74
F-1000000000000000.0
sg75
F-1000000000000000.0
sg76
I00
sg77
I00
sbsg78
I01
sg79
g231
sg232
I00
sg81
I00
sg82
Vh1wig
p573
sg84
g83
sg85
I00
sg86
I00
sg87
I00
sg88
V/lab/data/app3/2013/1305/130520/
p574
sg90
g503
sg91
I00
sg92
I01
sg93
S'Mean                   = 493.427083\nStd. deviation         =   0.744701\nStd. error of the mean =   0.155281\nPk-Pk                  =   2.500000\n\nMean                   = 409018.654167\nStd. deviation         = 31078.114913\nStd. error of the mean = 6480.234921\nPk-Pk                  = 115470.100000\n\n'
p575
sg236
g83
sg94
Fnan
sg95
g429
sg97
VLATTICEPOS:beam1H
p576
sg99
g503
sg100
F1.0
sg101
g392
sg103
Fnan
sg61
Vh1wig
p577
sg105
S'#\n# Column index\n#  0  SEQ:shot\n#  1  LATTICEPOS:beam1H\n#  2  CPP:nfit\n\n4915\t\t493.5000\t\t4.341e+05\t\t\n4916\t\t493.5000\t\t4.383e+05\t\t\n4917\t\t493.5000\t\t4.537e+05\t\t\n4918\t\t493.5000\t\t4.208e+05\t\t\n4919\t\t493.5000\t\t3.827e+05\t\t\n4920\t\t493.5000\t\t4.547e+05\t\t\n4921\t\t493.5000\t\t4.093e+05\t\t\n4922\t\t493.5000\t\t4.068e+05\t\t\n4923\t\t493.5000\t\t3.604e+05\t\t\n4924\t\t493.5000\t\t4.284e+05\t\t\n4925\t\t493.5000\t\t4.190e+05\t\t\n4926\t\t493.5000\t\t4.256e+05\t\t\n4927\t\t493.5000\t\t4.455e+05\t\t\n4930\t\t494.5000\t\t3.958e+05\t\t\n4931\t\t494.5000\t\t3.392e+05\t\t\n4932\t\t494.5000\t\t3.606e+05\t\t\n4933\t\t494.5000\t\t4.022e+05\t\t\n4934\t\t494.5000\t\t3.877e+05\t\t\n4935\t\t492.0000\t\t4.317e+05\t\t\n4936\t\t492.0000\t\t3.722e+05\t\t\n4937\t\t492.0000\t\t4.110e+05\t\t\n4938\t\t492.7500\t\t3.824e+05\t\t\n4939\t\t492.7500\t\t4.026e+05\t\t\n4940\t\t492.7500\t\t4.516e+05\t\t'
p578
sg106
g241
sg108
I00
sg109
V4915:4945,-4928,-4929
p579
sg110
g503
sg111
F10.0
sg112
I01
sg113
Fnan
sg114
g243
sg116
I00
sbag4
(g14
tp580
Rp581
(dp582
g9
g10
sg18
g392
sg20
Fnan
sg21
g4
(g22
tp583
Rp584
(dp585
g26
g203
sg9
g10
sg42
g214
sg49
g218
sg51
Fnan
sg52
F1000000000000000.0
sg53
F1000000000000000.0
sg54
g0
(g1
g2
(lp586
I01
aI01
aI01
aI00
aI01
atp587
Rp588
(dp589
g59
S'fit_mask_items'
p590
sg61
g54
sbsg62
g226
sg69
g70
sg71
Fnan
sg72
g230
sg74
F-1000000000000000.0
sg75
F-1000000000000000.0
sg76
I00
sg77
I00
sbsg78
I01
sg79
g231
sg232
I00
sg81
I00
sg82
Vuvpow
p591
sg84
g83
sg85
I00
sg86
I00
sg87
I00
sg88
V/lab/data/app3/2013/1304/130415/
p592
sg90
g503
sg91
I00
sg92
I01
sg93
S'Mean                   =  12.357143\nStd. deviation         =   2.438007\nStd. error of the mean =   0.676181\nPk-Pk                  =   8.000000\n\nMean                   = 1263823.385714\nStd. deviation         = 176225.194400\nStd. error of the mean = 48876.074957\nPk-Pk                  = 753831.600000\n\n'
p593
sg236
g83
sg94
Fnan
sg95
g429
sg97
VUV:uvpow
p594
sg99
g503
sg100
F1.0
sg101
g392
sg103
Fnan
sg61
Vuvpow
p595
sg105
S'#\n# Column index\n#  0  SEQ:shot\n#  1  UV:uvpow\n#  2  CPP:nfit\n\n8278\t\t17.0000\t\t8.336e+05\t\t\n8279\t\t15.0000\t\t1.100e+06\t\t\n8280\t\t15.0000\t\t1.389e+06\t\t\n8281\t\t15.0000\t\t1.151e+06\t\t\n8282\t\t13.0000\t\t1.587e+06\t\t\n8285\t\t13.0000\t\t1.258e+06\t\t\n8286\t\t13.0000\t\t1.309e+06\t\t\n8287\t\t11.0000\t\t1.367e+06\t\t\n8288\t\t11.0000\t\t1.375e+06\t\t\n8289\t\t11.0000\t\t1.355e+06\t\t\n8290\t\t9.0000\t\t1.310e+06\t\t\n8291\t\t9.0000\t\t1.194e+06\t\t\n8292\t\t9.0000\t\t1.078e+06\t\t\n8293\t\t12.0000\t\t1.387e+06\t\t'
p596
sg106
g241
sg108
I00
sg109
V8278:8293,-8283,-8284
p597
sg110
g503
sg111
F10.0
sg112
I01
sg113
Fnan
sg114
g243
sg116
I00
sbatp598
Rp599
(dp600
g59
S'datasets_items'
p601
sg61
g12
sbsg81
I00
sg82
VTasks
p602
sg121
I1
sg122
g320
sg123
g0
(g1
g2
(lp603
I1
aI2
aI3
aI4
aI5
aI6
aI7
aI8
aI9
aI10
aI11
aI12
aI13
aI14
aI15
aI16
aI17
aI18
aI19
atp604
Rp605
(dp606
g59
S'grids_items'
p607
sg61
g123
sbsg129
I1
sg61
VTasks
p608
sbag4
(g5
tp609
Rp610
(dp611
g9
g10
sg11
I3
sg12
g0
(g1
g2
(lp612
g4
(g14
tp613
Rp614
(dp615
g9
g10
sg18
Vred
p616
sg20
Fnan
sg21
g4
(g22
tp617
Rp618
(dp619
g26
g27
(g28
(I0
tp620
g30
tp621
Rp622
(I1
(I5
I1
tp623
g34
(S'f8'
p624
I0
I1
tp625
Rp626
(I3
S'<'
p627
NNNI-1
I-1
I0
tp628
bI00
S'+i\x00\xb60D\xd5?\xbaK\r\xabD\x04#@\x1c\x9d5\xc3\x1059@\x00\x00\x00\x00\x00\x00\xe0?\x00\x00\x00\x00\x00\x00\x00\x00'
p629
tp630
bsg9
g10
sg42
g27
(g28
(I0
tp631
g30
tp632
Rp633
(I1
(I5
I1
tp634
g626
I00
S'\xc0\x14g\x81\t\xa6\xb6?\xfd\x93\xef\xf5\xc0>\xe7?\xf6pc\x82\xff\xb6\x02@\x00\x00\x00\x00\x00\x00\x00\x00\x00\x00\x00\x00\x00\x00\x00\x00'
p635
tp636
bsg49
g218
sg51
F0.0
sg52
F1000000000000000.0
sg53
F1000000000000000.0
sg54
g0
(g1
g2
(lp637
I01
aI01
aI01
aI01
aI01
atp638
Rp639
(dp640
g59
S'fit_mask_items'
p641
sg61
g54
sbsg62
g27
(g28
(I0
tp642
g30
tp643
Rp644
(I1
(I5
I1
tp645
g207
I00
S'\x00\x00\x00\x00\x00\x00i@\x00\x00\x00\x00\x00\x00\x14@\x00\x00\x00\x00\x00j\x08A\x00\x00\x00\x00\x00\x00\xe0?\x00\x00\x00\x00\x00\x00\x00\x00'
p646
tp647
bsg69
g424
sg71
Fnan
sg72
S'Parabola'
p648
sg74
F-1000000000000000.0
sg75
F-1000000000000000.0
sg76
I00
sg77
I00
sbsg78
I01
sg79
g231
sg232
I00
sg81
I01
sg82
g503
sg84
g83
sg85
I00
sg86
I00
sg87
I01
sg88
V/lab/data/app3/2013/1305/130521/
p649
sg90
g503
sg91
I00
sg92
I01
sg93
S'Mean                   =   3.333333\nStd. deviation         =   2.867442\nStd. error of the mean =   0.864566\nPk-Pk                  =   8.000000\n\nMean                   = 254.760442\nStd. deviation         =   1.874494\nStd. error of the mean =   0.565181\nPk-Pk                  =   6.061200\n\n'
p650
sg236
g83
sg94
Fnan
sg95
VCPP:ax0c
p651
sg97
VLATTICEPOS:gr1V
p652
sg99
g503
sg100
F1.0
sg101
g616
sg103
Fnan
sg61
VDisplacement0
p653
sg105
S'#\n# Column index\n#  0  SEQ:shot\n#  1  LATTICEPOS:gr1V\n#  2  CPP:ax0c\n\n5456\t\t0.0000\t\t251.2955\t\t\n5457\t\t0.0000\t\t253.5432\t\t\n5458\t\t2.0000\t\t253.3499\t\t\n5459\t\t2.0000\t\t254.1828\t\t\n5460\t\t8.0000\t\t257.2916\t\t\n5461\t\t8.0000\t\t257.3567\t\t\n5462\t\t6.0000\t\t256.2260\t\t\n5463\t\t6.0000\t\t256.7793\t\t\n5464\t\t4.0000\t\t256.2205\t\t\n5465\t\t2.0000\t\t254.0682\t\t\n5466\t\t2.0000\t\t253.9982\t\t\n5468\t\t0.0000\t\t252.8134\t\t'
p654
sg106
Vo
p655
sg108
I00
sg109
V5456:5476,-5467
p656
sg110
VPicomotor
p657
sg111
F10.0
sg112
I01
sg113
Fnan
sg114
g243
sg116
I00
sbag4
(g14
tp658
Rp659
(dp660
g9
g10
sg18
Vred
p661
sg20
Fnan
sg21
g4
(g22
tp662
Rp663
(dp664
g26
g622
sg9
g10
sg42
g633
sg49
g218
sg51
F0.0
sg52
F1000000000000000.0
sg53
F1000000000000000.0
sg54
g0
(g1
g2
(lp665
I01
aI01
aI01
aI01
aI01
atp666
Rp667
(dp668
g59
S'fit_mask_items'
p669
sg61
g54
sbsg62
g644
sg69
g424
sg71
Fnan
sg72
g648
sg74
F-1000000000000000.0
sg75
F-1000000000000000.0
sg76
I00
sg77
I00
sbsg78
I01
sg79
g231
sg232
I00
sg81
I01
sg82
g503
sg84
g83
sg85
I00
sg86
I00
sg87
I01
sg88
V/lab/data/app3/2013/1305/130521/
p670
sg90
g503
sg91
I00
sg92
I01
sg93
S'Mean                   =   3.333333\nStd. deviation         =   2.867442\nStd. error of the mean =   0.864566\nPk-Pk                  =   8.000000\n\nMean                   = 209.602275\nStd. deviation         =   0.371757\nStd. error of the mean =   0.112089\nPk-Pk                  =   1.455600\n\n'
p671
sg236
g83
sg94
Fnan
sg95
VCPP:ax1c
p672
sg97
VLATTICEPOS:gr1V
p673
sg99
g503
sg100
F1.0
sg101
g661
sg103
Fnan
sg61
VDisplacement1
p674
sg105
S'#\n# Column index\n#  0  SEQ:shot\n#  1  LATTICEPOS:gr1V\n#  2  CPP:ax1c\n\n5456\t\t0.0000\t\t209.4343\t\t\n5457\t\t0.0000\t\t209.9109\t\t\n5458\t\t2.0000\t\t209.9045\t\t\n5459\t\t2.0000\t\t209.8454\t\t\n5460\t\t8.0000\t\t209.5291\t\t\n5461\t\t8.0000\t\t209.8123\t\t\n5462\t\t6.0000\t\t209.2245\t\t\n5463\t\t6.0000\t\t208.6721\t\t\n5464\t\t4.0000\t\t209.5681\t\t\n5465\t\t2.0000\t\t209.4413\t\t\n5466\t\t2.0000\t\t210.1277\t\t\n5468\t\t0.0000\t\t209.7571\t\t'
p675
sg106
g655
sg108
I00
sg109
V5456:5476,-5467
p676
sg110
g657
sg111
F10.0
sg112
I01
sg113
Fnan
sg114
g243
sg116
I00
sbag4
(g14
tp677
Rp678
(dp679
g9
g10
sg18
Vred
p680
sg20
Fnan
sg21
g4
(g22
tp681
Rp682
(dp683
g26
g622
sg9
g10
sg42
g633
sg49
g218
sg51
F0.0
sg52
F1000000000000000.0
sg53
F1000000000000000.0
sg54
g0
(g1
g2
(lp684
I01
aI01
aI01
aI01
aI01
atp685
Rp686
(dp687
g59
S'fit_mask_items'
p688
sg61
g54
sbsg62
g644
sg69
g424
sg71
Fnan
sg72
g648
sg74
F-1000000000000000.0
sg75
F-1000000000000000.0
sg76
I00
sg77
I00
sbsg78
I01
sg79
g231
sg232
I00
sg81
I01
sg82
g503
sg84
g83
sg85
I00
sg86
I00
sg87
I01
sg88
V/lab/data/app3/2013/1305/130521/
p689
sg90
g503
sg91
I00
sg92
I01
sg93
S'Mean                   =   3.333333\nStd. deviation         =   2.867442\nStd. error of the mean =   0.864566\nPk-Pk                  =   8.000000\n\nMean                   =  32.403940\nStd. deviation         =   1.399125\nStd. error of the mean =   0.421852\nPk-Pk                  =   5.474000\n\n'
p690
sg236
g83
sg94
Fnan
sg95
VCPP:ax0w
p691
sg97
g652
sg99
g503
sg100
F1.0
sg101
g680
sg103
Fnan
sg61
VSize0
p692
sg105
S'#\n# Column index\n#  0  SEQ:shot\n#  1  LATTICEPOS:gr1V\n#  2  CPP:ax0w\n\n5456\t\t0.0000\t\t28.9672\t\t\n5457\t\t0.0000\t\t32.1913\t\t\n5458\t\t2.0000\t\t33.0004\t\t\n5459\t\t2.0000\t\t34.4412\t\t\n5460\t\t8.0000\t\t31.8540\t\t\n5461\t\t8.0000\t\t32.1703\t\t\n5462\t\t6.0000\t\t32.1321\t\t\n5463\t\t6.0000\t\t34.2727\t\t\n5464\t\t4.0000\t\t33.8537\t\t\n5465\t\t2.0000\t\t32.4236\t\t\n5466\t\t2.0000\t\t31.3832\t\t\n5468\t\t0.0000\t\t32.1576\t\t'
p693
sg106
g655
sg108
I00
sg109
V5456:5476,-5467
p694
sg110
g657
sg111
F10.0
sg112
I01
sg113
Fnan
sg114
g243
sg116
I00
sbag4
(g14
tp695
Rp696
(dp697
g9
g10
sg18
Vred
p698
sg20
Fnan
sg21
g4
(g22
tp699
Rp700
(dp701
g26
g622
sg9
g10
sg42
g633
sg49
g218
sg51
F0.0
sg52
F1000000000000000.0
sg53
F1000000000000000.0
sg54
g0
(g1
g2
(lp702
I01
aI01
aI01
aI01
aI01
atp703
Rp704
(dp705
g59
S'fit_mask_items'
p706
sg61
g54
sbsg62
g644
sg69
g424
sg71
Fnan
sg72
g648
sg74
F-1000000000000000.0
sg75
F-1000000000000000.0
sg76
I00
sg77
I00
sbsg78
I01
sg79
g231
sg232
I00
sg81
I01
sg82
g503
sg84
g83
sg85
I00
sg86
I00
sg87
I01
sg88
V/lab/data/app3/2013/1305/130521/
p707
sg90
g503
sg91
I00
sg92
I01
sg93
S'Mean                   =   3.333333\nStd. deviation         =   2.867442\nStd. error of the mean =   0.864566\nPk-Pk                  =   8.000000\n\nMean                   =  11.263247\nStd. deviation         =   0.165241\nStd. error of the mean =   0.049822\nPk-Pk                  =   0.570500\n\n'
p708
sg236
g83
sg94
Fnan
sg95
VCPP:ax1w
p709
sg97
g652
sg99
g503
sg100
F1.0
sg101
g698
sg103
Fnan
sg61
VSize1
p710
sg105
S'#\n# Column index\n#  0  SEQ:shot\n#  1  LATTICEPOS:gr1V\n#  2  CPP:ax1w\n\n5456\t\t0.0000\t\t11.5206\t\t\n5457\t\t0.0000\t\t11.1301\t\t\n5458\t\t2.0000\t\t11.4860\t\t\n5459\t\t2.0000\t\t11.4264\t\t\n5460\t\t8.0000\t\t11.2142\t\t\n5461\t\t8.0000\t\t11.1753\t\t\n5462\t\t6.0000\t\t11.0615\t\t\n5463\t\t6.0000\t\t11.3333\t\t\n5464\t\t4.0000\t\t11.1991\t\t\n5465\t\t2.0000\t\t11.3191\t\t\n5466\t\t2.0000\t\t10.9501\t\t\n5468\t\t0.0000\t\t11.3433\t\t'
p711
sg106
g655
sg108
I00
sg109
V5456:5476,-5467
p712
sg110
g657
sg111
F10.0
sg112
I01
sg113
Fnan
sg114
g243
sg116
I00
sbatp713
Rp714
(dp715
g59
S'datasets_items'
p716
sg61
g12
sbsg81
I00
sg82
Vgr1V
p717
sg121
I2
sg122
g696
sg123
g0
(g1
g2
(lp718
I1
aI2
aI3
aI4
aI5
aI6
aI7
aI8
aI9
aI10
aI11
aI12
aI13
atp719
Rp720
(dp721
g59
S'grids_items'
p722
sg61
g123
sbsg129
I2
sg61
Vgr1V
p723
sbag4
(g5
tp724
Rp725
(dp726
g9
g10
sg11
I5
sg12
g0
(g1
g2
(lp727
g4
(g14
tp728
Rp729
(dp730
g9
g10
sg18
g616
sg20
Fnan
sg21
g4
(g22
tp731
Rp732
(dp733
g26
g622
sg9
g10
sg42
g633
sg49
g218
sg51
F0.0
sg52
F1000000000000000.0
sg53
F1000000000000000.0
sg54
g0
(g1
g2
(lp734
I01
aI01
aI01
aI01
aI01
atp735
Rp736
(dp737
g59
S'fit_mask_items'
p738
sg61
g54
sbsg62
g644
sg69
g424
sg71
Fnan
sg72
g648
sg74
F-1000000000000000.0
sg75
F-1000000000000000.0
sg76
I00
sg77
I00
sbsg78
I01
sg79
g231
sg232
I00
sg81
I01
sg82
g503
sg84
g83
sg85
I00
sg86
I00
sg87
I01
sg88
V/lab/data/app3/2013/1305/130521/
p739
sg90
g503
sg91
I00
sg92
I01
sg93
S'Mean                   =   7.428571\nStd. deviation         =   5.564098\nStd. error of the mean =   1.543203\nPk-Pk                  =  17.000000\n\nMean                   = 252.647307\nStd. deviation         =   0.240396\nStd. error of the mean =   0.066674\nPk-Pk                  =   0.921800\n\n'
p740
sg236
g83
sg94
Fnan
sg95
g651
sg97
VLATTICEPOS:gr1H
p741
sg99
g503
sg100
F1.0
sg101
g616
sg103
Fnan
sg61
g653
sg105
S'#\n# Column index\n#  0  SEQ:shot\n#  1  LATTICEPOS:gr1H\n#  2  CPP:ax0c\n\n5028\t\t20.0000\t\t252.8845\t\t\n5029\t\t20.0000\t\t252.9832\t\t\n5030\t\t10.0000\t\t252.8152\t\t\n5031\t\t10.0000\t\t252.6535\t\t\n5032\t\t6.0000\t\t252.6348\t\t\n5033\t\t6.0000\t\t252.7731\t\t\n5034\t\t5.0000\t\t252.4164\t\t\n5035\t\t5.0000\t\t252.1242\t\t\n5036\t\t5.0000\t\t252.5437\t\t\n5037\t\t4.0000\t\t252.3499\t\t\n5038\t\t4.0000\t\t252.6809\t\t\n5039\t\t3.0000\t\t252.5838\t\t\n5040\t\t3.0000\t\t253.0460\t\t\n5041\t\t3.0000\t\t252.5731\t\t'
p742
sg106
Vs
p743
sg108
I00
sg109
V5469:5479
p744
sg110
g657
sg111
F10.0
sg112
I01
sg113
Fnan
sg114
g243
sg116
I00
sbag4
(g14
tp745
Rp746
(dp747
g9
g10
sg18
g661
sg20
Fnan
sg21
g4
(g22
tp748
Rp749
(dp750
g26
g622
sg9
g10
sg42
g633
sg49
g218
sg51
F0.0
sg52
F1000000000000000.0
sg53
F1000000000000000.0
sg54
g0
(g1
g2
(lp751
I01
aI01
aI01
aI01
aI01
atp752
Rp753
(dp754
g59
S'fit_mask_items'
p755
sg61
g54
sbsg62
g644
sg69
g424
sg71
Fnan
sg72
g648
sg74
F-1000000000000000.0
sg75
F-1000000000000000.0
sg76
I00
sg77
I00
sbsg78
I01
sg79
g231
sg232
I00
sg81
I01
sg82
g503
sg84
g83
sg85
I00
sg86
I00
sg87
I01
sg88
V/lab/data/app3/2013/1305/130521/
p756
sg90
g503
sg91
I00
sg92
I01
sg93
S'Mean                   =   7.428571\nStd. deviation         =   5.564098\nStd. error of the mean =   1.543203\nPk-Pk                  =  17.000000\n\nMean                   = 209.470414\nStd. deviation         =   0.687601\nStd. error of the mean =   0.190706\nPk-Pk                  =   2.251300\n\n'
p757
sg236
g83
sg94
Fnan
sg95
g672
sg97
VLATTICEPOS:gr1H
p758
sg99
g503
sg100
F1.0
sg101
g661
sg103
Fnan
sg61
g674
sg105
S'#\n# Column index\n#  0  SEQ:shot\n#  1  LATTICEPOS:gr1H\n#  2  CPP:ax1c\n\n5028\t\t20.0000\t\t208.1221\t\t\n5029\t\t20.0000\t\t207.9405\t\t\n5030\t\t10.0000\t\t209.0504\t\t\n5031\t\t10.0000\t\t208.8753\t\t\n5032\t\t6.0000\t\t209.6321\t\t\n5033\t\t6.0000\t\t209.7341\t\t\n5034\t\t5.0000\t\t209.8160\t\t\n5035\t\t5.0000\t\t209.8123\t\t\n5036\t\t5.0000\t\t209.8347\t\t\n5037\t\t4.0000\t\t209.4987\t\t\n5038\t\t4.0000\t\t209.9520\t\t\n5039\t\t3.0000\t\t209.9919\t\t\n5040\t\t3.0000\t\t210.1339\t\t\n5041\t\t3.0000\t\t210.1918\t\t'
p759
sg106
Vs
p760
sg108
I00
sg109
V5469:5479
p761
sg110
g657
sg111
F10.0
sg112
I01
sg113
Fnan
sg114
g243
sg116
I00
sbag4
(g14
tp762
Rp763
(dp764
g9
g10
sg18
g680
sg20
Fnan
sg21
g4
(g22
tp765
Rp766
(dp767
g26
g622
sg9
g10
sg42
g633
sg49
g218
sg51
F0.0
sg52
F1000000000000000.0
sg53
F1000000000000000.0
sg54
g0
(g1
g2
(lp768
I01
aI01
aI01
aI01
aI01
atp769
Rp770
(dp771
g59
S'fit_mask_items'
p772
sg61
g54
sbsg62
g644
sg69
g424
sg71
Fnan
sg72
g648
sg74
F-1000000000000000.0
sg75
F-1000000000000000.0
sg76
I00
sg77
I00
sbsg78
I01
sg79
g231
sg232
I00
sg81
I01
sg82
g503
sg84
g83
sg85
I00
sg86
I00
sg87
I01
sg88
V/lab/data/app3/2013/1305/130521/
p773
sg90
g503
sg91
I00
sg92
I01
sg93
S'Mean                   =   7.428571\nStd. deviation         =   5.564098\nStd. error of the mean =   1.543203\nPk-Pk                  =  17.000000\n\nMean                   =  14.520176\nStd. deviation         =   0.311829\nStd. error of the mean =   0.086486\nPk-Pk                  =   1.193020\n\n'
p774
sg236
g83
sg94
Fnan
sg95
g691
sg97
VLATTICEPOS:gr1H
p775
sg99
g503
sg100
F1.0
sg101
g680
sg103
Fnan
sg61
g692
sg105
S'#\n# Column index\n#  0  SEQ:shot\n#  1  LATTICEPOS:gr1H\n#  2  CPP:ax0w\n\n5028\t\t20.0000\t\t14.4438\t\t\n5029\t\t20.0000\t\t14.9747\t\t\n5030\t\t10.0000\t\t14.8158\t\t\n5031\t\t10.0000\t\t14.8526\t\t\n5032\t\t6.0000\t\t14.1991\t\t\n5033\t\t6.0000\t\t14.4669\t\t\n5034\t\t5.0000\t\t14.5311\t\t\n5035\t\t5.0000\t\t13.8221\t\t\n5036\t\t5.0000\t\t14.5113\t\t\n5037\t\t4.0000\t\t14.3461\t\t\n5038\t\t4.0000\t\t14.4930\t\t\n5039\t\t3.0000\t\t14.2393\t\t\n5040\t\t3.0000\t\t14.5716\t\t\n5041\t\t3.0000\t\t15.0151\t\t'
p776
sg106
Vs
p777
sg108
I00
sg109
V5469:5479
p778
sg110
g657
sg111
F10.0
sg112
I01
sg113
Fnan
sg114
g243
sg116
I00
sbag4
(g14
tp779
Rp780
(dp781
g9
g10
sg18
g698
sg20
Fnan
sg21
g4
(g22
tp782
Rp783
(dp784
g26
g622
sg9
g10
sg42
g633
sg49
g218
sg51
F0.0
sg52
F1000000000000000.0
sg53
F1000000000000000.0
sg54
g0
(g1
g2
(lp785
I01
aI01
aI01
aI01
aI01
atp786
Rp787
(dp788
g59
S'fit_mask_items'
p789
sg61
g54
sbsg62
g644
sg69
g424
sg71
Fnan
sg72
g648
sg74
F-1000000000000000.0
sg75
F-1000000000000000.0
sg76
I00
sg77
I00
sbsg78
I01
sg79
g231
sg232
I00
sg81
I01
sg82
g503
sg84
g83
sg85
I00
sg86
I00
sg87
I01
sg88
V/lab/data/app3/2013/1305/130521/
p790
sg90
g503
sg91
I00
sg92
I01
sg93
S'Mean                   =   7.428571\nStd. deviation         =   5.564098\nStd. error of the mean =   1.543203\nPk-Pk                  =  17.000000\n\nMean                   =   9.247568\nStd. deviation         =   0.129391\nStd. error of the mean =   0.035887\nPk-Pk                  =   0.485984\n\n'
p791
sg236
g83
sg94
Fnan
sg95
g709
sg97
VLATTICEPOS:gr1H
p792
sg99
g503
sg100
F1.0
sg101
g698
sg103
Fnan
sg61
g710
sg105
S'#\n# Column index\n#  0  SEQ:shot\n#  1  LATTICEPOS:gr1H\n#  2  CPP:ax1w\n\n5028\t\t20.0000\t\t9.0986\t\t\n5029\t\t20.0000\t\t9.3062\t\t\n5030\t\t10.0000\t\t9.3193\t\t\n5031\t\t10.0000\t\t9.5674\t\t\n5032\t\t6.0000\t\t9.0814\t\t\n5033\t\t6.0000\t\t9.2070\t\t\n5034\t\t5.0000\t\t9.3317\t\t\n5035\t\t5.0000\t\t9.1934\t\t\n5036\t\t5.0000\t\t9.1286\t\t\n5037\t\t4.0000\t\t9.4237\t\t\n5038\t\t4.0000\t\t9.2003\t\t\n5039\t\t3.0000\t\t9.1274\t\t\n5040\t\t3.0000\t\t9.2328\t\t\n5041\t\t3.0000\t\t9.2484\t\t'
p793
sg106
Vs
p794
sg108
I00
sg109
V5469:5479
p795
sg110
g657
sg111
F10.0
sg112
I01
sg113
Fnan
sg114
g243
sg116
I00
sbag4
(g14
tp796
Rp797
(dp798
g9
g10
sg18
Vblack
p799
sg20
Fnan
sg21
g4
(g22
tp800
Rp801
(dp802
g26
g622
sg9
g10
sg42
g633
sg49
g218
sg51
F0.0
sg52
F1000000000000000.0
sg53
F1000000000000000.0
sg54
g0
(g1
g2
(lp803
I01
aI01
aI01
aI01
aI01
atp804
Rp805
(dp806
g59
S'fit_mask_items'
p807
sg61
g54
sbsg62
g644
sg69
g424
sg71
Fnan
sg72
g648
sg74
F-1000000000000000.0
sg75
F-1000000000000000.0
sg76
I00
sg77
I00
sbsg78
I01
sg79
g231
sg232
I00
sg81
I01
sg82
g503
sg84
g83
sg85
I00
sg86
I00
sg87
I01
sg88
V/lab/data/app3/2013/1305/130521/
p808
sg90
g503
sg91
I00
sg92
I01
sg93
S'Mean                   =   7.428571\nStd. deviation         =   5.564098\nStd. error of the mean =   1.543203\nPk-Pk                  =  17.000000\n\nMean                   = 196297.185714\nStd. deviation         = 11432.531425\nStd. error of the mean = 3170.813712\nPk-Pk                  = 44313.100000\n\n'
p809
sg236
g83
sg94
Fnan
sg95
VCPP:nfit
p810
sg97
g741
sg99
g503
sg100
F1.0
sg101
g799
sg103
Fnan
sg61
VN
p811
sg105
S'#\n# Column index\n#  0  SEQ:shot\n#  1  LATTICEPOS:gr1H\n#  2  CPP:nfit\n\n5028\t\t20.0000\t\t1.756e+05\t\t\n5029\t\t20.0000\t\t2.023e+05\t\t\n5030\t\t10.0000\t\t2.093e+05\t\t\n5031\t\t10.0000\t\t2.046e+05\t\t\n5032\t\t6.0000\t\t1.861e+05\t\t\n5033\t\t6.0000\t\t1.894e+05\t\t\n5034\t\t5.0000\t\t1.998e+05\t\t\n5035\t\t5.0000\t\t1.807e+05\t\t\n5036\t\t5.0000\t\t1.898e+05\t\t\n5037\t\t4.0000\t\t2.066e+05\t\t\n5038\t\t4.0000\t\t1.939e+05\t\t\n5039\t\t3.0000\t\t1.936e+05\t\t\n5040\t\t3.0000\t\t1.965e+05\t\t\n5041\t\t3.0000\t\t2.199e+05\t\t'
p812
sg106
g743
sg108
I00
sg109
V5469:5479
p813
sg110
g657
sg111
F10.0
sg112
I01
sg113
Fnan
sg114
g243
sg116
I00
sbag4
(g14
tp814
Rp815
(dp816
g9
g10
sg18
Vblack
p817
sg20
Fnan
sg21
g4
(g22
tp818
Rp819
(dp820
g26
g622
sg9
g10
sg42
g633
sg49
g218
sg51
F0.0
sg52
F1000000000000000.0
sg53
F1000000000000000.0
sg54
g0
(g1
g2
(lp821
I01
aI01
aI01
aI01
aI01
atp822
Rp823
(dp824
g59
S'fit_mask_items'
p825
sg61
g54
sbsg62
g644
sg69
g424
sg71
Fnan
sg72
g648
sg74
F-1000000000000000.0
sg75
F-1000000000000000.0
sg76
I00
sg77
I00
sbsg78
I01
sg79
g231
sg232
I00
sg81
I01
sg82
g503
sg84
g83
sg85
I00
sg86
I00
sg87
I01
sg88
V/lab/data/app3/2013/1305/130521/
p826
sg90
g503
sg91
I00
sg92
I01
sg93
S'Mean                   =   7.428571\nStd. deviation         =   5.564098\nStd. error of the mean =   1.543203\nPk-Pk                  =  17.000000\n\nMean                   = 22642912142857.144531\nStd. deviation         = 786445091191.809692\nStd. error of the mean = 218120623202.232544\nPk-Pk                  = 3202010000000.000000\n\n'
p827
sg236
g83
sg94
Fnan
sg95
VCPP:peakd_sph
p828
sg97
VLATTICEPOS:gr1H
p829
sg99
g503
sg100
F1.0
sg101
g817
sg103
Fnan
sg61
Vpeakd
p830
sg105
S'#\n# Column index\n#  0  SEQ:shot\n#  1  LATTICEPOS:gr1H\n#  2  CPP:peakd_sph\n\n5028\t\t20.0000\t\t2.093e+13\t\t\n5029\t\t20.0000\t\t2.208e+13\t\t\n5030\t\t10.0000\t\t2.317e+13\t\t\n5031\t\t10.0000\t\t2.169e+13\t\t\n5032\t\t6.0000\t\t2.282e+13\t\t\n5033\t\t6.0000\t\t2.213e+13\t\t\n5034\t\t5.0000\t\t2.273e+13\t\t\n5035\t\t5.0000\t\t2.266e+13\t\t\n5036\t\t5.0000\t\t2.236e+13\t\t\n5037\t\t4.0000\t\t2.361e+13\t\t\n5038\t\t4.0000\t\t2.261e+13\t\t\n5039\t\t3.0000\t\t2.347e+13\t\t\n5040\t\t3.0000\t\t2.261e+13\t\t\n5041\t\t3.0000\t\t2.413e+13\t\t'
p831
sg106
g743
sg108
I00
sg109
V5469:5479
p832
sg110
g657
sg111
F10.0
sg112
I01
sg113
Fnan
sg114
g243
sg116
I00
sbatp833
Rp834
(dp835
g59
S'datasets_items'
p836
sg61
g12
sbsg81
I00
sg82
Vgr1H
p837
sg121
I3
sg122
g815
sg123
g0
(g1
g2
(lp838
I1
aI2
aI3
aI4
aI5
aI6
atp839
Rp840
(dp841
g59
S'grids_items'
p842
sg61
g123
sbsg129
I2
sg61
Vgr1H
p843
sbag4
(g5
tp844
Rp845
(dp846
g9
g10
sg11
I0
sg12
g0
(g1
g2
(lp847
g4
(g14
tp848
Rp849
(dp850
g9
g10
sg18
Vgreen
p851
sg20
Fnan
sg21
g4
(g22
tp852
Rp853
(dp854
g26
g622
sg9
g10
sg42
g633
sg49
g218
sg51
F0.0
sg52
F1000000000000000.0
sg53
F1000000000000000.0
sg54
g0
(g1
g2
(lp855
I01
aI01
aI01
aI01
aI01
atp856
Rp857
(dp858
g59
S'fit_mask_items'
p859
sg61
g54
sbsg62
g644
sg69
g424
sg71
Fnan
sg72
g648
sg74
F-1000000000000000.0
sg75
F-1000000000000000.0
sg76
I00
sg77
I00
sbsg78
I01
sg79
g231
sg232
I00
sg81
I01
sg82
g503
sg84
g83
sg85
I00
sg86
I00
sg87
I01
sg88
V/lab/data/app3/2013/1305/130520/
p860
sg90
g503
sg91
I00
sg92
I01
sg93
S'Mean                   =   3.500000\nStd. deviation         =   1.118034\nStd. error of the mean =   0.422577\nPk-Pk                  =   3.000000\n\nMean                   = 252.107450\nStd. deviation         =   0.373487\nStd. error of the mean =   0.141165\nPk-Pk                  =   1.152400\n\n'
p861
sg236
g83
sg94
Fnan
sg95
g651
sg97
VLATTICEPOS:gr2V
p862
sg99
g503
sg100
F1.0
sg101
g851
sg103
Fnan
sg61
g653
sg105
S'#\n# Column index\n#  0  SEQ:shot\n#  1  LATTICEPOS:gr2V\n#  2  CPP:ax0c\n\n4078\t\t5.0000\t\t252.6562\t\t\n4079\t\t5.0000\t\t252.5176\t\t\n4080\t\t4.0000\t\t252.0732\t\t\n4081\t\t4.0000\t\t252.2722\t\t\n4082\t\t3.0000\t\t252.1109\t\t\n4083\t\t3.0000\t\t252.1219\t\t\n4084\t\t2.0000\t\t251.5038\t\t\n4085\t\t2.0000\t\t251.6038\t\t\n4086\t\t'
p863
sg106
Vs
p864
sg108
I00
sg109
V5107:5119
p865
sg110
g657
sg111
F10.0
sg112
I01
sg113
Fnan
sg114
g243
sg116
I00
sbag4
(g14
tp866
Rp867
(dp868
g9
g10
sg18
Vgreen
p869
sg20
Fnan
sg21
g4
(g22
tp870
Rp871
(dp872
g26
g622
sg9
g10
sg42
g633
sg49
g218
sg51
F0.0
sg52
F1000000000000000.0
sg53
F1000000000000000.0
sg54
g0
(g1
g2
(lp873
I01
aI01
aI01
aI01
aI01
atp874
Rp875
(dp876
g59
S'fit_mask_items'
p877
sg61
g54
sbsg62
g644
sg69
g424
sg71
Fnan
sg72
g648
sg74
F-1000000000000000.0
sg75
F-1000000000000000.0
sg76
I00
sg77
I00
sbsg78
I01
sg79
g231
sg232
I00
sg81
I01
sg82
g503
sg84
g83
sg85
I00
sg86
I00
sg87
I01
sg88
V/lab/data/app3/2013/1305/130520/
p878
sg90
g503
sg91
I00
sg92
I01
sg93
S'Mean                   =   3.500000\nStd. deviation         =   1.118034\nStd. error of the mean =   0.422577\nPk-Pk                  =   3.000000\n\nMean                   = 207.530187\nStd. deviation         =   0.179899\nStd. error of the mean =   0.067995\nPk-Pk                  =   0.514600\n\n'
p879
sg236
g83
sg94
Fnan
sg95
g672
sg97
VLATTICEPOS:gr2V
p880
sg99
g503
sg100
F1.0
sg101
g869
sg103
Fnan
sg61
g674
sg105
S'#\n# Column index\n#  0  SEQ:shot\n#  1  LATTICEPOS:gr2V\n#  2  CPP:ax1c\n\n4078\t\t5.0000\t\t207.4151\t\t\n4079\t\t5.0000\t\t207.8203\t\t\n4080\t\t4.0000\t\t207.5556\t\t\n4081\t\t4.0000\t\t207.3057\t\t\n4082\t\t3.0000\t\t207.7012\t\t\n4083\t\t3.0000\t\t207.3452\t\t\n4084\t\t2.0000\t\t207.3971\t\t\n4085\t\t2.0000\t\t207.7013\t\t\n4086\t\t'
p881
sg106
Vs
p882
sg108
I00
sg109
V5107:5119
p883
sg110
g657
sg111
F10.0
sg112
I01
sg113
Fnan
sg114
g243
sg116
I00
sbag4
(g14
tp884
Rp885
(dp886
g9
g10
sg18
Vgreen
p887
sg20
Fnan
sg21
g4
(g22
tp888
Rp889
(dp890
g26
g622
sg9
g10
sg42
g633
sg49
g218
sg51
F0.0
sg52
F1000000000000000.0
sg53
F1000000000000000.0
sg54
g0
(g1
g2
(lp891
I01
aI01
aI01
aI01
aI01
atp892
Rp893
(dp894
g59
S'fit_mask_items'
p895
sg61
g54
sbsg62
g644
sg69
g424
sg71
Fnan
sg72
g648
sg74
F-1000000000000000.0
sg75
F-1000000000000000.0
sg76
I00
sg77
I00
sbsg78
I01
sg79
g231
sg232
I00
sg81
I01
sg82
g503
sg84
g83
sg85
I00
sg86
I00
sg87
I01
sg88
V/lab/data/app3/2013/1305/130520/
p896
sg90
g503
sg91
I00
sg92
I01
sg93
S'Mean                   =   3.500000\nStd. deviation         =   1.118034\nStd. error of the mean =   0.422577\nPk-Pk                  =   3.000000\n\nMean                   =  22.822346\nStd. deviation         =   0.153808\nStd. error of the mean =   0.058134\nPk-Pk                  =   0.500840\n\n'
p897
sg236
g83
sg94
Fnan
sg95
g691
sg97
VLATTICEPOS:gr2V
p898
sg99
g503
sg100
F1.0
sg101
g887
sg103
Fnan
sg61
g692
sg105
S'#\n# Column index\n#  0  SEQ:shot\n#  1  LATTICEPOS:gr2V\n#  2  CPP:ax0w\n\n4078\t\t5.0000\t\t22.9404\t\t\n4079\t\t5.0000\t\t22.7419\t\t\n4080\t\t4.0000\t\t22.8506\t\t\n4081\t\t4.0000\t\t22.9304\t\t\n4082\t\t3.0000\t\t22.7841\t\t\n4083\t\t3.0000\t\t22.9652\t\t\n4084\t\t2.0000\t\t22.9019\t\t\n4085\t\t2.0000\t\t22.4643\t\t\n4086\t\t'
p899
sg106
Vs
p900
sg108
I00
sg109
V5107:5119
p901
sg110
g657
sg111
F10.0
sg112
I01
sg113
Fnan
sg114
g243
sg116
I00
sbag4
(g14
tp902
Rp903
(dp904
g9
g10
sg18
Vgreen
p905
sg20
Fnan
sg21
g4
(g22
tp906
Rp907
(dp908
g26
g622
sg9
g10
sg42
g633
sg49
g218
sg51
F0.0
sg52
F1000000000000000.0
sg53
F1000000000000000.0
sg54
g0
(g1
g2
(lp909
I01
aI01
aI01
aI01
aI01
atp910
Rp911
(dp912
g59
S'fit_mask_items'
p913
sg61
g54
sbsg62
g644
sg69
g424
sg71
Fnan
sg72
g648
sg74
F-1000000000000000.0
sg75
F-1000000000000000.0
sg76
I00
sg77
I00
sbsg78
I01
sg79
g231
sg232
I00
sg81
I01
sg82
g503
sg84
g83
sg85
I00
sg86
I00
sg87
I01
sg88
V/lab/data/app3/2013/1305/130520/
p914
sg90
g503
sg91
I00
sg92
I01
sg93
S'Mean                   =   3.500000\nStd. deviation         =   1.118034\nStd. error of the mean =   0.422577\nPk-Pk                  =   3.000000\n\nMean                   =  13.827106\nStd. deviation         =   0.174143\nStd. error of the mean =   0.065820\nPk-Pk                  =   0.523710\n\n'
p915
sg236
g83
sg94
Fnan
sg95
g709
sg97
VLATTICEPOS:gr2V
p916
sg99
g503
sg100
F1.0
sg101
g905
sg103
Fnan
sg61
g710
sg105
S'#\n# Column index\n#  0  SEQ:shot\n#  1  LATTICEPOS:gr2V\n#  2  CPP:ax1w\n\n4078\t\t5.0000\t\t13.8919\t\t\n4079\t\t5.0000\t\t13.6693\t\t\n4080\t\t4.0000\t\t14.0805\t\t\n4081\t\t4.0000\t\t13.6296\t\t\n4082\t\t3.0000\t\t13.8698\t\t\n4083\t\t3.0000\t\t13.9452\t\t\n4084\t\t2.0000\t\t13.9737\t\t\n4085\t\t2.0000\t\t13.5568\t\t\n4086\t\t'
p917
sg106
Vs
p918
sg108
I00
sg109
V5107:5119
p919
sg110
g657
sg111
F10.0
sg112
I01
sg113
Fnan
sg114
g243
sg116
I00
sbatp920
Rp921
(dp922
g59
S'datasets_items'
p923
sg61
g12
sbsg81
I00
sg82
Vgr2V
p924
sg121
I2
sg122
g849
sg123
g0
(g1
g2
(lp925
I1
aI2
aI3
aI4
aI5
aI6
aI7
aI8
aI9
aI10
aI11
aI12
aI13
atp926
Rp927
(dp928
g59
S'grids_items'
p929
sg61
g123
sbsg129
I2
sg61
Vgr2V
p930
sbag4
(g5
tp931
Rp932
(dp933
g9
g10
sg11
I0
sg12
g0
(g1
g2
(lp934
g4
(g14
tp935
Rp936
(dp937
g9
g10
sg18
Vblue
p938
sg20
Fnan
sg21
g4
(g22
tp939
Rp940
(dp941
g26
g622
sg9
g10
sg42
g633
sg49
g218
sg51
F0.0
sg52
F1000000000000000.0
sg53
F1000000000000000.0
sg54
g0
(g1
g2
(lp942
I01
aI01
aI01
aI01
aI01
atp943
Rp944
(dp945
g59
S'fit_mask_items'
p946
sg61
g54
sbsg62
g644
sg69
g424
sg71
Fnan
sg72
g648
sg74
F-1000000000000000.0
sg75
F-1000000000000000.0
sg76
I00
sg77
I00
sbsg78
I01
sg79
g231
sg232
I00
sg81
I01
sg82
g503
sg84
g83
sg85
I00
sg86
I00
sg87
I01
sg88
V/lab/data/app3/2013/1305/130520/
p947
sg90
g503
sg91
I00
sg92
I01
sg93
S'Mean                   =  -4.428571\nStd. deviation         =  10.272809\nStd. error of the mean =   1.977003\nPk-Pk                  =  32.000000\n\nMean                   = 252.189404\nStd. deviation         =   0.101574\nStd. error of the mean =   0.019548\nPk-Pk                  =   0.392800\n\n'
p948
sg236
g83
sg94
Fnan
sg95
g651
sg97
VLATTICEPOS:gr3H
p949
sg99
g503
sg100
F1.0
sg101
g938
sg103
Fnan
sg61
g653
sg105
S'#\n# Column index\n#  0  SEQ:shot\n#  1  LATTICEPOS:gr3H\n#  2  CPP:ax0c\n\n5044\t\t12.0000\t\t252.0568\t\t\n5045\t\t12.0000\t\t252.1958\t\t\n5046\t\t12.0000\t\t252.1556\t\t\n5047\t\t8.0000\t\t252.2255\t\t\n5048\t\t8.0000\t\t252.2735\t\t\n5049\t\t8.0000\t\t252.3110\t\t\n5050\t\t4.0000\t\t252.2167\t\t\n5051\t\t4.0000\t\t252.2757\t\t\n5052\t\t4.0000\t\t252.2179\t\t\n5053\t\t0.0000\t\t252.1532\t\t\n5054\t\t0.0000\t\t252.1287\t\t\n5055\t\t0.0000\t\t252.2222\t\t\n5056\t\t-4.0000\t\t252.2378\t\t\n5057\t\t-4.0000\t\t252.2678\t\t\n5058\t\t-8.0000\t\t252.0923\t\t\n5059\t\t-8.0000\t\t252.3536\t\t\n5060\t\t-8.0000\t\t252.2146\t\t\n5061\t\t-8.0000\t\t252.0716\t\t\n5062\t\t-12.0000\t\t252.1168\t\t\n5063\t\t-12.0000\t\t252.3562\t\t\n5064\t\t-12.0000\t\t252.2589\t\t\n5065\t\t-12.0000\t\t252.0324\t\t\n5066\t\t-16.0000\t\t251.9751\t\t\n5067\t\t-16.0000\t\t252.2942\t\t\n5068\t\t-16.0000\t\t252.2235\t\t\n5069\t\t-20.0000\t\t252.2163\t\t\n5070\t\t-20.0000\t\t251.9634\t\t\n5071\t\t-20.0000\t\t252.1962\t\t'
p950
sg106
Vs
p951
sg108
I00
sg109
V5044:5071
p952
sg110
g657
sg111
F10.0
sg112
I01
sg113
Fnan
sg114
g243
sg116
I00
sbag4
(g14
tp953
Rp954
(dp955
g9
g10
sg18
Vblue
p956
sg20
Fnan
sg21
g4
(g22
tp957
Rp958
(dp959
g26
g622
sg9
g10
sg42
g633
sg49
g218
sg51
F0.0
sg52
F1000000000000000.0
sg53
F1000000000000000.0
sg54
g0
(g1
g2
(lp960
I01
aI01
aI01
aI01
aI01
atp961
Rp962
(dp963
g59
S'fit_mask_items'
p964
sg61
g54
sbsg62
g644
sg69
g424
sg71
Fnan
sg72
g648
sg74
F-1000000000000000.0
sg75
F-1000000000000000.0
sg76
I00
sg77
I00
sbsg78
I01
sg79
g231
sg232
I00
sg81
I01
sg82
g503
sg84
g83
sg85
I00
sg86
I00
sg87
I01
sg88
V/lab/data/app3/2013/1305/130520/
p965
sg90
g503
sg91
I00
sg92
I01
sg93
S'Mean                   =  -4.428571\nStd. deviation         =  10.272809\nStd. error of the mean =   1.977003\nPk-Pk                  =  32.000000\n\nMean                   = 213.385257\nStd. deviation         =   1.098924\nStd. error of the mean =   0.211488\nPk-Pk                  =   3.851400\n\n'
p966
sg236
g83
sg94
Fnan
sg95
g672
sg97
VLATTICEPOS:gr3H
p967
sg99
g503
sg100
F1.0
sg101
g956
sg103
Fnan
sg61
g674
sg105
S'#\n# Column index\n#  0  SEQ:shot\n#  1  LATTICEPOS:gr3H\n#  2  CPP:ax1c\n\n5044\t\t12.0000\t\t214.3477\t\t\n5045\t\t12.0000\t\t214.8243\t\t\n5046\t\t12.0000\t\t214.9279\t\t\n5047\t\t8.0000\t\t214.5931\t\t\n5048\t\t8.0000\t\t214.4424\t\t\n5049\t\t8.0000\t\t214.8119\t\t\n5050\t\t4.0000\t\t214.4129\t\t\n5051\t\t4.0000\t\t214.5371\t\t\n5052\t\t4.0000\t\t214.4644\t\t\n5053\t\t0.0000\t\t214.3324\t\t\n5054\t\t0.0000\t\t214.0111\t\t\n5055\t\t0.0000\t\t213.8060\t\t\n5056\t\t-4.0000\t\t213.5944\t\t\n5057\t\t-4.0000\t\t213.7577\t\t\n5058\t\t-8.0000\t\t213.2029\t\t\n5059\t\t-8.0000\t\t213.2529\t\t\n5060\t\t-8.0000\t\t213.0317\t\t\n5061\t\t-8.0000\t\t213.2351\t\t\n5062\t\t-12.0000\t\t213.0157\t\t\n5063\t\t-12.0000\t\t212.4999\t\t\n5064\t\t-12.0000\t\t212.3220\t\t\n5065\t\t-12.0000\t\t212.3281\t\t\n5066\t\t-16.0000\t\t211.8997\t\t\n5067\t\t-16.0000\t\t212.1251\t\t\n5068\t\t-16.0000\t\t212.0481\t\t\n5069\t\t-20.0000\t\t211.6350\t\t\n5070\t\t-20.0000\t\t212.2512\t\t\n5071\t\t-20.0000\t\t211.0765\t\t'
p968
sg106
Vs
p969
sg108
I00
sg109
V5044:5071
p970
sg110
g657
sg111
F10.0
sg112
I01
sg113
Fnan
sg114
g243
sg116
I00
sbag4
(g14
tp971
Rp972
(dp973
g9
g10
sg18
Vblue
p974
sg20
Fnan
sg21
g4
(g22
tp975
Rp976
(dp977
g26
g622
sg9
g10
sg42
g633
sg49
g218
sg51
F0.0
sg52
F1000000000000000.0
sg53
F1000000000000000.0
sg54
g0
(g1
g2
(lp978
I01
aI01
aI01
aI01
aI01
atp979
Rp980
(dp981
g59
S'fit_mask_items'
p982
sg61
g54
sbsg62
g644
sg69
g424
sg71
Fnan
sg72
g648
sg74
F-1000000000000000.0
sg75
F-1000000000000000.0
sg76
I00
sg77
I00
sbsg78
I01
sg79
g231
sg232
I00
sg81
I01
sg82
g503
sg84
g83
sg85
I00
sg86
I00
sg87
I01
sg88
V/lab/data/app3/2013/1305/130520/
p983
sg90
g503
sg91
I00
sg92
I01
sg93
S'Mean                   =  -4.428571\nStd. deviation         =  10.272809\nStd. error of the mean =   1.977003\nPk-Pk                  =  32.000000\n\nMean                   =   9.960650\nStd. deviation         =   0.198455\nStd. error of the mean =   0.038193\nPk-Pk                  =   0.615022\n\n'
p984
sg236
g83
sg94
Fnan
sg95
g691
sg97
VLATTICEPOS:gr3H
p985
sg99
g503
sg100
F1.0
sg101
g974
sg103
Fnan
sg61
g692
sg105
S'#\n# Column index\n#  0  SEQ:shot\n#  1  LATTICEPOS:gr3H\n#  2  CPP:ax0w\n\n5044\t\t12.0000\t\t10.2211\t\t\n5045\t\t12.0000\t\t10.2541\t\t\n5046\t\t12.0000\t\t10.0084\t\t\n5047\t\t8.0000\t\t10.2554\t\t\n5048\t\t8.0000\t\t9.6530\t\t\n5049\t\t8.0000\t\t10.0007\t\t\n5050\t\t4.0000\t\t10.2052\t\t\n5051\t\t4.0000\t\t9.9901\t\t\n5052\t\t4.0000\t\t9.8769\t\t\n5053\t\t0.0000\t\t9.7424\t\t\n5054\t\t0.0000\t\t10.0635\t\t\n5055\t\t0.0000\t\t10.1269\t\t\n5056\t\t-4.0000\t\t9.6786\t\t\n5057\t\t-4.0000\t\t9.8683\t\t\n5058\t\t-8.0000\t\t10.2047\t\t\n5059\t\t-8.0000\t\t9.8794\t\t\n5060\t\t-8.0000\t\t9.7287\t\t\n5061\t\t-8.0000\t\t9.9312\t\t\n5062\t\t-12.0000\t\t9.7494\t\t\n5063\t\t-12.0000\t\t9.6575\t\t\n5064\t\t-12.0000\t\t9.8356\t\t\n5065\t\t-12.0000\t\t9.9539\t\t\n5066\t\t-16.0000\t\t10.1910\t\t\n5067\t\t-16.0000\t\t10.1045\t\t\n5068\t\t-16.0000\t\t9.9849\t\t\n5069\t\t-20.0000\t\t9.6403\t\t\n5070\t\t-20.0000\t\t10.2151\t\t\n5071\t\t-20.0000\t\t9.8772\t\t'
p986
sg106
Vs
p987
sg108
I00
sg109
V5044:5071
p988
sg110
g657
sg111
F10.0
sg112
I01
sg113
Fnan
sg114
g243
sg116
I00
sbag4
(g14
tp989
Rp990
(dp991
g9
g10
sg18
Vblue
p992
sg20
Fnan
sg21
g4
(g22
tp993
Rp994
(dp995
g26
g622
sg9
g10
sg42
g633
sg49
g218
sg51
F0.0
sg52
F1000000000000000.0
sg53
F1000000000000000.0
sg54
g0
(g1
g2
(lp996
I01
aI01
aI01
aI01
aI01
atp997
Rp998
(dp999
g59
S'fit_mask_items'
p1000
sg61
g54
sbsg62
g644
sg69
g424
sg71
Fnan
sg72
g648
sg74
F-1000000000000000.0
sg75
F-1000000000000000.0
sg76
I00
sg77
I00
sbsg78
I01
sg79
g231
sg232
I00
sg81
I01
sg82
g503
sg84
g83
sg85
I00
sg86
I00
sg87
I01
sg88
V/lab/data/app3/2013/1305/130520/
p1001
sg90
g503
sg91
I00
sg92
I01
sg93
S'Mean                   =  -4.428571\nStd. deviation         =  10.272809\nStd. error of the mean =   1.977003\nPk-Pk                  =  32.000000\n\nMean                   =  11.144262\nStd. deviation         =   0.727589\nStd. error of the mean =   0.140025\nPk-Pk                  =   2.245490\n\n'
p1002
sg236
g83
sg94
Fnan
sg95
g709
sg97
VLATTICEPOS:gr3H
p1003
sg99
g503
sg100
F1.0
sg101
g992
sg103
Fnan
sg61
g710
sg105
S'#\n# Column index\n#  0  SEQ:shot\n#  1  LATTICEPOS:gr3H\n#  2  CPP:ax1w\n\n5044\t\t12.0000\t\t10.0161\t\t\n5045\t\t12.0000\t\t10.2379\t\t\n5046\t\t12.0000\t\t10.1880\t\t\n5047\t\t8.0000\t\t10.0133\t\t\n5048\t\t8.0000\t\t10.3306\t\t\n5049\t\t8.0000\t\t10.1962\t\t\n5050\t\t4.0000\t\t10.3730\t\t\n5051\t\t4.0000\t\t10.7664\t\t\n5052\t\t4.0000\t\t10.5965\t\t\n5053\t\t0.0000\t\t10.5506\t\t\n5054\t\t0.0000\t\t10.7982\t\t\n5055\t\t0.0000\t\t10.9145\t\t\n5056\t\t-4.0000\t\t10.7822\t\t\n5057\t\t-4.0000\t\t10.9273\t\t\n5058\t\t-8.0000\t\t11.4127\t\t\n5059\t\t-8.0000\t\t11.4686\t\t\n5060\t\t-8.0000\t\t11.6769\t\t\n5061\t\t-8.0000\t\t11.6258\t\t\n5062\t\t-12.0000\t\t11.3900\t\t\n5063\t\t-12.0000\t\t12.0060\t\t\n5064\t\t-12.0000\t\t12.0720\t\t\n5065\t\t-12.0000\t\t11.7702\t\t\n5066\t\t-16.0000\t\t11.9685\t\t\n5067\t\t-16.0000\t\t12.0438\t\t\n5068\t\t-16.0000\t\t12.0888\t\t\n5069\t\t-20.0000\t\t11.6316\t\t\n5070\t\t-20.0000\t\t11.9348\t\t\n5071\t\t-20.0000\t\t12.2588\t\t'
p1004
sg106
Vs
p1005
sg108
I00
sg109
V5044:5071
p1006
sg110
g657
sg111
F10.0
sg112
I01
sg113
Fnan
sg114
g243
sg116
I00
sbatp1007
Rp1008
(dp1009
g59
S'datasets_items'
p1010
sg61
g12
sbsg81
I00
sg82
Vgr3H
p1011
sg121
I2
sg122
g936
sg123
g0
(g1
g2
(lp1012
I1
aI2
aI3
aI4
aI5
aI6
aI7
aI8
aI9
aI10
aI11
aI12
aI13
atp1013
Rp1014
(dp1015
g59
S'grids_items'
p1016
sg61
g123
sbsg129
I2
sg61
Vgr3H
p1017
sbag4
(g5
tp1018
Rp1019
(dp1020
g9
g10
sg11
I3
sg12
g0
(g1
g2
(lp1021
g4
(g14
tp1022
Rp1023
(dp1024
g9
g10
sg18
g938
sg20
Fnan
sg21
g4
(g22
tp1025
Rp1026
(dp1027
g26
g622
sg9
g10
sg42
g633
sg49
g218
sg51
F0.0
sg52
F1000000000000000.0
sg53
F1000000000000000.0
sg54
g0
(g1
g2
(lp1028
I01
aI01
aI01
aI01
aI01
atp1029
Rp1030
(dp1031
g59
S'fit_mask_items'
p1032
sg61
g54
sbsg62
g644
sg69
g424
sg71
Fnan
sg72
g648
sg74
F-1000000000000000.0
sg75
F-1000000000000000.0
sg76
I00
sg77
I00
sbsg78
I01
sg79
g231
sg232
I00
sg81
I01
sg82
g503
sg84
g83
sg85
I00
sg86
I00
sg87
I01
sg88
V/lab/data/app3/2013/1305/130520/
p1033
sg90
g503
sg91
I00
sg92
I01
sg93
S'Mean                   =  -4.000000\nStd. deviation         =   2.828427\nStd. error of the mean =   0.755929\nPk-Pk                  =   8.000000\n\nMean                   = 252.152793\nStd. deviation         =   0.127732\nStd. error of the mean =   0.034138\nPk-Pk                  =   0.466500\n\n'
p1034
sg236
g83
sg94
Fnan
sg95
g651
sg97
VLATTICEPOS:gr3V
p1035
sg99
g503
sg100
F1.0
sg101
g938
sg103
Fnan
sg61
g653
sg105
S'#\n# Column index\n#  0  SEQ:shot\n#  1  LATTICEPOS:gr3V\n#  2  CPP:ax0c\n\n5072\t\t0.0000\t\t252.2036\t\t\n5073\t\t0.0000\t\t252.1892\t\t\n5074\t\t0.0000\t\t252.0372\t\t\n5075\t\t-2.0000\t\t252.1882\t\t\n5076\t\t-2.0000\t\t252.3225\t\t\n5077\t\t-2.0000\t\t252.0141\t\t\n5078\t\t-4.0000\t\t252.1718\t\t\n5079\t\t-4.0000\t\t251.8807\t\t\n5080\t\t-4.0000\t\t252.1420\t\t\n5081\t\t-6.0000\t\t252.0678\t\t\n5082\t\t-6.0000\t\t252.3472\t\t\n5083\t\t-6.0000\t\t252.2841\t\t\n5084\t\t-8.0000\t\t252.2668\t\t\n5085\t\t-8.0000\t\t252.1886\t\t\n5086\t\t-8.0000\t\t251.9881\t\t'
p1036
sg106
Vo
p1037
sg108
I00
sg109
V5072:5094
p1038
sg110
g657
sg111
F10.0
sg112
I01
sg113
Fnan
sg114
g243
sg116
I00
sbag4
(g14
tp1039
Rp1040
(dp1041
g9
g10
sg18
g956
sg20
Fnan
sg21
g4
(g22
tp1042
Rp1043
(dp1044
g26
g622
sg9
g10
sg42
g633
sg49
g218
sg51
F0.0
sg52
F1000000000000000.0
sg53
F1000000000000000.0
sg54
g0
(g1
g2
(lp1045
I01
aI01
aI01
aI01
aI01
atp1046
Rp1047
(dp1048
g59
S'fit_mask_items'
p1049
sg61
g54
sbsg62
g644
sg69
g424
sg71
Fnan
sg72
g648
sg74
F-1000000000000000.0
sg75
F-1000000000000000.0
sg76
I00
sg77
I00
sbsg78
I01
sg79
g231
sg232
I00
sg81
I01
sg82
g503
sg84
g83
sg85
I00
sg86
I00
sg87
I01
sg88
V/lab/data/app3/2013/1305/130520/
p1050
sg90
g503
sg91
I00
sg92
I01
sg93
S'Mean                   =  -4.000000\nStd. deviation         =   2.828427\nStd. error of the mean =   0.755929\nPk-Pk                  =   8.000000\n\nMean                   = 211.107707\nStd. deviation         =   0.671302\nStd. error of the mean =   0.179413\nPk-Pk                  =   2.380600\n\n'
p1051
sg236
g83
sg94
Fnan
sg95
g672
sg97
VLATTICEPOS:gr3V
p1052
sg99
g503
sg100
F1.0
sg101
g956
sg103
Fnan
sg61
g674
sg105
S'#\n# Column index\n#  0  SEQ:shot\n#  1  LATTICEPOS:gr3V\n#  2  CPP:ax1c\n\n5072\t\t0.0000\t\t212.2640\t\t\n5073\t\t0.0000\t\t211.5792\t\t\n5074\t\t0.0000\t\t211.5225\t\t\n5075\t\t-2.0000\t\t211.6703\t\t\n5076\t\t-2.0000\t\t211.3177\t\t\n5077\t\t-2.0000\t\t211.8634\t\t\n5078\t\t-4.0000\t\t211.2981\t\t\n5079\t\t-4.0000\t\t211.3372\t\t\n5080\t\t-4.0000\t\t211.2092\t\t\n5081\t\t-6.0000\t\t211.1969\t\t\n5082\t\t-6.0000\t\t210.8319\t\t\n5083\t\t-6.0000\t\t210.3234\t\t\n5084\t\t-8.0000\t\t210.1609\t\t\n5085\t\t-8.0000\t\t209.8834\t\t\n5086\t\t-8.0000\t\t210.1575\t\t'
p1053
sg106
Vo
p1054
sg108
I00
sg109
V5072:5094
p1055
sg110
g657
sg111
F10.0
sg112
I01
sg113
Fnan
sg114
g243
sg116
I00
sbag4
(g14
tp1056
Rp1057
(dp1058
g9
g10
sg18
g974
sg20
Fnan
sg21
g4
(g22
tp1059
Rp1060
(dp1061
g26
g622
sg9
g10
sg42
g633
sg49
g218
sg51
F0.0
sg52
F1000000000000000.0
sg53
F1000000000000000.0
sg54
g0
(g1
g2
(lp1062
I01
aI01
aI01
aI01
aI01
atp1063
Rp1064
(dp1065
g59
S'fit_mask_items'
p1066
sg61
g54
sbsg62
g644
sg69
g424
sg71
Fnan
sg72
g648
sg74
F-1000000000000000.0
sg75
F-1000000000000000.0
sg76
I00
sg77
I00
sbsg78
I01
sg79
g231
sg232
I00
sg81
I01
sg82
g503
sg84
g83
sg85
I00
sg86
I00
sg87
I01
sg88
V/lab/data/app3/2013/1305/130520/
p1067
sg90
g503
sg91
I00
sg92
I01
sg93
S'Mean                   =  -4.000000\nStd. deviation         =   2.828427\nStd. error of the mean =   0.755929\nPk-Pk                  =   8.000000\n\nMean                   =   9.727532\nStd. deviation         =   0.300052\nStd. error of the mean =   0.080192\nPk-Pk                  =   1.069244\n\n'
p1068
sg236
g83
sg94
Fnan
sg95
g691
sg97
VLATTICEPOS:gr3V
p1069
sg99
g503
sg100
F1.0
sg101
g974
sg103
Fnan
sg61
g692
sg105
S'#\n# Column index\n#  0  SEQ:shot\n#  1  LATTICEPOS:gr3V\n#  2  CPP:ax0w\n\n5072\t\t0.0000\t\t10.0429\t\t\n5073\t\t0.0000\t\t9.7691\t\t\n5074\t\t0.0000\t\t9.8696\t\t\n5075\t\t-2.0000\t\t9.8780\t\t\n5076\t\t-2.0000\t\t10.1972\t\t\n5077\t\t-2.0000\t\t10.2706\t\t\n5078\t\t-4.0000\t\t9.8066\t\t\n5079\t\t-4.0000\t\t9.7812\t\t\n5080\t\t-4.0000\t\t9.4993\t\t\n5081\t\t-6.0000\t\t9.5939\t\t\n5082\t\t-6.0000\t\t9.7807\t\t\n5083\t\t-6.0000\t\t9.4432\t\t\n5084\t\t-8.0000\t\t9.4965\t\t\n5085\t\t-8.0000\t\t9.2826\t\t\n5086\t\t-8.0000\t\t9.2014\t\t'
p1070
sg106
Vo
p1071
sg108
I00
sg109
V5072:5094
p1072
sg110
g657
sg111
F10.0
sg112
I01
sg113
Fnan
sg114
g243
sg116
I00
sbag4
(g14
tp1073
Rp1074
(dp1075
g9
g10
sg18
g992
sg20
Fnan
sg21
g4
(g22
tp1076
Rp1077
(dp1078
g26
g622
sg9
g10
sg42
g633
sg49
g218
sg51
F0.0
sg52
F1000000000000000.0
sg53
F1000000000000000.0
sg54
g0
(g1
g2
(lp1079
I01
aI01
aI01
aI01
aI01
atp1080
Rp1081
(dp1082
g59
S'fit_mask_items'
p1083
sg61
g54
sbsg62
g644
sg69
g424
sg71
Fnan
sg72
g648
sg74
F-1000000000000000.0
sg75
F-1000000000000000.0
sg76
I00
sg77
I00
sbsg78
I01
sg79
g231
sg232
I00
sg81
I01
sg82
g503
sg84
g83
sg85
I00
sg86
I00
sg87
I01
sg88
V/lab/data/app3/2013/1305/130520/
p1084
sg90
g503
sg91
I00
sg92
I01
sg93
S'Mean                   =  -4.000000\nStd. deviation         =   2.828427\nStd. error of the mean =   0.755929\nPk-Pk                  =   8.000000\n\nMean                   =  12.257591\nStd. deviation         =   0.679764\nStd. error of the mean =   0.181675\nPk-Pk                  =   2.722260\n\n'
p1085
sg236
g83
sg94
Fnan
sg95
g709
sg97
VLATTICEPOS:gr3V
p1086
sg99
g503
sg100
F1.0
sg101
g992
sg103
Fnan
sg61
g710
sg105
S'#\n# Column index\n#  0  SEQ:shot\n#  1  LATTICEPOS:gr3V\n#  2  CPP:ax1w\n\n5072\t\t0.0000\t\t11.2389\t\t\n5073\t\t0.0000\t\t11.8097\t\t\n5074\t\t0.0000\t\t11.8231\t\t\n5075\t\t-2.0000\t\t12.1053\t\t\n5076\t\t-2.0000\t\t12.2421\t\t\n5077\t\t-2.0000\t\t12.1347\t\t\n5078\t\t-4.0000\t\t11.8237\t\t\n5079\t\t-4.0000\t\t12.5452\t\t\n5080\t\t-4.0000\t\t11.1229\t\t\n5081\t\t-6.0000\t\t12.7846\t\t\n5082\t\t-6.0000\t\t12.8987\t\t\n5083\t\t-6.0000\t\t11.9450\t\t\n5084\t\t-8.0000\t\t12.9595\t\t\n5085\t\t-8.0000\t\t13.8452\t\t\n5086\t\t-8.0000\t\t12.5854\t\t'
p1087
sg106
Vo
p1088
sg108
I00
sg109
V5072:5094
p1089
sg110
g657
sg111
F10.0
sg112
I01
sg113
Fnan
sg114
g243
sg116
I00
sbatp1090
Rp1091
(dp1092
g59
S'datasets_items'
p1093
sg61
g12
sbsg81
I00
sg82
Vgr3V
p1094
sg121
I2
sg122
g1074
sg123
g0
(g1
g2
(lp1095
I1
aI2
aI3
aI4
aI5
atp1096
Rp1097
(dp1098
g59
S'grids_items'
p1099
sg61
g123
sbsg129
I2
sg61
Vgr3V
p1100
sbag4
(g5
tp1101
Rp1102
(dp1103
g9
g10
sg11
I1
sg12
g0
(g1
g2
(lp1104
g4
(g14
tp1105
Rp1106
(dp1107
g9
g10
sg18
Vblack
p1108
sg20
Fnan
sg21
g4
(g22
tp1109
Rp1110
(dp1111
g26
g622
sg9
g10
sg42
g633
sg49
g218
sg51
F0.0
sg52
F1000000000000000.0
sg53
F1000000000000000.0
sg54
g0
(g1
g2
(lp1112
I01
aI01
aI01
aI01
aI01
atp1113
Rp1114
(dp1115
g59
S'fit_mask_items'
p1116
sg61
g54
sbsg62
g644
sg69
g424
sg71
Fnan
sg72
g648
sg74
F-1000000000000000.0
sg75
F-1000000000000000.0
sg76
I00
sg77
I00
sbsg78
I01
sg79
g231
sg232
I00
sg81
I01
sg82
g503
sg84
g83
sg85
I00
sg86
I00
sg87
I01
sg88
V/lab/data/app3/2013/1305/130520/
p1117
sg90
g503
sg91
I00
sg92
I01
sg93
S'Mean                   = 5097.500000\nStd. deviation         =   5.766281\nStd. error of the mean =   1.322876\nPk-Pk                  =  19.000000\n\nMean                   = 15690780500000.000000\nStd. deviation         = 2654166611008.953125\nStd. error of the mean = 608907580879.360718\nPk-Pk                  = 13537220000000.000000\n\n'
p1118
sg236
g83
sg94
Fnan
sg95
VCPP:peakd_sph
p1119
sg97
VSEQ:shot
p1120
sg99
g503
sg100
F1.0
sg101
g1108
sg103
Fnan
sg61
Vpeakd
p1121
sg105
S'#\n# Column index\n#  0  SEQ:shot\n#  1  SEQ:shot\n#  2  CPP:peakd_sph\n\n5088\t\t5088.0000\t\t1.572e+13\t\t\n5089\t\t5089.0000\t\t1.550e+13\t\t\n5090\t\t5090.0000\t\t1.358e+13\t\t\n5091\t\t5091.0000\t\t1.515e+13\t\t\n5092\t\t5092.0000\t\t1.428e+13\t\t\n5093\t\t5093.0000\t\t1.500e+13\t\t\n5094\t\t5094.0000\t\t1.361e+13\t\t\n5095\t\t5095.0000\t\t1.461e+13\t\t\n5096\t\t5096.0000\t\t1.670e+13\t\t\n5097\t\t5097.0000\t\t2.474e+13\t\t\n5098\t\t5098.0000\t\t1.983e+13\t\t\n5099\t\t5099.0000\t\t1.120e+13\t\t\n5100\t\t5100.0000\t\t1.741e+13\t\t\n5101\t\t5101.0000\t\t1.398e+13\t\t\n5102\t\t5102.0000\t\t1.592e+13\t\t\n5103\t\t5103.0000\t\t1.478e+13\t\t\n5104\t\t5104.0000\t\t1.474e+13\t\t\n5105\t\t5105.0000\t\t1.541e+13\t\t\n5106\t\t5106.0000\t\t1.612e+13\t\t\n5107\t\t5107.0000\t\t1.554e+13\t\t'
p1122
sg106
g1071
sg108
I00
sg109
V5088:5110
p1123
sg110
Vshot
p1124
sg111
F10.0
sg112
I01
sg113
Fnan
sg114
g243
sg116
I00
sbag4
(g14
tp1125
Rp1126
(dp1127
g9
g10
sg18
g1108
sg20
Fnan
sg21
g4
(g22
tp1128
Rp1129
(dp1130
g26
g622
sg9
g10
sg42
g633
sg49
g218
sg51
F0.0
sg52
F1000000000000000.0
sg53
F1000000000000000.0
sg54
g0
(g1
g2
(lp1131
I01
aI01
aI01
aI01
aI01
atp1132
Rp1133
(dp1134
g59
S'fit_mask_items'
p1135
sg61
g54
sbsg62
g644
sg69
g424
sg71
Fnan
sg72
g648
sg74
F-1000000000000000.0
sg75
F-1000000000000000.0
sg76
I00
sg77
I00
sbsg78
I01
sg79
g231
sg232
I00
sg81
I01
sg82
g503
sg84
g83
sg85
I00
sg86
I00
sg87
I01
sg88
g1117
sg90
g503
sg91
I00
sg92
I01
sg93
S'Mean                   = 5097.500000\nStd. deviation         =   5.766281\nStd. error of the mean =   1.322876\nPk-Pk                  =  19.000000\n\nMean                   = 159433.785000\nStd. deviation         = 17744.490370\nStd. error of the mean = 4070.865280\nPk-Pk                  = 73043.000000\n\n'
p1136
sg236
g83
sg94
Fnan
sg95
VCPP:nfit
p1137
sg97
g1120
sg99
g503
sg100
F1.0
sg101
g1108
sg103
Fnan
sg61
Vnfit
p1138
sg105
S'#\n# Column index\n#  0  SEQ:shot\n#  1  SEQ:shot\n#  2  CPP:nfit\n\n5088\t\t5088.0000\t\t1.760e+05\t\t\n5089\t\t5089.0000\t\t1.688e+05\t\t\n5090\t\t5090.0000\t\t1.278e+05\t\t\n5091\t\t5091.0000\t\t1.757e+05\t\t\n5092\t\t5092.0000\t\t1.450e+05\t\t\n5093\t\t5093.0000\t\t2.009e+05\t\t\n5094\t\t5094.0000\t\t1.543e+05\t\t\n5095\t\t5095.0000\t\t1.320e+05\t\t\n5096\t\t5096.0000\t\t1.444e+05\t\t\n5097\t\t5097.0000\t\t1.727e+05\t\t\n5098\t\t5098.0000\t\t1.823e+05\t\t\n5099\t\t5099.0000\t\t1.555e+05\t\t\n5100\t\t5100.0000\t\t1.633e+05\t\t\n5101\t\t5101.0000\t\t1.530e+05\t\t\n5102\t\t5102.0000\t\t1.654e+05\t\t\n5103\t\t5103.0000\t\t1.579e+05\t\t\n5104\t\t5104.0000\t\t1.358e+05\t\t\n5105\t\t5105.0000\t\t1.445e+05\t\t\n5106\t\t5106.0000\t\t1.714e+05\t\t\n5107\t\t5107.0000\t\t1.619e+05\t\t'
p1139
sg106
g1071
sg108
I00
sg109
V5088:5110
p1140
sg110
g1124
sg111
F10.0
sg112
I01
sg113
Fnan
sg114
g243
sg116
I00
sbatp1141
Rp1142
(dp1143
g59
S'datasets_items'
p1144
sg61
g12
sbsg81
I00
sg82
Vnsph
p1145
sg121
I1
sg122
g1126
sg123
g0
(g1
g2
(lp1146
I1
aI2
aI3
aI4
aI5
aI6
aI7
aI8
aI9
aI10
aI11
aI12
aI13
atp1147
Rp1148
(dp1149
g59
S'grids_items'
p1150
sg61
g123
sbsg129
I2
sg61
Vnsph
p1151
sbag4
(g5
tp1152
Rp1153
(dp1154
g9
g10
sg11
I0
sg12
g0
(g1
g2
(lp1155
g4
(g14
tp1156
Rp1157
(dp1158
g9
g10
sg18
g1108
sg20
Fnan
sg21
g4
(g22
tp1159
Rp1160
(dp1161
g26
g622
sg9
g10
sg42
g633
sg49
g218
sg51
F0.0
sg52
F1000000000000000.0
sg53
F1000000000000000.0
sg54
g0
(g1
g2
(lp1162
I01
aI01
aI01
aI01
aI01
atp1163
Rp1164
(dp1165
g59
S'fit_mask_items'
p1166
sg61
g54
sbsg62
g644
sg69
g424
sg71
Fnan
sg72
g648
sg74
F-1000000000000000.0
sg75
F-1000000000000000.0
sg76
I00
sg77
I00
sbsg78
I01
sg79
g231
sg232
I00
sg81
I01
sg82
g503
sg84
g83
sg85
I00
sg86
I00
sg87
I01
sg88
V/lab/data/app3/2013/1305/130516/
p1167
sg90
g503
sg91
I00
sg92
I01
sg93
S'Mean                   =   2.696154\nStd. deviation         =   0.846023\nStd. error of the mean =   0.169205\nPk-Pk                  =   3.100000\n\nMean                   = 193104.442692\nStd. deviation         = 43399.885764\nStd. error of the mean = 8679.977153\nPk-Pk                  = 175168.490000\n\n'
p1168
sg236
g83
sg94
Fnan
sg95
VCPP:nfit
p1169
sg97
VDIMPLELATTICE:knob
p1170
sg99
g503
sg100
F1.0
sg101
g1108
sg103
Fnan
sg61
Vnfit
p1171
sg105
S'#\n# Column index\n#  0  SEQ:shot\n#  1  DIMPLELATTICE:knob\n#  2  CPP:nfit\n\n4212\t\t1.0000\t\t2.309e+05\t\t\n4213\t\t1.2000\t\t1.731e+05\t\t\n4214\t\t1.4000\t\t2.341e+05\t\t\n4215\t\t1.6000\t\t1.450e+05\t\t\n4216\t\t1.8000\t\t1.816e+05\t\t\n4217\t\t2.0000\t\t2.104e+05\t\t\n4218\t\t2.2000\t\t2.269e+05\t\t\n4219\t\t2.4000\t\t2.335e+05\t\t\n4220\t\t2.6000\t\t1.855e+05\t\t\n4221\t\t2.8000\t\t1.073e+05\t\t\n4222\t\t3.0000\t\t2.177e+05\t\t\n4223\t\t2.1000\t\t2.317e+05\t\t\n4224\t\t2.3000\t\t2.223e+05\t\t\n4225\t\t2.5000\t\t1.939e+05\t\t\n4226\t\t2.7000\t\t1.833e+05\t\t\n4227\t\t2.9000\t\t2.294e+05\t\t\n4228\t\t3.1000\t\t1.729e+05\t\t\n4229\t\t3.3000\t\t2.226e+05\t\t\n4230\t\t3.7000\t\t2.185e+05\t\t\n4231\t\t3.9000\t\t1.171e+05\t\t\n4232\t\t4.1000\t\t58966.8100\t\t\n4233\t\t3.3000\t\t2.163e+05\t\t\n4234\t\t3.4000\t\t1.957e+05\t\t\n4235\t\t3.5000\t\t1.770e+05\t\t\n4236\t\t3.6000\t\t2.021e+05\t\t\n4237\t\t3.7000\t\t2.328e+05\t\t'
p1172
sg106
g1071
sg108
I00
sg109
V4212:4238
p1173
sg110
Vgreen (Er)
p1174
sg111
F10.0
sg112
I01
sg113
Fnan
sg114
g243
sg116
I00
sbag4
(g14
tp1175
Rp1176
(dp1177
g9
g10
sg18
g1108
sg20
Fnan
sg21
g4
(g22
tp1178
Rp1179
(dp1180
g26
g622
sg9
g10
sg42
g633
sg49
g218
sg51
F0.0
sg52
F1000000000000000.0
sg53
F1000000000000000.0
sg54
g0
(g1
g2
(lp1181
I01
aI01
aI01
aI01
aI01
atp1182
Rp1183
(dp1184
g59
S'fit_mask_items'
p1185
sg61
g54
sbsg62
g644
sg69
g424
sg71
Fnan
sg72
g648
sg74
F-1000000000000000.0
sg75
F-1000000000000000.0
sg76
I00
sg77
I00
sbsg78
I01
sg79
g231
sg232
I00
sg81
I01
sg82
g503
sg84
g83
sg85
I00
sg86
I00
sg87
I01
sg88
g1167
sg90
g503
sg91
I00
sg92
I01
sg93
S'Mean                   =   2.696154\nStd. deviation         =   0.846023\nStd. error of the mean =   0.169205\nPk-Pk                  =   3.100000\n\nMean                   = 15861811346153.845703\nStd. deviation         = 5758592389661.824219\nStd. error of the mean = 1151718477932.364746\nPk-Pk                  = 17585444000000.000000\n\n'
p1186
sg236
g83
sg94
Fnan
sg95
VCPP:peakd_sph
p1187
sg97
g1170
sg99
g503
sg100
F1.0
sg101
g1108
sg103
Fnan
sg61
Vpeakd
p1188
sg105
S'#\n# Column index\n#  0  SEQ:shot\n#  1  DIMPLELATTICE:knob\n#  2  CPP:peakd_sph\n\n4212\t\t1.0000\t\t2.331e+13\t\t\n4213\t\t1.2000\t\t2.173e+13\t\t\n4214\t\t1.4000\t\t2.363e+13\t\t\n4215\t\t1.6000\t\t1.990e+13\t\t\n4216\t\t1.8000\t\t2.143e+13\t\t\n4217\t\t2.0000\t\t2.206e+13\t\t\n4218\t\t2.2000\t\t2.165e+13\t\t\n4219\t\t2.4000\t\t2.129e+13\t\t\n4220\t\t2.6000\t\t1.783e+13\t\t\n4221\t\t2.8000\t\t1.330e+13\t\t\n4222\t\t3.0000\t\t1.582e+13\t\t\n4223\t\t2.1000\t\t2.275e+13\t\t\n4224\t\t2.3000\t\t2.077e+13\t\t\n4225\t\t2.5000\t\t1.893e+13\t\t\n4226\t\t2.7000\t\t1.718e+13\t\t\n4227\t\t2.9000\t\t1.685e+13\t\t\n4228\t\t3.1000\t\t1.343e+13\t\t\n4229\t\t3.3000\t\t1.135e+13\t\t\n4230\t\t3.7000\t\t7.929e+12\t\t\n4231\t\t3.9000\t\t7.908e+12\t\t\n4232\t\t4.1000\t\t6.041e+12\t\t\n4233\t\t3.3000\t\t1.225e+13\t\t\n4234\t\t3.4000\t\t1.047e+13\t\t\n4235\t\t3.5000\t\t8.552e+12\t\t\n4236\t\t3.6000\t\t7.094e+12\t\t\n4237\t\t3.7000\t\t8.942e+12\t\t'
p1189
sg106
g1071
sg108
I00
sg109
V4212:4238
p1190
sg110
Vgreen (Er)
p1191
sg111
F10.0
sg112
I01
sg113
Fnan
sg114
g243
sg116
I00
sbag4
(g14
tp1192
Rp1193
(dp1194
g9
g10
sg18
g1108
sg20
Fnan
sg21
g4
(g22
tp1195
Rp1196
(dp1197
g26
g622
sg9
g10
sg42
g633
sg49
g218
sg51
F0.0
sg52
F1000000000000000.0
sg53
F1000000000000000.0
sg54
g0
(g1
g2
(lp1198
I01
aI01
aI01
aI01
aI01
atp1199
Rp1200
(dp1201
g59
S'fit_mask_items'
p1202
sg61
g54
sbsg62
g644
sg69
g424
sg71
Fnan
sg72
g648
sg74
F-1000000000000000.0
sg75
F-1000000000000000.0
sg76
I00
sg77
I00
sbsg78
I01
sg79
g231
sg232
I00
sg81
I01
sg82
g503
sg84
g83
sg85
I00
sg86
I00
sg87
I01
sg88
g1167
sg90
g503
sg91
I00
sg92
I01
sg93
S'Mean                   =   2.696154\nStd. deviation         =   0.846023\nStd. error of the mean =   0.169205\nPk-Pk                  =   3.100000\n\nMean                   = 249.594315\nStd. deviation         =   1.760466\nStd. error of the mean =   0.352093\nPk-Pk                  =   7.043200\n\n'
p1203
sg236
g83
sg94
Fnan
sg95
VCPP:ax0c
p1204
sg97
g1170
sg99
g503
sg100
F1.0
sg101
g1108
sg103
Fnan
sg61
Vax0c
p1205
sg105
S'#\n# Column index\n#  0  SEQ:shot\n#  1  DIMPLELATTICE:knob\n#  2  CPP:ax0c\n\n4212\t\t1.0000\t\t251.2570\t\t\n4213\t\t1.2000\t\t251.0789\t\t\n4214\t\t1.4000\t\t251.1036\t\t\n4215\t\t1.6000\t\t251.1965\t\t\n4216\t\t1.8000\t\t250.8630\t\t\n4217\t\t2.0000\t\t250.8346\t\t\n4218\t\t2.2000\t\t250.7973\t\t\n4219\t\t2.4000\t\t250.5550\t\t\n4220\t\t2.6000\t\t249.8546\t\t\n4221\t\t2.8000\t\t250.0026\t\t\n4222\t\t3.0000\t\t249.9546\t\t\n4223\t\t2.1000\t\t250.6754\t\t\n4224\t\t2.3000\t\t250.5441\t\t\n4225\t\t2.5000\t\t250.6252\t\t\n4226\t\t2.7000\t\t250.1625\t\t\n4227\t\t2.9000\t\t250.2178\t\t\n4228\t\t3.1000\t\t249.6149\t\t\n4229\t\t3.3000\t\t250.4793\t\t\n4230\t\t3.7000\t\t247.6426\t\t\n4231\t\t3.9000\t\t245.3215\t\t\n4232\t\t4.1000\t\t244.2138\t\t\n4233\t\t3.3000\t\t248.3515\t\t\n4234\t\t3.4000\t\t248.7511\t\t\n4235\t\t3.5000\t\t248.8279\t\t\n4236\t\t3.6000\t\t249.4581\t\t\n4237\t\t3.7000\t\t247.0688\t\t'
p1206
sg106
g1071
sg108
I00
sg109
V4212:4238
p1207
sg110
Vgreen (Er)
p1208
sg111
F10.0
sg112
I01
sg113
Fnan
sg114
g243
sg116
I00
sbag4
(g14
tp1209
Rp1210
(dp1211
g9
g10
sg18
g1108
sg20
Fnan
sg21
g4
(g22
tp1212
Rp1213
(dp1214
g26
g622
sg9
g10
sg42
g633
sg49
g218
sg51
F0.0
sg52
F1000000000000000.0
sg53
F1000000000000000.0
sg54
g0
(g1
g2
(lp1215
I01
aI01
aI01
aI01
aI01
atp1216
Rp1217
(dp1218
g59
S'fit_mask_items'
p1219
sg61
g54
sbsg62
g644
sg69
g424
sg71
Fnan
sg72
g648
sg74
F-1000000000000000.0
sg75
F-1000000000000000.0
sg76
I00
sg77
I00
sbsg78
I01
sg79
g231
sg232
I00
sg81
I01
sg82
g503
sg84
g83
sg85
I00
sg86
I00
sg87
I01
sg88
g1167
sg90
g503
sg91
I00
sg92
I01
sg93
S'Mean                   =   2.696154\nStd. deviation         =   0.846023\nStd. error of the mean =   0.169205\nPk-Pk                  =   3.100000\n\nMean                   = 208.337365\nStd. deviation         =   1.801424\nStd. error of the mean =   0.360285\nPk-Pk                  =   7.832800\n\n'
p1220
sg236
g83
sg94
Fnan
sg95
VCPP:ax1c
p1221
sg97
g1170
sg99
g503
sg100
F1.0
sg101
g1108
sg103
Fnan
sg61
Vax1c
p1222
sg105
S'#\n# Column index\n#  0  SEQ:shot\n#  1  DIMPLELATTICE:knob\n#  2  CPP:ax1c\n\n4212\t\t1.0000\t\t209.2774\t\t\n4213\t\t1.2000\t\t208.3756\t\t\n4214\t\t1.4000\t\t209.1295\t\t\n4215\t\t1.6000\t\t209.2224\t\t\n4216\t\t1.8000\t\t209.2928\t\t\n4217\t\t2.0000\t\t209.4309\t\t\n4218\t\t2.2000\t\t208.6925\t\t\n4219\t\t2.4000\t\t209.4365\t\t\n4220\t\t2.6000\t\t208.0072\t\t\n4221\t\t2.8000\t\t209.1135\t\t\n4222\t\t3.0000\t\t209.8134\t\t\n4223\t\t2.1000\t\t208.7903\t\t\n4224\t\t2.3000\t\t208.6477\t\t\n4225\t\t2.5000\t\t209.3152\t\t\n4226\t\t2.7000\t\t208.8293\t\t\n4227\t\t2.9000\t\t209.2372\t\t\n4228\t\t3.1000\t\t209.6117\t\t\n4229\t\t3.3000\t\t208.7524\t\t\n4230\t\t3.7000\t\t207.2436\t\t\n4231\t\t3.9000\t\t203.4156\t\t\n4232\t\t4.1000\t\t201.9806\t\t\n4233\t\t3.3000\t\t209.2699\t\t\n4234\t\t3.4000\t\t208.2806\t\t\n4235\t\t3.5000\t\t208.3667\t\t\n4236\t\t3.6000\t\t209.0170\t\t\n4237\t\t3.7000\t\t206.2220\t\t'
p1223
sg106
g1071
sg108
I00
sg109
V4212:4238
p1224
sg110
Vgreen (Er)
p1225
sg111
F10.0
sg112
I01
sg113
Fnan
sg114
g243
sg116
I00
sbag4
(g14
tp1226
Rp1227
(dp1228
g9
g10
sg18
g1108
sg20
Fnan
sg21
g4
(g22
tp1229
Rp1230
(dp1231
g26
g622
sg9
g10
sg42
g633
sg49
g218
sg51
F0.0
sg52
F1000000000000000.0
sg53
F1000000000000000.0
sg54
g0
(g1
g2
(lp1232
I01
aI01
aI01
aI01
aI01
atp1233
Rp1234
(dp1235
g59
S'fit_mask_items'
p1236
sg61
g54
sbsg62
g644
sg69
g424
sg71
Fnan
sg72
g648
sg74
F-1000000000000000.0
sg75
F-1000000000000000.0
sg76
I00
sg77
I00
sbsg78
I01
sg79
g231
sg232
I00
sg81
I01
sg82
g503
sg84
g83
sg85
I00
sg86
I00
sg87
I01
sg88
g1167
sg90
g503
sg91
I00
sg92
I01
sg93
S'Mean                   =   2.696154\nStd. deviation         =   0.846023\nStd. error of the mean =   0.169205\nPk-Pk                  =   3.100000\n\nMean                   =  12.437721\nStd. deviation         =   1.096933\nStd. error of the mean =   0.219387\nPk-Pk                  =   4.282720\n\n'
p1237
sg236
g83
sg94
Fnan
sg95
VCPP:ax0w
p1238
sg97
g1170
sg99
g503
sg100
F1.0
sg101
g1108
sg103
Fnan
sg61
Vax0w
p1239
sg105
S'#\n# Column index\n#  0  SEQ:shot\n#  1  DIMPLELATTICE:knob\n#  2  CPP:ax0w\n\n4212\t\t1.0000\t\t12.0944\t\t\n4213\t\t1.2000\t\t11.3832\t\t\n4214\t\t1.4000\t\t11.9805\t\t\n4215\t\t1.6000\t\t10.8859\t\t\n4216\t\t1.8000\t\t11.3545\t\t\n4217\t\t2.0000\t\t11.6210\t\t\n4218\t\t2.2000\t\t12.0296\t\t\n4219\t\t2.4000\t\t11.9702\t\t\n4220\t\t2.6000\t\t11.7787\t\t\n4221\t\t2.8000\t\t10.6739\t\t\n4222\t\t3.0000\t\t12.5494\t\t\n4223\t\t2.1000\t\t11.8855\t\t\n4224\t\t2.3000\t\t12.1171\t\t\n4225\t\t2.5000\t\t11.8314\t\t\n4226\t\t2.7000\t\t11.7742\t\t\n4227\t\t2.9000\t\t12.5630\t\t\n4228\t\t3.1000\t\t12.1303\t\t\n4229\t\t3.3000\t\t13.6619\t\t\n4230\t\t3.7000\t\t14.9566\t\t\n4231\t\t3.9000\t\t12.5779\t\t\n4232\t\t4.1000\t\t12.7576\t\t\n4233\t\t3.3000\t\t12.6724\t\t\n4234\t\t3.4000\t\t12.9621\t\t\n4235\t\t3.5000\t\t13.7648\t\t\n4236\t\t3.6000\t\t14.6175\t\t\n4237\t\t3.7000\t\t14.7873\t\t'
p1240
sg106
g1071
sg108
I00
sg109
g1207
sg110
g1208
sg111
F10.0
sg112
I01
sg113
Fnan
sg114
g243
sg116
I00
sbag4
(g14
tp1241
Rp1242
(dp1243
g9
g10
sg18
g1108
sg20
Fnan
sg21
g4
(g22
tp1244
Rp1245
(dp1246
g26
g622
sg9
g10
sg42
g633
sg49
g218
sg51
F0.0
sg52
F1000000000000000.0
sg53
F1000000000000000.0
sg54
g0
(g1
g2
(lp1247
I01
aI01
aI01
aI01
aI01
atp1248
Rp1249
(dp1250
g59
S'fit_mask_items'
p1251
sg61
g54
sbsg62
g644
sg69
g424
sg71
Fnan
sg72
g648
sg74
F-1000000000000000.0
sg75
F-1000000000000000.0
sg76
I00
sg77
I00
sbsg78
I01
sg79
g231
sg232
I00
sg81
I01
sg82
g503
sg84
g83
sg85
I00
sg86
I00
sg87
I01
sg88
g1167
sg90
g503
sg91
I00
sg92
I01
sg93
S'Mean                   =   2.696154\nStd. deviation         =   0.846023\nStd. error of the mean =   0.169205\nPk-Pk                  =   3.100000\n\nMean                   =  14.220752\nStd. deviation         =   2.685500\nStd. error of the mean =   0.537100\nPk-Pk                  =   9.324760\n\n'
p1252
sg236
g83
sg94
Fnan
sg95
VCPP:ax1w
p1253
sg97
g1170
sg99
g503
sg100
F1.0
sg101
g1108
sg103
Fnan
sg61
Vax1w
p1254
sg105
S'#\n# Column index\n#  0  SEQ:shot\n#  1  DIMPLELATTICE:knob\n#  2  CPP:ax1w\n\n4212\t\t1.0000\t\t12.1395\t\t\n4213\t\t1.2000\t\t11.1555\t\t\n4214\t\t1.4000\t\t12.2579\t\t\n4215\t\t1.6000\t\t10.9899\t\t\n4216\t\t1.8000\t\t11.6500\t\t\n4217\t\t2.0000\t\t12.3176\t\t\n4218\t\t2.2000\t\t12.6743\t\t\n4219\t\t2.4000\t\t13.1258\t\t\n4220\t\t2.6000\t\t12.8787\t\t\n4221\t\t2.8000\t\t11.9932\t\t\n4222\t\t3.0000\t\t14.5626\t\t\n4223\t\t2.1000\t\t12.5857\t\t\n4224\t\t2.3000\t\t12.7601\t\t\n4225\t\t2.5000\t\t12.6850\t\t\n4226\t\t2.7000\t\t13.1001\t\t\n4227\t\t2.9000\t\t14.4436\t\t\n4228\t\t3.1000\t\t14.4187\t\t\n4229\t\t3.3000\t\t16.9411\t\t\n4230\t\t3.7000\t\t19.4197\t\t\n4231\t\t3.9000\t\t15.2622\t\t\n4232\t\t4.1000\t\t11.3955\t\t\n4233\t\t3.3000\t\t17.0309\t\t\n4234\t\t3.4000\t\t17.2934\t\t\n4235\t\t3.5000\t\t17.4346\t\t\n4236\t\t3.6000\t\t20.3147\t\t\n4237\t\t3.7000\t\t18.9093\t\t'
p1255
sg106
g1071
sg108
I00
sg109
V4212:4238
p1256
sg110
g1225
sg111
F10.0
sg112
I01
sg113
Fnan
sg114
g243
sg116
I00
sbatp1257
Rp1258
(dp1259
g59
S'datasets_items'
p1260
sg61
g12
sbsg81
I00
sg82
VvaryGR@7Er
p1261
sg121
I3
sg122
g1157
sg123
g0
(g1
g2
(lp1262
I1
aI2
aI3
aI4
aI5
aI6
atp1263
Rp1264
(dp1265
g59
S'grids_items'
p1266
sg61
g123
sbsg129
I2
sg61
VvaryGR@7Er
p1267
sbag4
(g5
tp1268
Rp1269
(dp1270
g9
g10
sg11
I2
sg12
g0
(g1
g2
(lp1271
g4
(g14
tp1272
Rp1273
(dp1274
g9
g10
sg18
Vblack
p1275
sg20
Fnan
sg21
g4
(g22
tp1276
Rp1277
(dp1278
g26
g27
(g28
(I0
tp1279
g30
tp1280
Rp1281
(I1
(I5
I1
tp1282
g402
I00
S'&-\xf0\x922\xb3$@\xb8(\xa3x\xc9\xc8\xf9?\xee\x08}\xe8\xa80\xd7\xbf\x83\x9e\xff2uD\xfa?\x97l/\xdd\xae\x8eC@'
p1283
tp1284
bsg9
g10
sg42
g27
(g28
(I0
tp1285
g30
tp1286
Rp1287
(I1
(I5
I1
tp1288
g402
I00
S'+\xa90A\xae\xba\xfc?\\\x07\xa6\xc8\x82\xca\xb0?.Z}\xdd\xf5\xe2\xcc?\x957\x0ci6\xc5\xe0?\xee\xdcd/\xeb\x9f\xd8?'
p1289
tp1290
bsg49
g218
sg51
F0.0
sg52
F1000000000000000.0
sg53
F1000000000000000.0
sg54
g0
(g1
g2
(lp1291
I01
aI01
aI01
aI01
aI01
atp1292
Rp1293
(dp1294
g59
S'fit_mask_items'
p1295
sg61
g54
sbsg62
g27
(g28
(I0
tp1296
g30
tp1297
Rp1298
(I1
(I5
I1
tp1299
g207
I00
S'\x00\x00\x00\x00\x00\x00\x18@\xcd\xcc\xcc\xcc\xcc\xcc\xf4?\xcd\xcc\xcc\xcc\xcc\xcc\xfc\xbf\x00\x00\x00\x00\x00\x00\xf0?\x00\x00\x00\x00\x00\x00D@'
p1300
tp1301
bsg69
S'a[0]*sin( a[1]*x*2*pi-a[2] )*exp(-x*a[3]) + a[4] + a[5]*x'
p1302
sg71
Fnan
sg72
S'ExpSine'
p1303
sg74
F-1000000000000000.0
sg75
F-1000000000000000.0
sg76
I01
sg77
I01
sbsg78
I01
sg79
g231
sg232
I00
sg81
I01
sg82
g503
sg84
g83
sg85
I00
sg86
I00
sg87
I01
sg88
V/lab/data/app3/2013/1305/130517/
p1304
sg90
g503
sg91
I00
sg92
I01
sg93
S'Mean                   =   0.955556\nStd. deviation         =   0.528333\nStd. error of the mean =   0.128140\nPk-Pk                  =   1.800000\n\nMean                   =  39.511377\nStd. deviation         =   3.047917\nStd. error of the mean =   0.739228\nPk-Pk                  =  12.799980\n\n'
p1305
sg236
g83
sg94
Fnan
sg95
VCPP:ax1w
p1306
sg97
VDIMPLE:oscdt
p1307
sg99
g503
sg100
F1.0
sg101
g1275
sg103
Fnan
sg61
V0Er
p1308
sg105
S'#\n# Column index\n#  0  SEQ:shot\n#  1  DIMPLE:oscdt\n#  2  CPP:ax1w\n\n4462\t\t0.1000\t\t48.4273\t\t\n4463\t\t0.2000\t\t44.0099\t\t\n4464\t\t0.3000\t\t37.9853\t\t\n4465\t\t0.4000\t\t35.6273\t\t\n4466\t\t0.5000\t\t36.2933\t\t\n4467\t\t0.6000\t\t39.4701\t\t\n4468\t\t0.7000\t\t43.2887\t\t\n4469\t\t0.8000\t\t41.5567\t\t\n4470\t\t0.9000\t\t38.7451\t\t\n4471\t\t1.0000\t\t37.3459\t\t\n4472\t\t1.1000\t\t36.4728\t\t\n4473\t\t1.2000\t\t38.7912\t\t\n4474\t\t1.3000\t\t38.9187\t\t\n4475\t\t1.4000\t\t39.5884\t\t\n4476\t\t1.5000\t\t38.7019\t\t\n4477\t\t1.6000\t\t37.7297\t\t\n4478\t\t1.7000\t\t38.1906\t\t\n4480\t\t1.9000\t\t40.0617\t\t'
p1309
sg106
g1071
sg108
I00
sg109
V4462:4480,-4479
p1310
sg110
Vtime (ms)
p1311
sg111
F10.0
sg112
I01
sg113
Fnan
sg114
g243
sg116
I00
sbag4
(g14
tp1312
Rp1313
(dp1314
g9
g10
sg18
Vlimegreen
p1315
sg20
Fnan
sg21
g4
(g22
tp1316
Rp1317
(dp1318
g26
g27
(g28
(I0
tp1319
g30
tp1320
Rp1321
(I1
(I5
I1
tp1322
g402
I00
S'v\x801y0%$@S\x84\xd2\xaf\xa0\x8e\xf6?\x8d\xc8\x0f\xf7\xdf\x8c\xd4\xbf\x80\xe8\xde~P\x90\xf6?\xb0oI}\xc0\xf1B@'
p1323
tp1324
bsg9
g10
sg42
g27
(g28
(I0
tp1325
g30
tp1326
Rp1327
(I1
(I5
I1
tp1328
g402
I00
S"E\x89\x02\x1e\x81\t\xfa?\xf3H+'\xe3*\xad?\xc9\x84?\xae*\x06\xcd?\xd9\xe6\xb1\xcf@:\xd3?5s\x8d\x8a\xa5\xb9\xd5?"
p1329
tp1330
bsg49
g218
sg51
F0.0
sg52
F1000000000000000.0
sg53
F1000000000000000.0
sg54
g0
(g1
g2
(lp1331
I01
aI01
aI01
aI01
aI01
atp1332
Rp1333
(dp1334
g59
S'fit_mask_items'
p1335
sg61
g54
sbsg62
g1298
sg69
g1302
sg71
Fnan
sg72
g1303
sg74
F-1000000000000000.0
sg75
F-1000000000000000.0
sg76
I01
sg77
I01
sbsg78
I01
sg79
g231
sg232
I00
sg81
I01
sg82
g503
sg84
g83
sg85
I00
sg86
I00
sg87
I01
sg88
V/lab/data/app3/2013/1305/130517/
p1336
sg90
g503
sg91
I01
sg92
I01
sg93
S'Mean                   =   1.000000\nStd. deviation         =   0.547723\nStd. error of the mean =   0.129099\nPk-Pk                  =   1.800000\n\nMean                   =  38.335468\nStd. deviation         =   3.118462\nStd. error of the mean =   0.735029\nPk-Pk                  =  12.844090\n\n'
p1337
sg236
g83
sg94
Fnan
sg95
g1306
sg97
g1307
sg99
g503
sg100
F1.0
sg101
g1315
sg103
Fnan
sg61
V1Er
p1338
sg105
S'#\n# Column index\n#  0  SEQ:shot\n#  1  DIMPLE:oscdt\n#  2  CPP:ax1w\n\n4481\t\t0.1000\t\t46.6876\t\t\n4482\t\t0.2000\t\t43.9840\t\t\n4483\t\t0.3000\t\t39.7506\t\t\n4484\t\t0.4000\t\t34.8920\t\t\n4485\t\t0.5000\t\t33.8435\t\t\n4486\t\t0.6000\t\t36.1276\t\t\n4487\t\t0.7000\t\t39.3290\t\t\n4488\t\t0.8000\t\t41.2450\t\t\n4489\t\t0.9000\t\t41.4243\t\t\n4490\t\t1.0000\t\t38.6015\t\t\n4491\t\t1.1000\t\t36.0406\t\t\n4492\t\t1.2000\t\t35.4633\t\t\n4493\t\t1.3000\t\t36.2216\t\t\n4494\t\t1.4000\t\t36.8021\t\t\n4495\t\t1.5000\t\t38.7647\t\t\n4496\t\t1.6000\t\t37.7002\t\t\n4497\t\t1.7000\t\t37.4150\t\t\n4498\t\t1.8000\t\t36.9773\t\t\n4499\t\t1.9000\t\t37.1041\t\t'
p1339
sg106
g1071
sg108
I00
sg109
V4481:4499
p1340
sg110
g1311
sg111
F10.0
sg112
I01
sg113
Fnan
sg114
g243
sg116
I00
sbag4
(g14
tp1341
Rp1342
(dp1343
g9
g10
sg18
Vgreen
p1344
sg20
Fnan
sg21
g4
(g22
tp1345
Rp1346
(dp1347
g26
g27
(g28
(I0
tp1348
g30
tp1349
Rp1350
(I1
(I5
I1
tp1351
g402
I00
S'\xc1\xe1\x8e\xd1\xe5\xae)@w\xdd>\x03\xe9\xbc\xf4?j\x0e\x99\xdd\x9a=\xb5\xbf\xc4\xd1>\xc6\xdb\xb8\xf6?\x91\x90En\x03\x82B@'
p1352
tp1353
bsg9
g10
sg42
g27
(g28
(I0
tp1354
g30
tp1355
Rp1356
(I1
(I5
I1
tp1357
g402
I00
S"\xae\xde'6\xe5\xd2\xf9?\xda\x11K\n\xc9\xa4\xa7?\xd0\x8fS\xf4j\xa7\xc6?\xf7\x88\xfa\x98\xfe\xc4\xd1?'\xcf[\x9b\xc0:\xd8?"
p1358
tp1359
bsg49
g218
sg51
F0.0
sg52
F1000000000000000.0
sg53
F1000000000000000.0
sg54
g0
(g1
g2
(lp1360
I01
aI01
aI01
aI01
aI01
atp1361
Rp1362
(dp1363
g59
S'fit_mask_items'
p1364
sg61
g54
sbsg62
g1298
sg69
g1302
sg71
Fnan
sg72
g1303
sg74
F-1000000000000000.0
sg75
F-1000000000000000.0
sg76
I01
sg77
I01
sbsg78
I01
sg79
g231
sg232
I00
sg81
I01
sg82
g503
sg84
g83
sg85
I00
sg86
I00
sg87
I01
sg88
g1336
sg90
g503
sg91
I01
sg92
I01
sg93
S'Mean                   =   1.100000\nStd. deviation         =   0.605530\nStd. error of the mean =   0.135401\nPk-Pk                  =   2.000000\n\nMean                   =  37.662021\nStd. deviation         =   3.701686\nStd. error of the mean =   0.827722\nPk-Pk                  =  14.734290\n\n'
p1365
sg236
g83
sg94
Fnan
sg95
g1306
sg97
g1307
sg99
g503
sg100
F1.0
sg101
g1344
sg103
Fnan
sg61
V2Er
p1366
sg105
S'#\n# Column index\n#  0  SEQ:shot\n#  1  DIMPLE:oscdt\n#  2  CPP:ax1w\n\n4500\t\t0.1000\t\t46.7759\t\t\n4501\t\t0.2000\t\t45.9443\t\t\n4502\t\t0.3000\t\t41.8119\t\t\n4503\t\t0.4000\t\t36.2538\t\t\n4504\t\t0.5000\t\t33.0090\t\t\n4505\t\t0.6000\t\t32.0416\t\t\n4506\t\t0.7000\t\t34.2748\t\t\n4507\t\t0.8000\t\t38.5430\t\t\n4508\t\t0.9000\t\t41.0538\t\t\n4509\t\t1.0000\t\t40.8687\t\t\n4510\t\t1.1000\t\t38.0045\t\t\n4511\t\t1.2000\t\t36.3786\t\t\n4512\t\t1.3000\t\t35.0149\t\t\n4513\t\t1.4000\t\t35.5077\t\t\n4514\t\t1.5000\t\t36.7863\t\t\n4515\t\t1.6000\t\t37.5856\t\t\n4516\t\t1.7000\t\t37.9525\t\t\n4517\t\t1.8000\t\t36.3989\t\t\n4518\t\t1.9000\t\t36.1542\t\t\n4519\t\t2.0000\t\t35.1276\t\t\n4520\t\t2.1000\t\t35.4149\t\t'
p1367
sg106
g1071
sg108
I00
sg109
V4500:4520
p1368
sg110
g1311
sg111
F10.0
sg112
I01
sg113
Fnan
sg114
g243
sg116
I00
sbag4
(g14
tp1369
Rp1370
(dp1371
g9
g10
sg18
VNone
p1372
sg20
Fnan
sg21
g4
(g22
tp1373
Rp1374
(dp1375
g26
g27
(g28
(I0
tp1376
g30
tp1377
Rp1378
(I1
(I5
I1
tp1379
g402
I00
S'W\xa4S\xbf\x0e\x7f+@\n\xb9{\xca\xdbD\xf0?\xfaEJ}\x88\xdd\xd1\xbfA|\xdc\x83N\xc3\xf1?`~\xf1\x8f\x8aSB@'
p1380
tp1381
bsg9
g10
sg42
g27
(g28
(I0
tp1382
g30
tp1383
Rp1384
(I1
(I5
I1
tp1385
g402
I00
S'\xad\xe8d\xa3\x99\xdb\xfe?u\x17\x17"\x0e+\xe3?\xec\xccqAP\xe4\xe9?\xbf\xa0\xe5_\x9d\x0c\xcd?J\x8b\xc8\x07\x1ef\xdb?'
p1386
tp1387
bsg49
g218
sg51
F0.0
sg52
F1000000000000000.0
sg53
F1000000000000000.0
sg54
g0
(g1
g2
(lp1388
I01
aI01
aI01
aI01
aI01
atp1389
Rp1390
(dp1391
g59
S'fit_mask_items'
p1392
sg61
g54
sbsg62
g27
(g28
(I0
tp1393
g30
tp1394
Rp1395
(I1
(I5
I1
tp1396
g207
I00
S'\x00\x00\x00\x00\x00\x00"@ffffff\xe6?\xcd\xcc\xcc\xcc\xcc\xcc\xfc\xbf\x00\x00\x00\x00\x00\x00\xf0?\x00\x00\x00\x00\x00\x00D@'
p1397
tp1398
bsg69
g1302
sg71
Fnan
sg72
g1303
sg74
F-1000000000000000.0
sg75
F-1000000000000000.0
sg76
I01
sg77
I00
sbsg78
I01
sg79
g231
sg232
I00
sg81
I01
sg82
g503
sg84
g83
sg85
I00
sg86
I00
sg87
I01
sg88
g1336
sg90
g503
sg91
I01
sg92
I00
sg93
S'Mean                   =   1.100000\nStd. deviation         =   0.605530\nStd. error of the mean =   0.135401\nPk-Pk                  =   2.000000\n\nMean                   =  37.522294\nStd. deviation         =   4.541818\nStd. error of the mean =   1.015581\nPk-Pk                  =  17.166900\n\n'
p1399
sg236
g83
sg94
Fnan
sg95
g1306
sg97
g1307
sg99
g503
sg100
F2.0
sg101
Vforestgreen
p1400
sg103
Fnan
sg61
V3Er
p1401
sg105
S'#\n# Column index\n#  0  SEQ:shot\n#  1  DIMPLE:oscdt\n#  2  CPP:ax1w\n\n4524\t\t0.1000\t\t47.8879\t\t\n4525\t\t0.2000\t\t46.3386\t\t\n4526\t\t0.3000\t\t44.4714\t\t\n4527\t\t0.4000\t\t40.4507\t\t\n4528\t\t0.5000\t\t34.7745\t\t\n4529\t\t0.6000\t\t31.1293\t\t\n4530\t\t0.7000\t\t30.7211\t\t\n4531\t\t0.8000\t\t33.6136\t\t\n4532\t\t0.9000\t\t36.6945\t\t\n4533\t\t1.0000\t\t40.4019\t\t\n4534\t\t1.1000\t\t40.9019\t\t\n4535\t\t1.2000\t\t39.4903\t\t\n4536\t\t1.3000\t\t38.7643\t\t\n4537\t\t1.4000\t\t35.2744\t\t\n4538\t\t1.5000\t\t34.0497\t\t\n4539\t\t1.6000\t\t33.3067\t\t\n4540\t\t1.7000\t\t33.6303\t\t\n4541\t\t1.8000\t\t35.8885\t\t\n4542\t\t1.9000\t\t36.2293\t\t\n4543\t\t2.0000\t\t37.4272\t\t\n4544\t\t2.1000\t\t36.5223\t\t'
p1402
sg106
g1071
sg108
I00
sg109
V4524:4544
p1403
sg110
g1311
sg111
F10.0
sg112
I01
sg113
Fnan
sg114
g243
sg116
I00
sbatp1404
Rp1405
(dp1406
g59
S'datasets_items'
p1407
sg61
g12
sbsg81
I00
sg82
Vgreen3
p1408
sg121
I1
sg122
g1342
sg123
g0
(g1
g2
(lp1409
I1
aI2
aI3
aI4
aI5
atp1410
Rp1411
(dp1412
g59
S'grids_items'
p1413
sg61
g123
sbsg129
I1
sg61
Vgreen3
p1414
sbag4
(g5
tp1415
Rp1416
(dp1417
g9
g10
sg11
I3
sg12
g0
(g1
g2
(lp1418
g4
(g14
tp1419
Rp1420
(dp1421
g9
g10
sg18
g1275
sg20
Fnan
sg21
g4
(g22
tp1422
Rp1423
(dp1424
g26
g27
(g28
(I0
tp1425
g30
tp1426
Rp1427
(I1
(I5
I1
tp1428
g402
I00
S'\xe1^rE\xef\x9d\x1b@d3\xb9M\xaa\x8d\xf8?Ri\xe0}\x801\xdb\xbf\xf8\x13#\xf8O\x10\xed?\xba\xfd\x0b\xec\xeb\xaaC@'
p1429
tp1430
bsg9
g10
sg42
g27
(g28
(I0
tp1431
g30
tp1432
Rp1433
(I1
(I5
I1
tp1434
g402
I00
S'o\xe5\x19\x7f\x10\xce\xeb?\xdfS\xcd\xf1\xb5\xe4\xa2?\x80o\xc8w\xf6N\xc8?/<\xd1\xa3\xa9\xb8\xc5?\xe4\x94\xe3\xd2\x80\xa2\xc6?'
p1435
tp1436
bsg49
g218
sg51
F0.0
sg52
F1000000000000000.0
sg53
F1000000000000000.0
sg54
g0
(g1
g2
(lp1437
I01
aI01
aI01
aI01
aI01
atp1438
Rp1439
(dp1440
g59
S'fit_mask_items'
p1441
sg61
g54
sbsg62
g1298
sg69
g1302
sg71
Fnan
sg72
g1303
sg74
F-1000000000000000.0
sg75
F-1000000000000000.0
sg76
I01
sg77
I01
sbsg78
I01
sg79
g231
sg232
I00
sg81
I01
sg82
g503
sg84
g83
sg85
I00
sg86
I00
sg87
I01
sg88
V/lab/data/app3/2013/1305/130519/
p1442
sg90
g503
sg91
I00
sg92
I01
sg93
S'Mean                   =   1.300000\nStd. deviation         =   0.692219\nStd. error of the mean =   0.144338\nPk-Pk                  =   2.300000\n\nMean                   =  39.393631\nStd. deviation         =   2.199732\nStd. error of the mean =   0.458676\nPk-Pk                  =   9.820810\n\n'
p1443
sg236
g83
sg94
Fnan
sg95
VCPP:ax0w
p1444
sg97
VDIMPLE:oscdt
p1445
sg99
g503
sg100
F1.0
sg101
g1275
sg103
Fnan
sg61
g1308
sg105
S'#\n# Column index\n#  0  SEQ:shot\n#  1  DIMPLE:oscdt\n#  2  CPP:ax0w\n\n4676\t\t0.1500\t\t44.8914\t\t\n4677\t\t0.2500\t\t40.7291\t\t\n4678\t\t0.3500\t\t36.5058\t\t\n4679\t\t0.4500\t\t35.0706\t\t\n4680\t\t0.5500\t\t37.2681\t\t\n4681\t\t0.6500\t\t41.1672\t\t\n4682\t\t0.7500\t\t43.7833\t\t\n4683\t\t0.8500\t\t42.2581\t\t\n4684\t\t0.9500\t\t39.3591\t\t\n4685\t\t1.0500\t\t37.0719\t\t\n4686\t\t1.1500\t\t36.7547\t\t\n4687\t\t1.2500\t\t38.8705\t\t\n4688\t\t1.3500\t\t40.7387\t\t\n4689\t\t1.4500\t\t40.7639\t\t\n4690\t\t1.5500\t\t39.2761\t\t\n4691\t\t1.6500\t\t38.6949\t\t\n4692\t\t1.7500\t\t37.6994\t\t\n4693\t\t1.8500\t\t38.9498\t\t\n4694\t\t1.9500\t\t39.7326\t\t\n4695\t\t2.0500\t\t39.7238\t\t\n4696\t\t2.1500\t\t39.8797\t\t\n4697\t\t2.2500\t\t38.7977\t\t\n4698\t\t2.3500\t\t38.2963\t\t\n4699\t\t2.4500\t\t39.1644\t\t'
p1446
sg106
g1071
sg108
I00
sg109
V4676:4699
p1447
sg110
g1311
sg111
F10.0
sg112
I01
sg113
Fnan
sg114
g243
sg116
I00
sbag4
(g14
tp1448
Rp1449
(dp1450
g9
g10
sg18
Vlimegreen
p1451
sg20
Fnan
sg21
g4
(g22
tp1452
Rp1453
(dp1454
g26
g27
(g28
(I0
tp1455
g30
tp1456
Rp1457
(I1
(I5
I1
tp1458
g402
I00
S'ws\xf2\x0f&\xec\x1e@\x08!\xcc\x0f\xf5\x83\xf5?\x04\x83\x9b\x91b\x88\xcc\xbfa\x01\x94\xe3\xb4\x04\xea?\x9f\xdf\x01}\x81\x05C@'
p1459
tp1460
bsg9
g10
sg42
g27
(g28
(I0
tp1461
g30
tp1462
Rp1463
(I1
(I5
I1
tp1464
g402
I00
S'\xe3Fo\x83\xfc\xc1\xe0?\x18R\x19\x92\xc1\xa8\x91?=g\xf7\x1a\x93\xc0\xb8?/`Mz\xe8\xcd\xb8?\xbe\xcd\x12L\xb5\x03\xc2?'
p1465
tp1466
bsg49
g218
sg51
F0.0
sg52
F1000000000000000.0
sg53
F1000000000000000.0
sg54
g0
(g1
g2
(lp1467
I01
aI01
aI01
aI01
aI01
atp1468
Rp1469
(dp1470
g59
S'fit_mask_items'
p1471
sg61
g54
sbsg62
g27
(g28
(I0
tp1472
g30
tp1473
Rp1474
(I1
(I5
I1
tp1475
g207
I00
S'\x00\x00\x00\x00\x00\x00 @\xcd\xcc\xcc\xcc\xcc\xcc\xf4?\x9a\x99\x99\x99\x99\x99\xd9\xbf\x00\x00\x00\x00\x00\x00\xf0?\x00\x00\x00\x00\x00\x80C@'
p1476
tp1477
bsg69
g1302
sg71
Fnan
sg72
g1303
sg74
F-1000000000000000.0
sg75
F-1000000000000000.0
sg76
I01
sg77
I01
sbsg78
I01
sg79
g231
sg232
I00
sg81
I01
sg82
g503
sg84
g83
sg85
I00
sg86
I00
sg87
I01
sg88
g1442
sg90
g503
sg91
I01
sg92
I01
sg93
S'Mean                   =   1.300000\nStd. deviation         =   0.692219\nStd. error of the mean =   0.144338\nPk-Pk                  =   2.300000\n\nMean                   =  38.272484\nStd. deviation         =   2.646644\nStd. error of the mean =   0.551863\nPk-Pk                  =  11.302340\n\n'
p1478
sg236
g83
sg94
Fnan
sg95
g1444
sg97
g1445
sg99
g503
sg100
F1.0
sg101
g1451
sg103
Fnan
sg61
V1Er
p1479
sg105
S'#\n# Column index\n#  0  SEQ:shot\n#  1  DIMPLE:oscdt\n#  2  CPP:ax0w\n\n4700\t\t0.1500\t\t44.4329\t\t\n4701\t\t0.2500\t\t43.0553\t\t\n4702\t\t0.3500\t\t37.6060\t\t\n4703\t\t0.4500\t\t33.8083\t\t\n4704\t\t0.5500\t\t33.1306\t\t\n4705\t\t0.6500\t\t36.0214\t\t\n4706\t\t0.7500\t\t39.4465\t\t\n4707\t\t0.8500\t\t41.2960\t\t\n4708\t\t0.9500\t\t41.5876\t\t\n4709\t\t1.0500\t\t39.2578\t\t\n4710\t\t1.1500\t\t36.7904\t\t\n4711\t\t1.2500\t\t34.5913\t\t\n4712\t\t1.3500\t\t36.1309\t\t\n4713\t\t1.4500\t\t37.4703\t\t\n4714\t\t1.5500\t\t39.8083\t\t\n4715\t\t1.6500\t\t39.5420\t\t\n4716\t\t1.7500\t\t39.6827\t\t\n4717\t\t1.8500\t\t37.8366\t\t\n4718\t\t1.9500\t\t36.8305\t\t\n4719\t\t2.0500\t\t36.5236\t\t\n4720\t\t2.1500\t\t37.8428\t\t\n4721\t\t2.2500\t\t38.4208\t\t\n4722\t\t2.3500\t\t38.8954\t\t\n4723\t\t2.4500\t\t38.5316\t\t'
p1480
sg106
g1071
sg108
I00
sg109
V4700:4723
p1481
sg110
g1311
sg111
F10.0
sg112
I01
sg113
Fnan
sg114
g243
sg116
I00
sbag4
(g14
tp1482
Rp1483
(dp1484
g9
g10
sg18
Vgreen
p1485
sg20
Fnan
sg21
g4
(g22
tp1486
Rp1487
(dp1488
g26
g27
(g28
(I0
tp1489
g30
tp1490
Rp1491
(I1
(I5
I1
tp1492
g402
I00
S'-\xe1U\xe7CE#@6\xd4\x12T{8\xf2?\xac\xcd\x88\xd5\xda\xe3\xbc\xbf\xf1LWIs\x92\xe4?\xe1\xc4\x87\xda\x013B@'
p1493
tp1494
bsg9
g10
sg42
g27
(g28
(I0
tp1495
g30
tp1496
Rp1497
(I1
(I5
I1
tp1498
g402
I00
S'(Fju\xf7\xc2\xe4?`k\xe4\xa41Q\x8b?K\x16\xdfZ\xa6\x9c\xb5?P\xcc6\xbe\x95\xf4\xb3?o\r\xb3GV1\xc4?'
p1499
tp1500
bsg49
g218
sg51
F0.0
sg52
F1000000000000000.0
sg53
F1000000000000000.0
sg54
g0
(g1
g2
(lp1501
I01
aI01
aI01
aI01
aI01
atp1502
Rp1503
(dp1504
g59
S'fit_mask_items'
p1505
sg61
g54
sbsg62
g1474
sg69
g1302
sg71
Fnan
sg72
g1303
sg74
F-1000000000000000.0
sg75
F-1000000000000000.0
sg76
I01
sg77
I01
sbsg78
I01
sg79
g231
sg232
I00
sg81
I01
sg82
g503
sg84
g83
sg85
I00
sg86
I00
sg87
I01
sg88
g1442
sg90
g503
sg91
I01
sg92
I01
sg93
S'Mean                   =   1.300000\nStd. deviation         =   0.692219\nStd. error of the mean =   0.144338\nPk-Pk                  =   2.300000\n\nMean                   =  36.733199\nStd. deviation         =   3.749376\nStd. error of the mean =   0.781799\nPk-Pk                  =  13.959800\n\n'
p1506
sg236
g83
sg94
Fnan
sg95
g1444
sg97
g1445
sg99
g503
sg100
F1.0
sg101
g1485
sg103
Fnan
sg61
V2Er
p1507
sg105
S'#\n# Column index\n#  0  SEQ:shot\n#  1  DIMPLE:oscdt\n#  2  CPP:ax0w\n\n4724\t\t0.1500\t\t45.0090\t\t\n4725\t\t0.2500\t\t44.1225\t\t\n4726\t\t0.3500\t\t40.1227\t\t\n4727\t\t0.4500\t\t35.0325\t\t\n4728\t\t0.5500\t\t31.0492\t\t\n4729\t\t0.6500\t\t31.3732\t\t\n4730\t\t0.7500\t\t31.8072\t\t\n4731\t\t0.8500\t\t35.3565\t\t\n4732\t\t0.9500\t\t39.5704\t\t\n4733\t\t1.0500\t\t41.2845\t\t\n4734\t\t1.1500\t\t41.0376\t\t\n4735\t\t1.2500\t\t37.8524\t\t\n4736\t\t1.3500\t\t35.2722\t\t\n4737\t\t1.4500\t\t32.7373\t\t\n4738\t\t1.5500\t\t32.4829\t\t\n4739\t\t1.6500\t\t34.7811\t\t\n4740\t\t1.7500\t\t36.6823\t\t\n4741\t\t1.8500\t\t38.0667\t\t\n4742\t\t1.9500\t\t39.0276\t\t\n4743\t\t2.0500\t\t38.4582\t\t\n4744\t\t2.1500\t\t36.6826\t\t\n4745\t\t2.2500\t\t35.0886\t\t\n4746\t\t2.3500\t\t34.1189\t\t\n4747\t\t2.4500\t\t34.5807\t\t'
p1508
sg106
g1071
sg108
I00
sg109
V4724:4747
p1509
sg110
g1311
sg111
F10.0
sg112
I01
sg113
Fnan
sg114
g243
sg116
I00
sbag4
(g14
tp1510
Rp1511
(dp1512
g9
g10
sg18
VNone
p1513
sg20
Fnan
sg21
g4
(g22
tp1514
Rp1515
(dp1516
g26
g27
(g28
(I0
tp1517
g30
tp1518
Rp1519
(I1
(I5
I1
tp1520
g402
I00
S'\x93\xcdn\xc2\x0f\xe0(@\x0fr"w=\xa1\xec?qu<\xe8wf\xc9\xbfh"\xcba\xea/\xde?$X*G\xd4pA@'
p1521
tp1522
bsg9
g10
sg42
g27
(g28
(I0
tp1523
g30
tp1524
Rp1525
(I1
(I5
I1
tp1526
g402
I00
S'\xdcL\xce\xe0&\x11\xf1?;\x8b\xb9\xe0nK\x8c?\xfd\x84j\xdbd\xf0\xb9?\xf5\xce\xc0L$\xf6\xb4?\xd8\xbc\xe4\x11\xf0\xdc\xd0?'
p1527
tp1528
bsg49
g218
sg51
F0.0
sg52
F1000000000000000.0
sg53
F1000000000000000.0
sg54
g0
(g1
g2
(lp1529
I01
aI01
aI01
aI01
aI01
atp1530
Rp1531
(dp1532
g59
S'fit_mask_items'
p1533
sg61
g54
sbsg62
g27
(g28
(I0
tp1534
g30
tp1535
Rp1536
(I1
(I5
I1
tp1537
g207
I00
S'\x00\x00\x00\x00\x00\x00(@\xe1z\x14\xaeG\xe1\xea?333333\xe3\xbf\x00\x00\x00\x00\x00\x00\xe0?\x00\x00\x00\x00\x00\x80A@'
p1538
tp1539
bsg69
g1302
sg71
Fnan
sg72
g1303
sg74
F-1000000000000000.0
sg75
F-1000000000000000.0
sg76
I01
sg77
I01
sbsg78
I01
sg79
g231
sg232
I00
sg81
I01
sg82
g503
sg84
g83
sg85
I00
sg86
I00
sg87
I01
sg88
g1442
sg90
g503
sg91
I01
sg92
I00
sg93
S'Mean                   =   1.300000\nStd. deviation         =   0.692219\nStd. error of the mean =   0.144338\nPk-Pk                  =   2.300000\n\nMean                   =  35.591694\nStd. deviation         =   5.527210\nStd. error of the mean =   1.152503\nPk-Pk                  =  18.832360\n\n'
p1540
sg236
g83
sg94
Fnan
sg95
g1444
sg97
g1445
sg99
g503
sg100
F1.0
sg101
Vforestgreen
p1541
sg103
Fnan
sg61
V3Er
p1542
sg105
S'#\n# Column index\n#  0  SEQ:shot\n#  1  DIMPLE:oscdt\n#  2  CPP:ax0w\n\n4748\t\t0.1500\t\t46.3956\t\t\n4749\t\t0.2500\t\t45.9898\t\t\n4750\t\t0.3500\t\t43.5076\t\t\n4751\t\t0.4500\t\t39.5498\t\t\n4752\t\t0.5500\t\t32.4755\t\t\n4753\t\t0.6500\t\t30.2149\t\t\n4754\t\t0.7500\t\t27.5933\t\t\n4755\t\t0.8500\t\t27.5632\t\t\n4756\t\t0.9500\t\t29.0682\t\t\n4757\t\t1.0500\t\t33.0741\t\t\n4758\t\t1.1500\t\t36.8896\t\t\n4759\t\t1.2500\t\t39.8280\t\t\n4760\t\t1.3500\t\t41.0192\t\t\n4761\t\t1.4500\t\t40.3188\t\t\n4762\t\t1.5500\t\t37.1817\t\t\n4763\t\t1.6500\t\t34.4613\t\t\n4764\t\t1.7500\t\t31.2295\t\t\n4765\t\t1.8500\t\t29.6347\t\t\n4766\t\t1.9500\t\t29.1891\t\t\n4767\t\t2.0500\t\t31.3521\t\t\n4768\t\t2.1500\t\t33.7719\t\t\n4769\t\t2.2500\t\t36.3716\t\t\n4770\t\t2.3500\t\t37.9362\t\t\n4771\t\t2.4500\t\t39.5849\t\t'
p1543
sg106
g1071
sg108
I00
sg109
V4748:4771
p1544
sg110
g1311
sg111
F10.0
sg112
I01
sg113
Fnan
sg114
g243
sg116
I00
sbatp1545
Rp1546
(dp1547
g59
S'datasets_items'
p1548
sg61
g12
sbsg81
I00
sg82
Vgreen2
p1549
sg121
I1
sg122
g1511
sg123
g0
(g1
g2
(lp1550
I1
aI2
aI3
aI4
aI5
atp1551
Rp1552
(dp1553
g59
S'grids_items'
p1554
sg61
g123
sbsg129
I1
sg61
Vgreen2
p1555
sbag4
(g5
tp1556
Rp1557
(dp1558
g9
g10
sg11
I3
sg12
g0
(g1
g2
(lp1559
g4
(g14
tp1560
Rp1561
(dp1562
g9
g10
sg18
g1275
sg20
Fnan
sg21
g4
(g22
tp1563
Rp1564
(dp1565
g26
g27
(g28
(I0
tp1566
g30
tp1567
Rp1568
(I1
(I5
I1
tp1569
g402
I00
S"\xffJ,*P\x92'@\xeb:\xddA]\xbf\xf3?\xb8\x10\xcf\xe0\xab\x15\xcb\xbfj\xae$\x82R\x96\xef?\x12\xa4\x92\x1d\xecfB@"
p1570
tp1571
bsg9
g10
sg42
g27
(g28
(I0
tp1572
g30
tp1573
Rp1574
(I1
(I5
I1
tp1575
g402
I00
S'O\xda\x1d_~8\xf3?\xf8{\xe4\xc0\x83\r\x9e?\x04\x03E\x84\xd5:\xc4?^\xcb\x1ci\x8d\xb7\xc2?\xadN\xa8\xe6\x9eW\xce?'
p1576
tp1577
bsg49
g218
sg51
F0.0
sg52
F1000000000000000.0
sg53
F1000000000000000.0
sg54
g0
(g1
g2
(lp1578
I01
aI01
aI01
aI01
aI01
atp1579
Rp1580
(dp1581
g59
S'fit_mask_items'
p1582
sg61
g54
sbsg62
g1298
sg69
g1302
sg71
Fnan
sg72
g1303
sg74
F-1000000000000000.0
sg75
F-1000000000000000.0
sg76
I01
sg77
I01
sbsg78
I01
sg79
g231
sg232
I00
sg81
I01
sg82
g503
sg84
g83
sg85
I00
sg86
I00
sg87
I01
sg88
g1442
sg90
g503
sg91
I00
sg92
I01
sg93
S'Mean                   =   1.300000\nStd. deviation         =   0.692219\nStd. error of the mean =   0.144338\nPk-Pk                  =   2.300000\n\nMean                   =  37.139271\nStd. deviation         =   3.671570\nStd. error of the mean =   0.765575\nPk-Pk                  =  16.966630\n\n'
p1583
sg236
g83
sg94
Fnan
sg95
g1444
sg97
g1445
sg99
g503
sg100
F1.0
sg101
g1275
sg103
Fnan
sg61
g1308
sg105
S'#\n# Column index\n#  0  SEQ:shot\n#  1  DIMPLE:oscdt\n#  2  CPP:ax0w\n\n4772\t\t0.1500\t\t47.5403\t\t\n4773\t\t0.2500\t\t43.6900\t\t\n4774\t\t0.3500\t\t37.6934\t\t\n4775\t\t0.4500\t\t33.1064\t\t\n4776\t\t0.5500\t\t30.5737\t\t\n4777\t\t0.6500\t\t31.2204\t\t\n4778\t\t0.7500\t\t34.2388\t\t\n4779\t\t0.8500\t\t38.0538\t\t\n4780\t\t0.9500\t\t41.2118\t\t\n4781\t\t1.0500\t\t40.8567\t\t\n4782\t\t1.1500\t\t38.1675\t\t\n4783\t\t1.2500\t\t35.6757\t\t\n4784\t\t1.3500\t\t33.8829\t\t\n4785\t\t1.4500\t\t34.1670\t\t\n4786\t\t1.5500\t\t36.0882\t\t\n4787\t\t1.6500\t\t38.6588\t\t\n4788\t\t1.7500\t\t38.6845\t\t\n4789\t\t1.8500\t\t38.4342\t\t\n4790\t\t1.9500\t\t37.2208\t\t\n4791\t\t2.0500\t\t35.5295\t\t\n4792\t\t2.1500\t\t35.3897\t\t\n4793\t\t2.2500\t\t36.0445\t\t\n4794\t\t2.3500\t\t37.0318\t\t\n4795\t\t2.4500\t\t38.1819\t\t'
p1584
sg106
g1071
sg108
I00
sg109
V4772:4795
p1585
sg110
g1311
sg111
F10.0
sg112
I01
sg113
Fnan
sg114
g243
sg116
I00
sbag4
(g14
tp1586
Rp1587
(dp1588
g9
g10
sg18
g1451
sg20
Fnan
sg21
g4
(g22
tp1589
Rp1590
(dp1591
g26
g27
(g28
(I0
tp1592
g30
tp1593
Rp1594
(I1
(I5
I1
tp1595
g402
I00
S'\xec\xa0\xf2\\\xe3\x9e*@\xfa\xf7Nn\xffY\xf1?\xf9\xe6\xa0\x1flJ\xc0\xbf!}\xd5H\xd9\x8d\xee?\x9b)\x17*H\xdbA@'
p1596
tp1597
bsg9
g10
sg42
g27
(g28
(I0
tp1598
g30
tp1599
Rp1600
(I1
(I5
I1
tp1601
g402
I00
S'\x84`\xd4\x1a\x9f\xef\xf3?\x85N\x02q\x1c\x99\x93?\xa5\xaa\x05\xdf_\xb9\xbb?\xa5\xb7\x04\xe8\xfa\xd0\xc0?\x86p7\xeb\x884\xcc?'
p1602
tp1603
bsg49
g218
sg51
F0.0
sg52
F1000000000000000.0
sg53
F1000000000000000.0
sg54
g0
(g1
g2
(lp1604
I01
aI01
aI01
aI01
aI01
atp1605
Rp1606
(dp1607
g59
S'fit_mask_items'
p1608
sg61
g54
sbsg62
g1474
sg69
g1302
sg71
Fnan
sg72
g1303
sg74
F-1000000000000000.0
sg75
F-1000000000000000.0
sg76
I01
sg77
I01
sbsg78
I01
sg79
g231
sg232
I00
sg81
I01
sg82
g503
sg84
g83
sg85
I00
sg86
I00
sg87
I01
sg88
g1442
sg90
g503
sg91
I01
sg92
I01
sg93
S'Mean                   =   1.300000\nStd. deviation         =   0.692219\nStd. error of the mean =   0.144338\nPk-Pk                  =   2.300000\n\nMean                   =  36.329194\nStd. deviation         =   4.241398\nStd. error of the mean =   0.884393\nPk-Pk                  =  17.623720\n\n'
p1609
sg236
g83
sg94
Fnan
sg95
g1444
sg97
g1445
sg99
g503
sg100
F1.0
sg101
g1451
sg103
Fnan
sg61
g1479
sg105
S'#\n# Column index\n#  0  SEQ:shot\n#  1  DIMPLE:oscdt\n#  2  CPP:ax0w\n\n4796\t\t0.1500\t\t47.2789\t\t\n4797\t\t0.2500\t\t45.6682\t\t\n4798\t\t0.3500\t\t41.2930\t\t\n4799\t\t0.4500\t\t34.8609\t\t\n4800\t\t0.5500\t\t31.4438\t\t\n4801\t\t0.6500\t\t29.6552\t\t\n4802\t\t0.7500\t\t30.2899\t\t\n4803\t\t0.8500\t\t33.6949\t\t\n4804\t\t0.9500\t\t36.6780\t\t\n4805\t\t1.0500\t\t39.5031\t\t\n4806\t\t1.1500\t\t40.5848\t\t\n4807\t\t1.2500\t\t38.3251\t\t\n4808\t\t1.3500\t\t35.5044\t\t\n4809\t\t1.4500\t\t34.1127\t\t\n4810\t\t1.5500\t\t31.9339\t\t\n4811\t\t1.6500\t\t32.4246\t\t\n4812\t\t1.7500\t\t35.0149\t\t\n4813\t\t1.8500\t\t35.8478\t\t\n4814\t\t1.9500\t\t37.6787\t\t\n4815\t\t2.0500\t\t37.4614\t\t\n4816\t\t2.1500\t\t37.8312\t\t\n4817\t\t2.2500\t\t35.3868\t\t\n4818\t\t2.3500\t\t34.9847\t\t\n4819\t\t2.4500\t\t34.4436\t\t'
p1610
sg106
g1071
sg108
I00
sg109
V4796:4819
p1611
sg110
g1311
sg111
F10.0
sg112
I01
sg113
Fnan
sg114
g243
sg116
I00
sbag4
(g14
tp1612
Rp1613
(dp1614
g9
g10
sg18
g1485
sg20
Fnan
sg21
g4
(g22
tp1615
Rp1616
(dp1617
g26
g27
(g28
(I0
tp1618
g30
tp1619
Rp1620
(I1
(I5
I1
tp1621
g402
I00
S'N\xc1C\x0cLA1@\x93\x14\x99\x94\xd6\x9f\xec?*\xb9Z\x10\xcb\xb4\xc9\xbf\xb1\x00\xe9L\xf6P\xf0?KpV`[:A@'
p1622
tp1623
bsg9
g10
sg42
g27
(g28
(I0
tp1624
g30
tp1625
Rp1626
(I1
(I5
I1
tp1627
g402
I00
S'd.\xd2\x91\xf3\xcf\x02@icn\x8c\xd0\xdc\x97?\xc6Ng\x90xI\xc1?\xe6\xd3\xe9\xea\x00\x80\xca?\x86\x8e\x8aF\x1e\xf6\xd9?'
p1628
tp1629
bsg49
g218
sg51
F0.0
sg52
F1000000000000000.0
sg53
F1000000000000000.0
sg54
g0
(g1
g2
(lp1630
I01
aI01
aI01
aI01
aI01
atp1631
Rp1632
(dp1633
g59
S'fit_mask_items'
p1634
sg61
g54
sbsg62
g1474
sg69
g1302
sg71
Fnan
sg72
g1303
sg74
F-1000000000000000.0
sg75
F-1000000000000000.0
sg76
I01
sg77
I01
sbsg78
I01
sg79
g231
sg232
I00
sg81
I01
sg82
g503
sg84
g83
sg85
I00
sg86
I00
sg87
I01
sg88
g1442
sg90
g503
sg91
I01
sg92
I01
sg93
S'Mean                   =   1.300000\nStd. deviation         =   0.692219\nStd. error of the mean =   0.144338\nPk-Pk                  =   2.300000\n\nMean                   =  35.378869\nStd. deviation         =   5.402957\nStd. error of the mean =   1.126594\nPk-Pk                  =  21.913270\n\n'
p1635
sg236
g83
sg94
Fnan
sg95
g1444
sg97
g1445
sg99
g503
sg100
F1.0
sg101
g1485
sg103
Fnan
sg61
g1507
sg105
S'#\n# Column index\n#  0  SEQ:shot\n#  1  DIMPLE:oscdt\n#  2  CPP:ax0w\n\n4820\t\t0.1500\t\t49.5519\t\t\n4821\t\t0.2500\t\t47.0279\t\t\n4822\t\t0.3500\t\t44.4351\t\t\n4823\t\t0.4500\t\t38.7554\t\t\n4824\t\t0.5500\t\t34.1204\t\t\n4825\t\t0.6500\t\t30.2744\t\t\n4826\t\t0.7500\t\t27.6386\t\t\n4827\t\t0.8500\t\t28.3011\t\t\n4828\t\t0.9500\t\t30.6001\t\t\n4829\t\t1.0500\t\t32.9172\t\t\n4830\t\t1.1500\t\t35.4785\t\t\n4831\t\t1.2500\t\t38.5313\t\t\n4832\t\t1.3500\t\t38.8617\t\t\n4833\t\t1.4500\t\t36.8162\t\t\n4834\t\t1.5500\t\t35.3968\t\t\n4835\t\t1.6500\t\t33.1404\t\t\n4836\t\t1.7500\t\t31.5566\t\t\n4837\t\t1.8500\t\t30.9489\t\t\n4838\t\t1.9500\t\t30.9273\t\t\n4839\t\t2.0500\t\t32.0115\t\t\n4840\t\t2.1500\t\t33.5491\t\t\n4841\t\t2.2500\t\t34.3165\t\t\n4842\t\t2.3500\t\t37.0015\t\t\n4843\t\t2.4500\t\t36.9344\t\t'
p1636
sg106
g1071
sg108
I00
sg109
V4820:4843
p1637
sg110
g1311
sg111
F10.0
sg112
I01
sg113
Fnan
sg114
g243
sg116
I00
sbag4
(g14
tp1638
Rp1639
(dp1640
g9
g10
sg18
g1513
sg20
Fnan
sg21
g4
(g22
tp1641
Rp1642
(dp1643
g26
g27
(g28
(I0
tp1644
g30
tp1645
Rp1646
(I1
(I5
I1
tp1647
g402
I00
S'\x1c\xdb\xef\xfd\xe9/7@\xdc\x94\x92"\xe0\x95\xe6?2\x869!87\xc6\xbf\xf1\x06\xc2D\x12\xfe\xef?\x96\x830\x1f8\xb2@@'
p1648
tp1649
bsg9
g10
sg42
g27
(g28
(I0
tp1650
g30
tp1651
Rp1652
(I1
(I5
I1
tp1653
g402
I00
S'\xfd<-w\xe7\xc6\x07@\xa8\xb3\xd4\x1c`\xf7\x96?\xc3\x1e\x04\x88\xf4\xa2\xc0?f\x8f\x88y\x0b\xcb\xc7?\xb0\x07\x14r\x81\xcf\xe1?'
p1654
tp1655
bsg49
g218
sg51
F0.0
sg52
F1000000000000000.0
sg53
F1000000000000000.0
sg54
g0
(g1
g2
(lp1656
I01
aI01
aI01
aI01
aI01
atp1657
Rp1658
(dp1659
g59
S'fit_mask_items'
p1660
sg61
g54
sbsg62
g1536
sg69
g1302
sg71
Fnan
sg72
g1303
sg74
F-1000000000000000.0
sg75
F-1000000000000000.0
sg76
I01
sg77
I01
sbsg78
I01
sg79
g231
sg232
I00
sg81
I01
sg82
g503
sg84
g83
sg85
I00
sg86
I00
sg87
I01
sg88
g1442
sg90
g503
sg91
I01
sg92
I00
sg93
S'Mean                   =   1.250000\nStd. deviation         =   0.663325\nStd. error of the mean =   0.141421\nPk-Pk                  =   2.200000\n\nMean                   =  35.325195\nStd. deviation         =   7.297516\nStd. error of the mean =   1.555836\nPk-Pk                  =  24.536180\n\n'
p1661
sg236
g83
sg94
Fnan
sg95
g1444
sg97
g1445
sg99
g503
sg100
F1.0
sg101
g1541
sg103
Fnan
sg61
g1542
sg105
S'#\n# Column index\n#  0  SEQ:shot\n#  1  DIMPLE:oscdt\n#  2  CPP:ax0w\n\n4845\t\t0.1500\t\t49.4209\t\t\n4846\t\t0.2500\t\t50.8016\t\t\n4847\t\t0.3500\t\t49.6159\t\t\n4848\t\t0.4500\t\t45.3372\t\t\n4849\t\t0.5500\t\t40.3833\t\t\n4850\t\t0.6500\t\t34.3852\t\t\n4851\t\t0.7500\t\t30.5988\t\t\n4852\t\t0.8500\t\t28.1770\t\t\n4853\t\t0.9500\t\t26.4698\t\t\n4854\t\t1.0500\t\t26.2655\t\t\n4855\t\t1.1500\t\t27.6795\t\t\n4856\t\t1.2500\t\t29.9544\t\t\n4857\t\t1.3500\t\t32.0573\t\t\n4858\t\t1.4500\t\t34.7118\t\t\n4859\t\t1.5500\t\t36.6173\t\t\n4860\t\t1.6500\t\t37.0045\t\t\n4861\t\t1.7500\t\t38.0520\t\t\n4862\t\t1.8500\t\t37.6354\t\t\n4863\t\t1.9500\t\t35.4093\t\t\n4864\t\t2.0500\t\t33.0421\t\t\n4865\t\t2.1500\t\t31.0973\t\t\n4866\t\t2.2500\t\t28.8036\t\t\n4867\t\t2.3500\t\t28.9598\t\t\n4868\t\t'
p1662
sg106
g1071
sg108
I00
sg109
V4845:4868
p1663
sg110
g1311
sg111
F10.0
sg112
I01
sg113
Fnan
sg114
g243
sg116
I00
sbatp1664
Rp1665
(dp1666
g59
S'datasets_items'
p1667
sg61
g12
sbsg81
I00
sg82
Vgreen1
p1668
sg121
I1
sg122
g1639
sg123
g0
(g1
g2
(lp1669
I1
aI2
aI3
aI4
aI5
atp1670
Rp1671
(dp1672
g59
S'grids_items'
p1673
sg61
g123
sbsg129
I1
sg61
Vgreen1
p1674
sbag4
(g5
tp1675
Rp1676
(dp1677
g9
g10
sg11
I0
sg12
g0
(g1
g2
(lp1678
g4
(g14
tp1679
Rp1680
(dp1681
g9
g10
sg18
g1108
sg20
Fnan
sg21
g4
(g22
tp1682
Rp1683
(dp1684
g26
g622
sg9
g10
sg42
g633
sg49
g218
sg51
F0.0
sg52
F1000000000000000.0
sg53
F1000000000000000.0
sg54
g0
(g1
g2
(lp1685
I01
aI01
aI01
aI01
aI01
atp1686
Rp1687
(dp1688
g59
S'fit_mask_items'
p1689
sg61
g54
sbsg62
g644
sg69
g424
sg71
Fnan
sg72
g648
sg74
F-1000000000000000.0
sg75
F-1000000000000000.0
sg76
I00
sg77
I00
sbsg78
I01
sg79
g231
sg232
I00
sg81
I01
sg82
g503
sg84
g83
sg85
I00
sg86
I00
sg87
I01
sg88
V/lab/data/app3/2013/1305/130520/
p1690
sg90
g503
sg91
I00
sg92
I01
sg93
S'Mean                   = 102.000000\nStd. deviation         =  67.941151\nStd. error of the mean =  33.970576\nPk-Pk                  = 190.000000\n\nMean                   = 154242.020000\nStd. deviation         = 18652.667569\nStd. error of the mean = 9326.333785\nPk-Pk                  = 46971.400000\n\n'
p1691
sg236
g83
sg94
Fnan
sg95
g1169
sg97
VDIMPLELATTICE:image
p1692
sg99
g503
sg100
F1.0
sg101
g1108
sg103
Fnan
sg61
g1171
sg105
S'#\n# Column index\n#  0  SEQ:shot\n#  1  DIMPLELATTICE:image\n#  2  CPP:nfit\n\n4968\t\t10.0000\t\t1.739e+05\t\t\n4969\t\t50.0000\t\t1.628e+05\t\t\n4970\t\t100.0000\t\t1.701e+05\t\t\n4971\t\t150.0000\t\t1.374e+05\t\t\n4972\t\t200.0000\t\t1.269e+05\t\t'
p1693
sg106
g1071
sg108
I00
sg109
V4968:4972
p1694
sg110
Vimage (ms)
p1695
sg111
F10.0
sg112
I01
sg113
Fnan
sg114
g243
sg116
I00
sbag4
(g14
tp1696
Rp1697
(dp1698
g9
g10
sg18
g1108
sg20
Fnan
sg21
g4
(g22
tp1699
Rp1700
(dp1701
g26
g622
sg9
g10
sg42
g633
sg49
g218
sg51
F0.0
sg52
F1000000000000000.0
sg53
F1000000000000000.0
sg54
g0
(g1
g2
(lp1702
I01
aI01
aI01
aI01
aI01
atp1703
Rp1704
(dp1705
g59
S'fit_mask_items'
p1706
sg61
g54
sbsg62
g644
sg69
g424
sg71
Fnan
sg72
g648
sg74
F-1000000000000000.0
sg75
F-1000000000000000.0
sg76
I00
sg77
I00
sbsg78
I01
sg79
g231
sg232
I00
sg81
I01
sg82
g503
sg84
g83
sg85
I00
sg86
I00
sg87
I01
sg88
V/lab/data/app3/2013/1305/130520/
p1707
sg90
g503
sg91
I00
sg92
I01
sg93
S'Mean                   = 102.000000\nStd. deviation         =  67.941151\nStd. error of the mean =  33.970576\nPk-Pk                  = 190.000000\n\nMean                   = 3973148400000.000000\nStd. deviation         = 802184315192.362793\nStd. error of the mean = 401092157596.181396\nPk-Pk                  = 1865230000000.000000\n\n'
p1708
sg236
g83
sg94
Fnan
sg95
g1187
sg97
VDIMPLELATTICE:image
p1709
sg99
g503
sg100
F1.0
sg101
g1108
sg103
Fnan
sg61
g1188
sg105
S'#\n# Column index\n#  0  SEQ:shot\n#  1  DIMPLELATTICE:image\n#  2  CPP:peakd_sph\n\n4968\t\t10.0000\t\t4.874e+12\t\t\n4969\t\t50.0000\t\t5.002e+12\t\t\n4970\t\t100.0000\t\t3.586e+12\t\t\n4971\t\t150.0000\t\t3.137e+12\t\t\n4972\t\t200.0000\t\t3.267e+12\t\t'
p1710
sg106
g1071
sg108
I00
sg109
V4968:4972
p1711
sg110
Vimage (ms)
p1712
sg111
F10.0
sg112
I01
sg113
Fnan
sg114
g243
sg116
I00
sbag4
(g14
tp1713
Rp1714
(dp1715
g9
g10
sg18
g1108
sg20
Fnan
sg21
g4
(g22
tp1716
Rp1717
(dp1718
g26
g622
sg9
g10
sg42
g633
sg49
g218
sg51
F0.0
sg52
F1000000000000000.0
sg53
F1000000000000000.0
sg54
g0
(g1
g2
(lp1719
I01
aI01
aI01
aI01
aI01
atp1720
Rp1721
(dp1722
g59
S'fit_mask_items'
p1723
sg61
g54
sbsg62
g644
sg69
g424
sg71
Fnan
sg72
g648
sg74
F-1000000000000000.0
sg75
F-1000000000000000.0
sg76
I00
sg77
I00
sbsg78
I01
sg79
g231
sg232
I00
sg81
I01
sg82
g503
sg84
g83
sg85
I00
sg86
I00
sg87
I01
sg88
V/lab/data/app3/2013/1305/130520/
p1724
sg90
g503
sg91
I00
sg92
I01
sg93
S'Mean                   = 102.000000\nStd. deviation         =  67.941151\nStd. error of the mean =  33.970576\nPk-Pk                  = 190.000000\n\nMean                   = 251.691460\nStd. deviation         =   1.459216\nStd. error of the mean =   0.729608\nPk-Pk                  =   3.868600\n\n'
p1725
sg236
g83
sg94
Fnan
sg95
g1204
sg97
VDIMPLELATTICE:image
p1726
sg99
g503
sg100
F1.0
sg101
g1108
sg103
Fnan
sg61
g1205
sg105
S'#\n# Column index\n#  0  SEQ:shot\n#  1  DIMPLELATTICE:image\n#  2  CPP:ax0c\n\n4968\t\t10.0000\t\t253.0239\t\t\n4969\t\t50.0000\t\t253.0579\t\t\n4970\t\t100.0000\t\t252.1947\t\t\n4971\t\t150.0000\t\t250.9915\t\t\n4972\t\t200.0000\t\t249.1893\t\t'
p1727
sg106
g1071
sg108
I00
sg109
V4968:4972
p1728
sg110
Vimage (ms)
p1729
sg111
F10.0
sg112
I01
sg113
Fnan
sg114
g243
sg116
I00
sbag4
(g14
tp1730
Rp1731
(dp1732
g9
g10
sg18
g1108
sg20
Fnan
sg21
g4
(g22
tp1733
Rp1734
(dp1735
g26
g622
sg9
g10
sg42
g633
sg49
g218
sg51
F0.0
sg52
F1000000000000000.0
sg53
F1000000000000000.0
sg54
g0
(g1
g2
(lp1736
I01
aI01
aI01
aI01
aI01
atp1737
Rp1738
(dp1739
g59
S'fit_mask_items'
p1740
sg61
g54
sbsg62
g644
sg69
g424
sg71
Fnan
sg72
g648
sg74
F-1000000000000000.0
sg75
F-1000000000000000.0
sg76
I00
sg77
I00
sbsg78
I01
sg79
g231
sg232
I00
sg81
I01
sg82
g503
sg84
g83
sg85
I00
sg86
I00
sg87
I01
sg88
V/lab/data/app3/2013/1305/130520/
p1741
sg90
g503
sg91
I00
sg92
I01
sg93
S'Mean                   = 102.000000\nStd. deviation         =  67.941151\nStd. error of the mean =  33.970576\nPk-Pk                  = 190.000000\n\nMean                   = 209.974640\nStd. deviation         =   1.400929\nStd. error of the mean =   0.700464\nPk-Pk                  =   4.289000\n\n'
p1742
sg236
g83
sg94
Fnan
sg95
g1221
sg97
VDIMPLELATTICE:image
p1743
sg99
g503
sg100
F1.0
sg101
g1108
sg103
Fnan
sg61
g1222
sg105
S'#\n# Column index\n#  0  SEQ:shot\n#  1  DIMPLELATTICE:image\n#  2  CPP:ax1c\n\n4968\t\t10.0000\t\t209.8650\t\t\n4969\t\t50.0000\t\t210.5871\t\t\n4970\t\t100.0000\t\t210.1167\t\t\n4971\t\t150.0000\t\t211.7967\t\t\n4972\t\t200.0000\t\t207.5077\t\t'
p1744
sg106
g1071
sg108
I00
sg109
V4968:4972
p1745
sg110
Vimage (ms)
p1746
sg111
F10.0
sg112
I01
sg113
Fnan
sg114
g243
sg116
I00
sbag4
(g14
tp1747
Rp1748
(dp1749
g9
g10
sg18
g1108
sg20
Fnan
sg21
g4
(g22
tp1750
Rp1751
(dp1752
g26
g622
sg9
g10
sg42
g633
sg49
g218
sg51
F0.0
sg52
F1000000000000000.0
sg53
F1000000000000000.0
sg54
g0
(g1
g2
(lp1753
I01
aI01
aI01
aI01
aI01
atp1754
Rp1755
(dp1756
g59
S'fit_mask_items'
p1757
sg61
g54
sbsg62
g644
sg69
g424
sg71
Fnan
sg72
g648
sg74
F-1000000000000000.0
sg75
F-1000000000000000.0
sg76
I00
sg77
I00
sbsg78
I01
sg79
g231
sg232
I00
sg81
I01
sg82
g503
sg84
g83
sg85
I00
sg86
I00
sg87
I01
sg88
g1741
sg90
g503
sg91
I00
sg92
I01
sg93
S'Mean                   = 102.000000\nStd. deviation         =  67.941151\nStd. error of the mean =  33.970576\nPk-Pk                  = 190.000000\n\nMean                   =  19.337938\nStd. deviation         =   0.923167\nStd. error of the mean =   0.461584\nPk-Pk                  =   2.071310\n\n'
p1758
sg236
g83
sg94
Fnan
sg95
VCPP:ax0w
p1759
sg97
g1743
sg99
g503
sg100
F1.0
sg101
g1108
sg103
Fnan
sg61
Vax0w
p1760
sg105
S'#\n# Column index\n#  0  SEQ:shot\n#  1  DIMPLELATTICE:image\n#  2  CPP:ax0w\n\n4968\t\t10.0000\t\t18.6002\t\t\n4969\t\t50.0000\t\t18.4291\t\t\n4970\t\t100.0000\t\t20.4233\t\t\n4971\t\t150.0000\t\t20.5004\t\t\n4972\t\t200.0000\t\t18.7367\t\t'
p1761
sg106
g1071
sg108
I00
sg109
g1745
sg110
Vimage (ms)
p1762
sg111
F10.0
sg112
I01
sg113
Fnan
sg114
g243
sg116
I00
sbag4
(g14
tp1763
Rp1764
(dp1765
g9
g10
sg18
g1108
sg20
Fnan
sg21
g4
(g22
tp1766
Rp1767
(dp1768
g26
g622
sg9
g10
sg42
g633
sg49
g218
sg51
F0.0
sg52
F1000000000000000.0
sg53
F1000000000000000.0
sg54
g0
(g1
g2
(lp1769
I01
aI01
aI01
aI01
aI01
atp1770
Rp1771
(dp1772
g59
S'fit_mask_items'
p1773
sg61
g54
sbsg62
g644
sg69
g424
sg71
Fnan
sg72
g648
sg74
F-1000000000000000.0
sg75
F-1000000000000000.0
sg76
I00
sg77
I00
sbsg78
I01
sg79
g231
sg232
I00
sg81
I01
sg82
g503
sg84
g83
sg85
I00
sg86
I00
sg87
I01
sg88
g1741
sg90
g503
sg91
I00
sg92
I01
sg93
S'Mean                   = 102.000000\nStd. deviation         =  67.941151\nStd. error of the mean =  33.970576\nPk-Pk                  = 190.000000\n\nMean                   =  19.073204\nStd. deviation         =   0.945063\nStd. error of the mean =   0.472532\nPk-Pk                  =   2.814340\n\n'
p1774
sg236
g83
sg94
Fnan
sg95
VCPP:ax1w
p1775
sg97
g1743
sg99
g503
sg100
F1.0
sg101
g1108
sg103
Fnan
sg61
Vax1w
p1776
sg105
S'#\n# Column index\n#  0  SEQ:shot\n#  1  DIMPLELATTICE:image\n#  2  CPP:ax1w\n\n4968\t\t10.0000\t\t18.5479\t\t\n4969\t\t50.0000\t\t17.6085\t\t\n4970\t\t100.0000\t\t20.4228\t\t\n4971\t\t150.0000\t\t19.2990\t\t\n4972\t\t200.0000\t\t19.4878\t\t'
p1777
sg106
g1071
sg108
I00
sg109
g1745
sg110
Vimage (ms)
p1778
sg111
F10.0
sg112
I01
sg113
Fnan
sg114
g243
sg116
I00
sbatp1779
Rp1780
(dp1781
g59
S'datasets_items'
p1782
sg61
g12
sbsg81
I00
sg82
VDImpLatt 0 200
p1783
sg121
I3
sg122
g1680
sg123
g0
(g1
g2
(lp1784
I1
aI2
aI3
aI4
aI5
aI6
atp1785
Rp1786
(dp1787
g59
S'grids_items'
p1788
sg61
g123
sbsg129
I2
sg61
VDImpLatt 0 200
p1789
sbag4
(g5
tp1790
Rp1791
(dp1792
g9
g10
sg11
I0
sg12
g0
(g1
g2
(lp1793
g4
(g14
tp1794
Rp1795
(dp1796
g9
g10
sg18
g851
sg20
Fnan
sg21
g4
(g22
tp1797
Rp1798
(dp1799
g26
g622
sg9
g10
sg42
g633
sg49
g218
sg51
F0.0
sg52
F1000000000000000.0
sg53
F1000000000000000.0
sg54
g0
(g1
g2
(lp1800
I01
aI01
aI01
aI01
aI01
atp1801
Rp1802
(dp1803
g59
S'fit_mask_items'
p1804
sg61
g54
sbsg62
g644
sg69
g424
sg71
Fnan
sg72
g648
sg74
F-1000000000000000.0
sg75
F-1000000000000000.0
sg76
I00
sg77
I00
sbsg78
I01
sg79
g231
sg232
I00
sg81
I01
sg82
g503
sg84
g83
sg85
I00
sg86
I00
sg87
I01
sg88
V/lab/data/app3/2013/1305/130520/
p1805
sg90
g503
sg91
I00
sg92
I01
sg93
S'Mean                   =  23.428571\nStd. deviation         =   2.060315\nStd. error of the mean =   0.841120\nPk-Pk                  =   6.000000\n\nMean                   = 251.302129\nStd. deviation         =   0.376855\nStd. error of the mean =   0.153851\nPk-Pk                  =   1.099100\n\n'
p1806
sg236
g83
sg94
Fnan
sg95
g651
sg97
VLATTICEPOS:gr2H
p1807
sg99
g503
sg100
F1.0
sg101
g851
sg103
Fnan
sg61
g653
sg105
S'#\n# Column index\n#  0  SEQ:shot\n#  1  LATTICEPOS:gr2H\n#  2  CPP:ax0c\n\n5101\t\t20.0000\t\t251.5383\t\t\n5102\t\t22.0000\t\t250.8062\t\t\n5103\t\t22.0000\t\t251.4408\t\t\n5104\t\t24.0000\t\t251.9053\t\t\n5105\t\t24.0000\t\t250.8907\t\t\n5106\t\t26.0000\t\t251.0045\t\t\n5107\t\t26.0000\t\t251.5291\t\t'
p1808
sg106
g864
sg108
I00
sg109
V5101:5112
p1809
sg110
g657
sg111
F10.0
sg112
I01
sg113
Fnan
sg114
g243
sg116
I00
sbag4
(g14
tp1810
Rp1811
(dp1812
g9
g10
sg18
g869
sg20
Fnan
sg21
g4
(g22
tp1813
Rp1814
(dp1815
g26
g622
sg9
g10
sg42
g633
sg49
g218
sg51
F0.0
sg52
F1000000000000000.0
sg53
F1000000000000000.0
sg54
g0
(g1
g2
(lp1816
I01
aI01
aI01
aI01
aI01
atp1817
Rp1818
(dp1819
g59
S'fit_mask_items'
p1820
sg61
g54
sbsg62
g644
sg69
g424
sg71
Fnan
sg72
g648
sg74
F-1000000000000000.0
sg75
F-1000000000000000.0
sg76
I00
sg77
I00
sbsg78
I01
sg79
g231
sg232
I00
sg81
I01
sg82
g503
sg84
g83
sg85
I00
sg86
I00
sg87
I01
sg88
V/lab/data/app3/2013/1305/130520/
p1821
sg90
g503
sg91
I00
sg92
I01
sg93
S'Mean                   =  23.428571\nStd. deviation         =   2.060315\nStd. error of the mean =   0.841120\nPk-Pk                  =   6.000000\n\nMean                   = 209.758186\nStd. deviation         =   0.409591\nStd. error of the mean =   0.167215\nPk-Pk                  =   1.064600\n\n'
p1822
sg236
g83
sg94
Fnan
sg95
g672
sg97
VLATTICEPOS:gr2H
p1823
sg99
g503
sg100
F1.0
sg101
g869
sg103
Fnan
sg61
g674
sg105
S'#\n# Column index\n#  0  SEQ:shot\n#  1  LATTICEPOS:gr2H\n#  2  CPP:ax1c\n\n5101\t\t20.0000\t\t209.4798\t\t\n5102\t\t22.0000\t\t209.5358\t\t\n5103\t\t22.0000\t\t209.2809\t\t\n5104\t\t24.0000\t\t210.1257\t\t\n5105\t\t24.0000\t\t209.3579\t\t\n5106\t\t26.0000\t\t210.3455\t\t\n5107\t\t26.0000\t\t210.1817\t\t'
p1824
sg106
g882
sg108
I00
sg109
V5101:5112
p1825
sg110
g657
sg111
F10.0
sg112
I01
sg113
Fnan
sg114
g243
sg116
I00
sbag4
(g14
tp1826
Rp1827
(dp1828
g9
g10
sg18
g887
sg20
Fnan
sg21
g4
(g22
tp1829
Rp1830
(dp1831
g26
g622
sg9
g10
sg42
g633
sg49
g218
sg51
F0.0
sg52
F1000000000000000.0
sg53
F1000000000000000.0
sg54
g0
(g1
g2
(lp1832
I01
aI01
aI01
aI01
aI01
atp1833
Rp1834
(dp1835
g59
S'fit_mask_items'
p1836
sg61
g54
sbsg62
g644
sg69
g424
sg71
Fnan
sg72
g648
sg74
F-1000000000000000.0
sg75
F-1000000000000000.0
sg76
I00
sg77
I00
sbsg78
I01
sg79
g231
sg232
I00
sg81
I01
sg82
g503
sg84
g83
sg85
I00
sg86
I00
sg87
I01
sg88
V/lab/data/app3/2013/1305/130520/
p1837
sg90
g503
sg91
I00
sg92
I01
sg93
S'Mean                   =  23.428571\nStd. deviation         =   2.060315\nStd. error of the mean =   0.841120\nPk-Pk                  =   6.000000\n\nMean                   =  13.480471\nStd. deviation         =   0.197984\nStd. error of the mean =   0.080826\nPk-Pk                  =   0.624310\n\n'
p1838
sg236
g83
sg94
Fnan
sg95
g691
sg97
VLATTICEPOS:gr2H
p1839
sg99
g503
sg100
F1.0
sg101
g887
sg103
Fnan
sg61
g692
sg105
S'#\n# Column index\n#  0  SEQ:shot\n#  1  LATTICEPOS:gr2H\n#  2  CPP:ax0w\n\n5101\t\t20.0000\t\t13.8554\t\t\n5102\t\t22.0000\t\t13.2311\t\t\n5103\t\t22.0000\t\t13.4387\t\t\n5104\t\t24.0000\t\t13.2442\t\t\n5105\t\t24.0000\t\t13.4673\t\t\n5106\t\t26.0000\t\t13.5538\t\t\n5107\t\t26.0000\t\t13.5727\t\t'
p1840
sg106
g900
sg108
I00
sg109
V5101:5112
p1841
sg110
g657
sg111
F10.0
sg112
I01
sg113
Fnan
sg114
g243
sg116
I00
sbag4
(g14
tp1842
Rp1843
(dp1844
g9
g10
sg18
g905
sg20
Fnan
sg21
g4
(g22
tp1845
Rp1846
(dp1847
g26
g622
sg9
g10
sg42
g633
sg49
g218
sg51
F0.0
sg52
F1000000000000000.0
sg53
F1000000000000000.0
sg54
g0
(g1
g2
(lp1848
I01
aI01
aI01
aI01
aI01
atp1849
Rp1850
(dp1851
g59
S'fit_mask_items'
p1852
sg61
g54
sbsg62
g644
sg69
g424
sg71
Fnan
sg72
g648
sg74
F-1000000000000000.0
sg75
F-1000000000000000.0
sg76
I00
sg77
I00
sbsg78
I01
sg79
g231
sg232
I00
sg81
I01
sg82
g503
sg84
g83
sg85
I00
sg86
I00
sg87
I01
sg88
V/lab/data/app3/2013/1305/130520/
p1853
sg90
g503
sg91
I00
sg92
I01
sg93
S'Mean                   =  23.428571\nStd. deviation         =   2.060315\nStd. error of the mean =   0.841120\nPk-Pk                  =   6.000000\n\nMean                   =  11.126900\nStd. deviation         =   0.384803\nStd. error of the mean =   0.157095\nPk-Pk                  =   0.979730\n\n'
p1854
sg236
g83
sg94
Fnan
sg95
g709
sg97
VLATTICEPOS:gr2H
p1855
sg99
g503
sg100
F1.0
sg101
g905
sg103
Fnan
sg61
g710
sg105
S'#\n# Column index\n#  0  SEQ:shot\n#  1  LATTICEPOS:gr2H\n#  2  CPP:ax1w\n\n5101\t\t20.0000\t\t11.3220\t\t\n5102\t\t22.0000\t\t11.4566\t\t\n5103\t\t22.0000\t\t11.4902\t\t\n5104\t\t24.0000\t\t10.5607\t\t\n5105\t\t24.0000\t\t10.5104\t\t\n5106\t\t26.0000\t\t11.3571\t\t\n5107\t\t26.0000\t\t11.1912\t\t'
p1856
sg106
g918
sg108
I00
sg109
V5101:5112
p1857
sg110
g657
sg111
F10.0
sg112
I01
sg113
Fnan
sg114
g243
sg116
I00
sbatp1858
Rp1859
(dp1860
g59
S'datasets_items'
p1861
sg61
g12
sbsg81
I00
sg82
Vgr2H
p1862
sg121
I2
sg122
g1795
sg123
g0
(g1
g2
(lp1863
I1
aI2
aI3
aI4
aI5
aI6
aI7
aI8
aI9
aI10
aI11
aI12
aI13
atp1864
Rp1865
(dp1866
g59
S'grids_items'
p1867
sg61
g123
sbsg129
I2
sg61
Vgr2H
p1868
sbag4
(g5
tp1869
Rp1870
(dp1871
g9
g10
sg11
I0
sg12
g0
(g1
g2
(lp1872
g4
(g14
tp1873
Rp1874
(dp1875
g9
g10
sg18
g1108
sg20
Fnan
sg21
g4
(g22
tp1876
Rp1877
(dp1878
g26
g622
sg9
g10
sg42
g633
sg49
g218
sg51
F0.0
sg52
F1000000000000000.0
sg53
F1000000000000000.0
sg54
g0
(g1
g2
(lp1879
I01
aI01
aI01
aI01
aI01
atp1880
Rp1881
(dp1882
g59
S'fit_mask_items'
p1883
sg61
g54
sbsg62
g644
sg69
g424
sg71
Fnan
sg72
g648
sg74
F-1000000000000000.0
sg75
F-1000000000000000.0
sg76
I00
sg77
I00
sbsg78
I01
sg79
g231
sg232
I00
sg81
I01
sg82
g503
sg84
g83
sg85
I00
sg86
I00
sg87
I01
sg88
V/lab/data/app3/2013/1305/130521/
p1884
sg90
g503
sg91
I00
sg92
I01
sg93
S'Mean                   =   2.250000\nStd. deviation         =   0.692219\nStd. error of the mean =   0.144338\nPk-Pk                  =   2.300000\n\nMean                   = 280612.966667\nStd. deviation         = 20701.576474\nStd. error of the mean = 4316.577089\nPk-Pk                  = 85904.300000\n\n'
p1885
sg236
g83
sg94
Fnan
sg95
g1169
sg97
VDIMPLELATTICE:knob1
p1886
sg99
g503
sg100
F1.0
sg101
g1108
sg103
Fnan
sg61
g1171
sg105
S'#\n# Column index\n#  0  SEQ:shot\n#  1  DIMPLELATTICE:knob1\n#  2  CPP:nfit\n\n5506\t\t1.1000\t\t2.824e+05\t\t\n5507\t\t1.2000\t\t2.401e+05\t\t\n5508\t\t1.3000\t\t3.139e+05\t\t\n5509\t\t1.4000\t\t2.916e+05\t\t\n5510\t\t1.5000\t\t3.106e+05\t\t\n5511\t\t1.6000\t\t2.895e+05\t\t\n5512\t\t1.7000\t\t2.974e+05\t\t\n5513\t\t1.8000\t\t2.815e+05\t\t\n5514\t\t1.9000\t\t3.024e+05\t\t\n5515\t\t2.0000\t\t2.882e+05\t\t\n5516\t\t2.1000\t\t2.954e+05\t\t\n5517\t\t2.2000\t\t2.795e+05\t\t\n5518\t\t2.3000\t\t2.812e+05\t\t\n5519\t\t2.4000\t\t2.966e+05\t\t\n5520\t\t2.5000\t\t2.454e+05\t\t\n5521\t\t2.6000\t\t2.756e+05\t\t\n5522\t\t2.7000\t\t2.725e+05\t\t\n5523\t\t2.8000\t\t2.986e+05\t\t\n5524\t\t2.9000\t\t2.619e+05\t\t\n5525\t\t3.0000\t\t2.864e+05\t\t\n5526\t\t3.1000\t\t2.768e+05\t\t\n5527\t\t3.2000\t\t2.762e+05\t\t\n5528\t\t3.3000\t\t2.631e+05\t\t\n5529\t\t3.4000\t\t2.280e+05\t\t'
p1887
sg106
g1071
sg108
I00
sg109
V5506:5529
p1888
sg110
g1174
sg111
F10.0
sg112
I01
sg113
Fnan
sg114
g243
sg116
I00
sbag4
(g14
tp1889
Rp1890
(dp1891
g9
g10
sg18
g1108
sg20
Fnan
sg21
g4
(g22
tp1892
Rp1893
(dp1894
g26
g622
sg9
g10
sg42
g633
sg49
g218
sg51
F0.0
sg52
F1000000000000000.0
sg53
F1000000000000000.0
sg54
g0
(g1
g2
(lp1895
I01
aI01
aI01
aI01
aI01
atp1896
Rp1897
(dp1898
g59
S'fit_mask_items'
p1899
sg61
g54
sbsg62
g644
sg69
g424
sg71
Fnan
sg72
g648
sg74
F-1000000000000000.0
sg75
F-1000000000000000.0
sg76
I00
sg77
I00
sbsg78
I01
sg79
g231
sg232
I00
sg81
I01
sg82
g503
sg84
g83
sg85
I00
sg86
I00
sg87
I01
sg88
V/lab/data/app3/2013/1305/130521/
p1900
sg90
g503
sg91
I00
sg92
I01
sg93
S'Mean                   =   2.250000\nStd. deviation         =   0.692219\nStd. error of the mean =   0.144338\nPk-Pk                  =   2.300000\n\nMean                   = 23697491250000.000000\nStd. deviation         = 2460514348597.179688\nStd. error of the mean = 513052707676.765991\nPk-Pk                  = 7759350000000.000000\n\n'
p1901
sg236
g83
sg94
Fnan
sg95
g1187
sg97
VDIMPLELATTICE:knob1
p1902
sg99
g503
sg100
F1.0
sg101
g1108
sg103
Fnan
sg61
g1188
sg105
S'#\n# Column index\n#  0  SEQ:shot\n#  1  DIMPLELATTICE:knob1\n#  2  CPP:peakd_sph\n\n5506\t\t1.1000\t\t2.606e+13\t\t\n5507\t\t1.2000\t\t2.545e+13\t\t\n5508\t\t1.3000\t\t2.646e+13\t\t\n5509\t\t1.4000\t\t2.606e+13\t\t\n5510\t\t1.5000\t\t2.623e+13\t\t\n5511\t\t1.6000\t\t2.548e+13\t\t\n5512\t\t1.7000\t\t2.579e+13\t\t\n5513\t\t1.8000\t\t2.567e+13\t\t\n5514\t\t1.9000\t\t2.579e+13\t\t\n5515\t\t2.0000\t\t2.481e+13\t\t\n5516\t\t2.1000\t\t2.501e+13\t\t\n5517\t\t2.2000\t\t2.516e+13\t\t\n5518\t\t2.3000\t\t2.443e+13\t\t\n5519\t\t2.4000\t\t2.460e+13\t\t\n5520\t\t2.5000\t\t2.267e+13\t\t\n5521\t\t2.6000\t\t2.412e+13\t\t\n5522\t\t2.7000\t\t2.254e+13\t\t\n5523\t\t2.8000\t\t2.220e+13\t\t\n5524\t\t2.9000\t\t1.959e+13\t\t\n5525\t\t3.0000\t\t2.266e+13\t\t\n5526\t\t3.1000\t\t2.007e+13\t\t\n5527\t\t3.2000\t\t1.997e+13\t\t\n5528\t\t3.3000\t\t1.924e+13\t\t\n5529\t\t3.4000\t\t1.870e+13\t\t'
p1903
sg106
g1071
sg108
I00
sg109
V5506:5529
p1904
sg110
g1191
sg111
F10.0
sg112
I01
sg113
Fnan
sg114
g243
sg116
I00
sbag4
(g14
tp1905
Rp1906
(dp1907
g9
g10
sg18
g1108
sg20
Fnan
sg21
g4
(g22
tp1908
Rp1909
(dp1910
g26
g622
sg9
g10
sg42
g633
sg49
g218
sg51
F0.0
sg52
F1000000000000000.0
sg53
F1000000000000000.0
sg54
g0
(g1
g2
(lp1911
I01
aI01
aI01
aI01
aI01
atp1912
Rp1913
(dp1914
g59
S'fit_mask_items'
p1915
sg61
g54
sbsg62
g644
sg69
g424
sg71
Fnan
sg72
g648
sg74
F-1000000000000000.0
sg75
F-1000000000000000.0
sg76
I00
sg77
I00
sbsg78
I01
sg79
g231
sg232
I00
sg81
I01
sg82
g503
sg84
g83
sg85
I00
sg86
I00
sg87
I01
sg88
V/lab/data/app3/2013/1305/130521/
p1916
sg90
g503
sg91
I00
sg92
I01
sg93
S'Mean                   =   2.250000\nStd. deviation         =   0.692219\nStd. error of the mean =   0.144338\nPk-Pk                  =   2.300000\n\nMean                   = 252.032200\nStd. deviation         =   0.593377\nStd. error of the mean =   0.123728\nPk-Pk                  =   2.211500\n\n'
p1917
sg236
g83
sg94
Fnan
sg95
g1204
sg97
VDIMPLELATTICE:knob1
p1918
sg99
g503
sg100
F1.0
sg101
g1108
sg103
Fnan
sg61
g1205
sg105
S'#\n# Column index\n#  0  SEQ:shot\n#  1  DIMPLELATTICE:knob1\n#  2  CPP:ax0c\n\n5506\t\t1.1000\t\t252.6693\t\t\n5507\t\t1.2000\t\t252.5146\t\t\n5508\t\t1.3000\t\t252.5164\t\t\n5509\t\t1.4000\t\t252.6325\t\t\n5510\t\t1.5000\t\t252.2985\t\t\n5511\t\t1.6000\t\t252.4636\t\t\n5512\t\t1.7000\t\t252.4527\t\t\n5513\t\t1.8000\t\t252.6261\t\t\n5514\t\t1.9000\t\t252.1883\t\t\n5515\t\t2.0000\t\t252.1719\t\t\n5516\t\t2.1000\t\t252.3987\t\t\n5517\t\t2.2000\t\t252.3816\t\t\n5518\t\t2.3000\t\t252.0552\t\t\n5519\t\t2.4000\t\t252.0954\t\t\n5520\t\t2.5000\t\t252.0692\t\t\n5521\t\t2.6000\t\t252.1465\t\t\n5522\t\t2.7000\t\t252.5808\t\t\n5523\t\t2.8000\t\t251.7261\t\t\n5524\t\t2.9000\t\t251.3359\t\t\n5525\t\t3.0000\t\t251.3718\t\t\n5526\t\t3.1000\t\t251.6177\t\t\n5527\t\t3.2000\t\t251.0975\t\t\n5528\t\t3.3000\t\t250.9047\t\t\n5529\t\t3.4000\t\t250.4578\t\t'
p1919
sg106
g1071
sg108
I00
sg109
V5506:5529
p1920
sg110
g1208
sg111
F10.0
sg112
I01
sg113
Fnan
sg114
g243
sg116
I00
sbag4
(g14
tp1921
Rp1922
(dp1923
g9
g10
sg18
g1108
sg20
Fnan
sg21
g4
(g22
tp1924
Rp1925
(dp1926
g26
g622
sg9
g10
sg42
g633
sg49
g218
sg51
F0.0
sg52
F1000000000000000.0
sg53
F1000000000000000.0
sg54
g0
(g1
g2
(lp1927
I01
aI01
aI01
aI01
aI01
atp1928
Rp1929
(dp1930
g59
S'fit_mask_items'
p1931
sg61
g54
sbsg62
g644
sg69
g424
sg71
Fnan
sg72
g648
sg74
F-1000000000000000.0
sg75
F-1000000000000000.0
sg76
I00
sg77
I00
sbsg78
I01
sg79
g231
sg232
I00
sg81
I01
sg82
g503
sg84
g83
sg85
I00
sg86
I00
sg87
I01
sg88
V/lab/data/app3/2013/1305/130521/
p1932
sg90
g503
sg91
I00
sg92
I01
sg93
S'Mean                   =   2.250000\nStd. deviation         =   0.692219\nStd. error of the mean =   0.144338\nPk-Pk                  =   2.300000\n\nMean                   = 211.275700\nStd. deviation         =   1.486511\nStd. error of the mean =   0.309959\nPk-Pk                  =   5.695200\n\n'
p1933
sg236
g83
sg94
Fnan
sg95
g1221
sg97
VDIMPLELATTICE:knob1
p1934
sg99
g503
sg100
F1.0
sg101
g1108
sg103
Fnan
sg61
g1222
sg105
S'#\n# Column index\n#  0  SEQ:shot\n#  1  DIMPLELATTICE:knob1\n#  2  CPP:ax1c\n\n5506\t\t1.1000\t\t209.7804\t\t\n5507\t\t1.2000\t\t209.7623\t\t\n5508\t\t1.3000\t\t209.9369\t\t\n5509\t\t1.4000\t\t210.0785\t\t\n5510\t\t1.5000\t\t209.6149\t\t\n5511\t\t1.6000\t\t209.7727\t\t\n5512\t\t1.7000\t\t210.6790\t\t\n5513\t\t1.8000\t\t210.3240\t\t\n5514\t\t1.9000\t\t210.6532\t\t\n5515\t\t2.0000\t\t210.3685\t\t\n5516\t\t2.1000\t\t210.5760\t\t\n5517\t\t2.2000\t\t210.7927\t\t\n5518\t\t2.3000\t\t211.0135\t\t\n5519\t\t2.4000\t\t210.9357\t\t\n5520\t\t2.5000\t\t210.8313\t\t\n5521\t\t2.6000\t\t212.0097\t\t\n5522\t\t2.7000\t\t211.6691\t\t\n5523\t\t2.8000\t\t211.2632\t\t\n5524\t\t2.9000\t\t211.3988\t\t\n5525\t\t3.0000\t\t213.5723\t\t\n5526\t\t3.1000\t\t213.0166\t\t\n5527\t\t3.2000\t\t213.2266\t\t\n5528\t\t3.3000\t\t214.0308\t\t\n5529\t\t3.4000\t\t215.3101\t\t'
p1935
sg106
g1071
sg108
I00
sg109
V5506:5529
p1936
sg110
g1225
sg111
F10.0
sg112
I01
sg113
Fnan
sg114
g243
sg116
I00
sbag4
(g14
tp1937
Rp1938
(dp1939
g9
g10
sg18
g1108
sg20
Fnan
sg21
g4
(g22
tp1940
Rp1941
(dp1942
g26
g622
sg9
g10
sg42
g633
sg49
g218
sg51
F0.0
sg52
F1000000000000000.0
sg53
F1000000000000000.0
sg54
g0
(g1
g2
(lp1943
I01
aI01
aI01
aI01
aI01
atp1944
Rp1945
(dp1946
g59
S'fit_mask_items'
p1947
sg61
g54
sbsg62
g644
sg69
g424
sg71
Fnan
sg72
g648
sg74
F-1000000000000000.0
sg75
F-1000000000000000.0
sg76
I00
sg77
I00
sbsg78
I01
sg79
g231
sg232
I00
sg81
I01
sg82
g503
sg84
g83
sg85
I00
sg86
I00
sg87
I01
sg88
g1916
sg90
g503
sg91
I00
sg92
I01
sg93
S'Mean                   =   2.250000\nStd. deviation         =   0.692219\nStd. error of the mean =   0.144338\nPk-Pk                  =   2.300000\n\nMean                   =  12.697872\nStd. deviation         =   0.362348\nStd. error of the mean =   0.075555\nPk-Pk                  =   1.413950\n\n'
p1948
sg236
g83
sg94
Fnan
sg95
VCPP:ax0w
p1949
sg97
g1918
sg99
g503
sg100
F1.0
sg101
g1108
sg103
Fnan
sg61
Vax0w
p1950
sg105
S'#\n# Column index\n#  0  SEQ:shot\n#  1  DIMPLELATTICE:knob1\n#  2  CPP:ax0w\n\n5506\t\t1.1000\t\t12.6177\t\t\n5507\t\t1.2000\t\t11.9859\t\t\n5508\t\t1.3000\t\t12.8900\t\t\n5509\t\t1.4000\t\t12.7663\t\t\n5510\t\t1.5000\t\t12.7896\t\t\n5511\t\t1.6000\t\t12.6170\t\t\n5512\t\t1.7000\t\t12.5426\t\t\n5513\t\t1.8000\t\t12.4430\t\t\n5514\t\t1.9000\t\t12.7247\t\t\n5515\t\t2.0000\t\t12.4853\t\t\n5516\t\t2.1000\t\t12.9546\t\t\n5517\t\t2.2000\t\t12.4143\t\t\n5518\t\t2.3000\t\t12.4879\t\t\n5519\t\t2.4000\t\t12.7202\t\t\n5520\t\t2.5000\t\t12.1362\t\t\n5521\t\t2.6000\t\t12.4337\t\t\n5522\t\t2.7000\t\t12.4622\t\t\n5523\t\t2.8000\t\t12.8680\t\t\n5524\t\t2.9000\t\t12.2066\t\t\n5525\t\t3.0000\t\t13.0416\t\t\n5526\t\t3.1000\t\t13.2001\t\t\n5527\t\t3.2000\t\t13.3081\t\t\n5528\t\t3.3000\t\t13.2536\t\t\n5529\t\t3.4000\t\t13.3999\t\t'
p1951
sg106
g1071
sg108
I00
sg109
V5506:5529
p1952
sg110
g1208
sg111
F10.0
sg112
I01
sg113
Fnan
sg114
g243
sg116
I00
sbag4
(g14
tp1953
Rp1954
(dp1955
g9
g10
sg18
g1108
sg20
Fnan
sg21
g4
(g22
tp1956
Rp1957
(dp1958
g26
g622
sg9
g10
sg42
g633
sg49
g218
sg51
F0.0
sg52
F1000000000000000.0
sg53
F1000000000000000.0
sg54
g0
(g1
g2
(lp1959
I01
aI01
aI01
aI01
aI01
atp1960
Rp1961
(dp1962
g59
S'fit_mask_items'
p1963
sg61
g54
sbsg62
g644
sg69
g424
sg71
Fnan
sg72
g648
sg74
F-1000000000000000.0
sg75
F-1000000000000000.0
sg76
I00
sg77
I00
sbsg78
I01
sg79
g231
sg232
I00
sg81
I01
sg82
g503
sg84
g83
sg85
I00
sg86
I00
sg87
I01
sg88
g1932
sg90
g503
sg91
I00
sg92
I01
sg93
S'Mean                   =   2.250000\nStd. deviation         =   0.692219\nStd. error of the mean =   0.144338\nPk-Pk                  =   2.300000\n\nMean                   =  13.067131\nStd. deviation         =   0.594873\nStd. error of the mean =   0.124040\nPk-Pk                  =   2.830110\n\n'
p1964
sg236
g83
sg94
Fnan
sg95
VCPP:ax1w
p1965
sg97
g1934
sg99
g503
sg100
F1.0
sg101
g1108
sg103
Fnan
sg61
Vax1w
p1966
sg105
S'#\n# Column index\n#  0  SEQ:shot\n#  1  DIMPLELATTICE:knob1\n#  2  CPP:ax1w\n\n5506\t\t1.1000\t\t12.3517\t\t\n5507\t\t1.2000\t\t11.8595\t\t\n5508\t\t1.3000\t\t12.8447\t\t\n5509\t\t1.4000\t\t12.4739\t\t\n5510\t\t1.5000\t\t12.9286\t\t\n5511\t\t1.6000\t\t12.7524\t\t\n5512\t\t1.7000\t\t12.9544\t\t\n5513\t\t1.8000\t\t12.6263\t\t\n5514\t\t1.9000\t\t12.9123\t\t\n5515\t\t2.0000\t\t13.0743\t\t\n5516\t\t2.1000\t\t12.7440\t\t\n5517\t\t2.2000\t\t12.7648\t\t\n5518\t\t2.3000\t\t12.9939\t\t\n5519\t\t2.4000\t\t13.1581\t\t\n5520\t\t2.5000\t\t12.8363\t\t\n5521\t\t2.6000\t\t12.9862\t\t\n5522\t\t2.7000\t\t13.4560\t\t\n5523\t\t2.8000\t\t13.9909\t\t\n5524\t\t2.9000\t\t14.6896\t\t\n5525\t\t3.0000\t\t13.2442\t\t\n5526\t\t3.1000\t\t13.8683\t\t\n5527\t\t3.2000\t\t13.7831\t\t\n5528\t\t3.3000\t\t13.7347\t\t\n5529\t\t3.4000\t\t12.5830\t\t'
p1967
sg106
g1071
sg108
I00
sg109
V5506:5529
p1968
sg110
g1225
sg111
F10.0
sg112
I01
sg113
Fnan
sg114
g243
sg116
I00
sbatp1969
Rp1970
(dp1971
g59
S'datasets_items'
p1972
sg61
g12
sbsg81
I00
sg82
VvaryGR@7Er_May21
p1973
sg121
I3
sg122
g1874
sg123
g0
(g1
g2
(lp1974
I1
aI2
aI3
aI4
aI5
aI6
atp1975
Rp1976
(dp1977
g59
S'grids_items'
p1978
sg61
g123
sbsg129
I2
sg61
VvaryGR@7Er_May21
p1979
sbag4
(g5
tp1980
Rp1981
(dp1982
g9
g10
sg11
I5
sg12
g0
(g1
g2
(lp1983
g4
(g14
tp1984
Rp1985
(dp1986
g9
g10
sg18
g392
sg20
Fnan
sg21
g4
(g22
tp1987
Rp1988
(dp1989
g26
g27
(g28
(I0
tp1990
g30
tp1991
Rp1992
(I1
(I5
I1
tp1993
g402
I00
S'\xe4\xba\xe6X\x95\xe9:A\xed5F\xd0N\x1aQ\xc0\x03\x0b\xda\xb4\xfao\x1d@]w\xfe/\\e\x9e@\xfd\xbf^\x19Z\x19\x1f@'
p1994
tp1995
bsg9
g10
sg42
g27
(g28
(I0
tp1996
g30
tp1997
Rp1998
(I1
(I5
I1
tp1999
g402
I00
S"\x16\x86\x1e\xc4\\N\x12A\x1cH4\xac\xc7$\xe1?\x90\xe3a'\x11\x07\xf6?\xd1\x1a\x11;\x999\xb0@!\x82\xb679\x07\xe6?"
p2000
tp2001
bsg49
g218
sg51
Fnan
sg52
F1000000000000000.0
sg53
F1000000000000000.0
sg54
g0
(g1
g2
(lp2002
I01
aI01
aI01
aI01
aI01
atp2003
Rp2004
(dp2005
g59
S'fit_mask_items'
p2006
sg61
g54
sbsg62
g27
(g28
(I0
tp2007
g30
tp2008
Rp2009
(I1
(I5
I1
tp2010
g207
I00
S'\x00\x00\x00\x00\xc0\\%A\x00\x00\x00\x00\x00\x80Q\xc0\x9a\x99\x99\x99\x99\x99\x17@\x00\x00\x00\x00\x00\x00\x00\x00\x00\x00\x00\x00\x00\x00\x08@'
p2011
tp2012
bsg69
S' a[0]*( 1 / ( pi * a[2] * ( 1 + (( x - a[1] ) / a[2])**2 ) ) ) + a[3] + a[0]*( 1 / ( pi * a[2] * ( 1 + (( x - a[4] ) / a[2])**2 ) ) )'
p2013
sg71
Fnan
sg72
S'DoubleLorentzian'
p2014
sg74
F-1000000000000000.0
sg75
F-1000000000000000.0
sg76
I01
sg77
I01
sbsg78
I01
sg79
g231
sg232
I00
sg81
I00
sg82
g503
sg84
g83
sg85
I00
sg86
I00
sg87
I00
sg88
V/lab/data/app3/2013/1305/130521/
p2015
sg90
g83
sg91
I00
sg92
I01
sg93
S'Mean                   = -31.000000\nStd. deviation         =  30.243457\nStd. error of the mean =   8.082904\nPk-Pk                  =  98.000000\n\nMean                   = 29585.337333\nStd. deviation         = 22753.843417\nStd. error of the mean = 6081.220450\nPk-Pk                  = 65288.596000\n\n'
p2016
sg236
g83
sg94
Fnan
sg95
g466
sg97
VDIMPLELATTICE:imgdet
p2017
sg99
g83
sg100
F1.0
sg101
g392
sg103
Fnan
sg61
Vresonances
p2018
sg105
S'#\n# Column index\n#  0  SEQ:shot\n#  1  DIMPLELATTICE:imgdet\n#  2  CPP:nfit\n\n5230\t\t-80.0000\t\t28056.2100\t\t\n5231\t\t-73.0000\t\t55828.6900\t\t\n5232\t\t-66.0000\t\t72033.1900\t\t\n5233\t\t-59.0000\t\t31055.8100\t\t\n5234\t\t-52.0000\t\t13487.0500\t\t\n5235\t\t-45.0000\t\t8600.9800\t\t\n5236\t\t-38.0000\t\t6867.5060\t\t\n5237\t\t-31.0000\t\t6744.5940\t\t\n5238\t\t-24.0000\t\t8280.8600\t\t\n5239\t\t-17.0000\t\t10061.5800\t\t\n5240\t\t-10.0000\t\t18459.8600\t\t\n5241\t\t-3.0000\t\t32499.3400\t\t\n5242\t\t4.0000\t\t59771.3700\t\t\n5243\t\t11.0000\t\t69630.4900\t\t\n5244\t\t18.0000\t\t22402.5300\t\t'
p2019
sg106
g241
sg108
I00
sg109
V5230:5244
p2020
sg110
g83
sg111
F10.0
sg112
I01
sg113
Fnan
sg114
g243
sg116
I00
sbag4
(g14
tp2021
Rp2022
(dp2023
g9
g10
sg18
g392
sg20
Fnan
sg21
g4
(g22
tp2024
Rp2025
(dp2026
g26
g1992
sg9
g10
sg42
g1998
sg49
g218
sg51
Fnan
sg52
F1000000000000000.0
sg53
F1000000000000000.0
sg54
g0
(g1
g2
(lp2027
I01
aI01
aI01
aI01
aI01
atp2028
Rp2029
(dp2030
g59
S'fit_mask_items'
p2031
sg61
g54
sbsg62
g2009
sg69
g2013
sg71
Fnan
sg72
g2014
sg74
F-1000000000000000.0
sg75
F-1000000000000000.0
sg76
I00
sg77
I00
sbsg78
I01
sg79
g231
sg232
I00
sg81
I00
sg82
g503
sg84
g83
sg85
I00
sg86
I00
sg87
I00
sg88
g2015
sg90
g83
sg91
I00
sg92
I01
sg93
S'Mean                   = 1191.681818\nStd. deviation         =   9.295093\nStd. error of the mean =   2.028356\nPk-Pk                  =  32.000000\n\nMean                   = 48905.793636\nStd. deviation         = 7100.002735\nStd. error of the mean = 1549.347618\nPk-Pk                  = 28521.250000\n\n'
p2032
sg236
g83
sg94
Fnan
sg95
g466
sg97
VBRAGGPOS:Xfiberhalf
p2033
sg99
g83
sg100
F1.0
sg101
g392
sg103
Fnan
sg61
Vhhh_Xwig
p2034
sg105
S'#\n# Column index\n#  0  SEQ:shot\n#  1  BRAGGPOS:Xfiberhalf\n#  2  CPP:nfit\n\n5256\t\t1185.0000\t\t39639.5100\t\t\n5257\t\t1185.0000\t\t36431.8100\t\t\n5258\t\t1185.0000\t\t41693.9200\t\t\n5259\t\t1175.0000\t\t64953.0600\t\t\n5260\t\t1175.0000\t\t57418.2000\t\t\n5261\t\t1175.0000\t\t61845.5700\t\t\n5262\t\t1195.0000\t\t46208.3100\t\t\n5263\t\t1195.0000\t\t50588.2700\t\t\n5264\t\t1195.0000\t\t49337.5300\t\t\n5265\t\t1187.0000\t\t51080.1900\t\t\n5266\t\t1187.0000\t\t44982.6400\t\t\n5267\t\t1187.0000\t\t48245.8400\t\t\n5268\t\t1197.0000\t\t47824.6100\t\t\n5269\t\t1197.0000\t\t37451.4100\t\t\n5270\t\t1197.0000\t\t48363.3100\t\t\n5271\t\t1197.0000\t\t42235.4200\t\t\n5272\t\t1207.0000\t\t54225.6900\t\t\n5273\t\t1207.0000\t\t51972.6100\t\t\n5274\t\t1207.0000\t\t56729.2200\t\t\n5275\t\t1194.0000\t\t50790.6300\t\t\n5276\t\t1194.0000\t\t47106.4800\t\t\n5277\t\t1194.0000\t\t46803.2300\t\t'
p2035
sg106
g241
sg108
I00
sg109
V5256:5277
p2036
sg110
g83
sg111
F10.0
sg112
I01
sg113
Fnan
sg114
g243
sg116
I00
sbag4
(g14
tp2037
Rp2038
(dp2039
g9
g10
sg18
g392
sg20
Fnan
sg21
g4
(g22
tp2040
Rp2041
(dp2042
g26
g1992
sg9
g10
sg42
g1998
sg49
g218
sg51
Fnan
sg52
F1000000000000000.0
sg53
F1000000000000000.0
sg54
g0
(g1
g2
(lp2043
I01
aI01
aI01
aI01
aI01
atp2044
Rp2045
(dp2046
g59
S'fit_mask_items'
p2047
sg61
g54
sbsg62
g2009
sg69
g2013
sg71
Fnan
sg72
g2014
sg74
F-1000000000000000.0
sg75
F-1000000000000000.0
sg76
I00
sg77
I00
sbsg78
I01
sg79
g231
sg232
I00
sg81
I00
sg82
g503
sg84
g83
sg85
I00
sg86
I00
sg87
I00
sg88
g2015
sg90
g83
sg91
I00
sg92
I01
sg93
S'Mean                   = 1377.473684\nStd. deviation         =  13.236188\nStd. error of the mean =   3.119799\nPk-Pk                  =  41.000000\n\nMean                   = 37103.013684\nStd. deviation         = 6570.793674\nStd. error of the mean = 1548.750921\nPk-Pk                  = 27513.170000\n\n'
p2048
sg236
g83
sg94
Fnan
sg95
g466
sg97
VBRAGGPOS:Yfiberhalf
p2049
sg99
g83
sg100
F1.0
sg101
g392
sg103
Fnan
sg61
Vhhh_Ywig
p2050
sg105
S'#\n# Column index\n#  0  SEQ:shot\n#  1  BRAGGPOS:Yfiberhalf\n#  2  CPP:nfit\n\n5275\t\t1355.0000\t\t50790.6300\t\t\n5276\t\t1355.0000\t\t47106.4800\t\t\n5277\t\t1355.0000\t\t46803.2300\t\t\n5278\t\t1366.0000\t\t42115.8300\t\t\n5279\t\t1366.0000\t\t36763.5000\t\t\n5280\t\t1366.0000\t\t39421.7100\t\t\n5281\t\t1376.0000\t\t30956.5300\t\t\n5282\t\t1376.0000\t\t34685.9900\t\t\n5283\t\t1376.0000\t\t35793.6800\t\t\n5284\t\t1386.0000\t\t28484.1900\t\t\n5285\t\t1386.0000\t\t23277.4600\t\t\n5286\t\t1386.0000\t\t33877.7800\t\t\n5287\t\t1386.0000\t\t34866.9400\t\t\n5288\t\t1396.0000\t\t39035.9400\t\t\n5289\t\t1396.0000\t\t30735.4900\t\t\n5290\t\t1396.0000\t\t41456.6800\t\t\n5291\t\t1383.0000\t\t38203.9100\t\t\n5292\t\t1383.0000\t\t37637.1100\t\t\n5293\t\t1383.0000\t\t32944.1800\t\t'
p2051
sg106
g241
sg108
I00
sg109
V5275:5293
p2052
sg110
g83
sg111
F10.0
sg112
I01
sg113
Fnan
sg114
g243
sg116
I00
sbag4
(g14
tp2053
Rp2054
(dp2055
g9
g10
sg18
g392
sg20
Fnan
sg21
g4
(g22
tp2056
Rp2057
(dp2058
g26
g27
(g28
(I0
tp2059
g30
tp2060
Rp2061
(I1
(I5
I1
tp2062
g402
I00
S'\xd8\xbf\xae\xfd\t8e@\x10\x0b\xd7~\x7f\xb6p@CT\x1bO\xca\xdb\xed@\x00\x00\x00\x00\x00\x00\x00\x00\x00\x00\x00\x00\x00\x00\x08@'
p2063
tp2064
bsg9
g10
sg42
g27
(g28
(I0
tp2065
g30
tp2066
Rp2067
(I1
(I5
I1
tp2068
g402
I00
S'\x96 \xab\x9cheK@\xa5\xce\xa86\xa9\xad\xf7?\xdb\xec\xbd\xae\x1ao\xac@\x00\x00\x00\x00\x00\x00\x00\x00\x00\x00\x00\x00\x00\x00\x00\x00'
p2069
tp2070
bsg49
g218
sg51
Fnan
sg52
F1000000000000000.0
sg53
F1000000000000000.0
sg54
g0
(g1
g2
(lp2071
I01
aI01
aI01
aI01
aI01
atp2072
Rp2073
(dp2074
g59
S'fit_mask_items'
p2075
sg61
g54
sbsg62
g27
(g28
(I0
tp2076
g30
tp2077
Rp2078
(I1
(I5
I1
tp2079
g207
I00
S'\x00\x00\x00\x00\x00p\x97@\x00\x00\x00\x00\x00\x90p@\x9a\x99\x99\x99\x99\x99\x17@\x00\x00\x00\x00\x00\x00\x00\x00\x00\x00\x00\x00\x00\x00\x08@'
p2080
tp2081
bsg69
g424
sg71
Fnan
sg72
S'Parabola'
p2082
sg74
F-1000000000000000.0
sg75
F-1000000000000000.0
sg76
I01
sg77
I01
sbsg78
I01
sg79
g231
sg232
I00
sg81
I00
sg82
g503
sg84
g83
sg85
I00
sg86
I00
sg87
I00
sg88
V/lab/data/app3/2013/1305/130521/
p2083
sg90
g83
sg91
I00
sg92
I01
sg93
S'Mean                   = 265.500000\nStd. deviation         =   7.123903\nStd. error of the mean =   2.692582\nPk-Pk                  =  20.000000\n\nMean                   = 70348.335000\nStd. deviation         = 10914.556840\nStd. error of the mean = 4125.314724\nPk-Pk                  = 30215.850000\n\n'
p2084
sg236
g83
sg94
Fnan
sg95
g466
sg97
VBRAGGPOS:Xfiberone
p2085
sg99
g83
sg100
F1.0
sg101
g392
sg103
Fnan
sg61
V100_Xwig
p2086
sg105
S'#\n# Column index\n#  0  SEQ:shot\n#  1  BRAGGPOS:Xfiberone\n#  2  CPP:nfit\n\n5304\t\t275.0000\t\t67978.1200\t\t\n5305\t\t275.0000\t\t72629.4500\t\t\n5306\t\t265.0000\t\t57713.1500\t\t\n5307\t\t265.0000\t\t57675.8800\t\t\n5308\t\t255.0000\t\t86823.6800\t\t\n5309\t\t255.0000\t\t87891.7300\t\t\n5310\t\t267.0000\t\t64366.5800\t\t\n5311\t\t267.0000\t\t67708.0900\t\t'
p2087
sg106
g241
sg108
I00
sg109
V5304:5311
p2088
sg110
g83
sg111
F10.0
sg112
I01
sg113
Fnan
sg114
g243
sg116
I00
sbag4
(g14
tp2089
Rp2090
(dp2091
g9
g10
sg18
g392
sg20
Fnan
sg21
g4
(g22
tp2092
Rp2093
(dp2094
g26
g27
(g28
(I0
tp2095
g30
tp2096
Rp2097
(I1
(I5
I1
tp2098
g402
I00
S'tV\xb3"\x9f\xbdh@w\xdf\x866\x02\xc2l@\xee\xfe\xbf\x9cT\xe6\xe1@\x00\x00\x00\x00\x00\x00\x00\x00\x00\x00\x00\x00\x00\x00\x08@'
p2099
tp2100
bsg9
g10
sg42
g27
(g28
(I0
tp2101
g30
tp2102
Rp2103
(I1
(I5
I1
tp2104
g402
I00
S'\x1e\xdc\x9dY\xf59J@l\xf9\x11\xa5\xa5\x18\xf0?\xed1\xe3\xf1 /\xae@\x00\x00\x00\x00\x00\x00\x00\x00\x00\x00\x00\x00\x00\x00\x00\x00'
p2105
tp2106
bsg49
g218
sg51
Fnan
sg52
F1000000000000000.0
sg53
F1000000000000000.0
sg54
g0
(g1
g2
(lp2107
I01
aI01
aI01
aI01
aI01
atp2108
Rp2109
(dp2110
g59
S'fit_mask_items'
p2111
sg61
g54
sbsg62
g2078
sg69
g424
sg71
Fnan
sg72
g2082
sg74
F-1000000000000000.0
sg75
F-1000000000000000.0
sg76
I01
sg77
I01
sbsg78
I01
sg79
g231
sg232
I00
sg81
I00
sg82
g503
sg84
g83
sg85
I00
sg86
I00
sg87
I00
sg88
g2083
sg90
g83
sg91
I00
sg92
I01
sg93
S'Mean                   = 227.000000\nStd. deviation         =   7.874008\nStd. error of the mean =   2.976095\nPk-Pk                  =  20.000000\n\nMean                   = 50862.923750\nStd. deviation         = 12798.140510\nStd. error of the mean = 4837.242433\nPk-Pk                  = 35929.670000\n\n'
p2112
sg236
g83
sg94
Fnan
sg95
g466
sg97
VBRAGGPOS:Yfiberone
p2113
sg99
g83
sg100
F1.0
sg101
g392
sg103
Fnan
sg61
V100_Ywig
p2114
sg105
S'#\n# Column index\n#  0  SEQ:shot\n#  1  BRAGGPOS:Yfiberone\n#  2  CPP:nfit\n\n5310\t\t218.0000\t\t64366.5800\t\t\n5311\t\t218.0000\t\t67708.0900\t\t\n5312\t\t218.0000\t\t64765.7700\t\t\n5313\t\t228.0000\t\t39166.6600\t\t\n5314\t\t228.0000\t\t31778.4200\t\t\n5315\t\t238.0000\t\t53475.8100\t\t\n5316\t\t238.0000\t\t45443.0100\t\t\n5317\t\t230.0000\t\t40199.0500\t\t'
p2115
sg106
g241
sg108
I00
sg109
V5310:5318
p2116
sg110
g83
sg111
F10.0
sg112
I01
sg113
Fnan
sg114
g243
sg116
I00
sbag4
(g14
tp2117
Rp2118
(dp2119
g9
g10
sg18
g392
sg20
Fnan
sg21
g4
(g22
tp2120
Rp2121
(dp2122
g26
g27
(g28
(I0
tp2123
g30
tp2124
Rp2125
(I1
(I5
I1
tp2126
g402
I00
S',\xfdf\xd3\xd4\xa28@\x83\xf4!O\xe5\xe3Z@n%y\xa2\x80\xb0\xd8@\x00\x00\x00\x00\x00\x00\x00\x00\x00\x00\x00\x00\x00\x00\x08@'
p2127
tp2128
bsg9
g10
sg42
g27
(g28
(I0
tp2129
g30
tp2130
Rp2131
(I1
(I5
I1
tp2132
g402
I00
S'\xd8\xfbV\xc4\x02\xb1H@\xf8\x99\xe7\xc3\x08yk@\x85E\x89\x12\r{\xef@\x00\x00\x00\x00\x00\x00\x00\x00\x00\x00\x00\x00\x00\x00\x00\x00'
p2133
tp2134
bsg49
g218
sg51
Fnan
sg52
F1000000000000000.0
sg53
F1000000000000000.0
sg54
g0
(g1
g2
(lp2135
I01
aI01
aI01
aI01
aI01
atp2136
Rp2137
(dp2138
g59
S'fit_mask_items'
p2139
sg61
g54
sbsg62
g2078
sg69
g424
sg71
Fnan
sg72
g2082
sg74
F-1000000000000000.0
sg75
F-1000000000000000.0
sg76
I00
sg77
I00
sbsg78
I01
sg79
g231
sg232
I00
sg81
I01
sg82
g503
sg84
g83
sg85
I00
sg86
I00
sg87
I00
sg88
g2083
sg90
g83
sg91
I00
sg92
I01
sg93
S'Mean                   =  85.000000\nStd. deviation         =  10.000000\nStd. error of the mean =   3.333333\nPk-Pk                  =  30.000000\n\nMean                   = 34555.740000\nStd. deviation         = 3344.024099\nStd. error of the mean = 1114.674700\nPk-Pk                  = 11450.600000\n\n'
p2140
sg236
g83
sg94
Fnan
sg95
g466
sg97
VBRAGGPOS:braggwpone
p2141
sg99
g83
sg100
F1.0
sg101
g392
sg103
Fnan
sg61
V100_WP
p2142
sg105
S'#\n# Column index\n#  0  SEQ:shot\n#  1  BRAGGPOS:braggwpone\n#  2  CPP:nfit\n\n5320\t\t70.0000\t\t36538.1700\t\t\n5321\t\t70.0000\t\t40727.3900\t\t\n5322\t\t80.0000\t\t36024.5000\t\t\n5323\t\t80.0000\t\t29276.7900\t\t\n5324\t\t90.0000\t\t31388.4700\t\t\n5325\t\t90.0000\t\t35809.8800\t\t\n5326\t\t100.0000\t\t35275.9800\t\t\n5327\t\t100.0000\t\t33979.6100\t\t\n5328\t\t85.0000\t\t36733.2000\t\t\n5329\t\t85.0000\t\t29803.4100\t\t'
p2143
sg106
g241
sg108
I00
sg109
V5320:5329
p2144
sg110
g83
sg111
F10.0
sg112
I01
sg113
Fnan
sg114
g243
sg116
I00
sbatp2145
Rp2146
(dp2147
g59
S'datasets_items'
p2148
sg61
g12
sbsg81
I00
sg82
VBraggBeam
p2149
sg121
I1
sg122
g2118
sg123
g0
(g1
g2
(lp2150
I1
aI2
aI3
aI4
aI5
aI6
atp2151
Rp2152
(dp2153
g59
S'grids_items'
p2154
sg61
g123
sbsg129
I1
sg61
VBraggBeam
p2155
sbag4
(g5
tp2156
Rp2157
(dp2158
g9
g10
sg11
I1
sg12
g0
(g1
g2
(lp2159
g4
(g14
tp2160
Rp2161
(dp2162
g9
g10
sg18
Vblack
p2163
sg20
F0.5
sg21
g4
(g22
tp2164
Rp2165
(dp2166
g26
g27
(g28
(I0
tp2167
g30
tp2168
Rp2169
(I1
(I5
I1
tp2170
g34
(S'f8'
p2171
I0
I1
tp2172
Rp2173
(I3
S'<'
p2174
NNNI-1
I-1
I0
tp2175
bI00
S'\xa5\xb8\x18Y\xb2\x19\xcbAL\xc96\xf4B+sA\x9b\xc8\xe7\\\xbe\x86x@\xdb1dg\xdc\x17\xf5\xc0\xc0\xf7\x859\xb0\xe4\t\xc1'
p2176
tp2177
bsg9
g10
sg42
g27
(g28
(I0
tp2178
g30
tp2179
Rp2180
(I1
(I5
I1
tp2181
g2173
I00
S'}"\xbf4\x9cy\xd4A\xca\x1f\xa0\xa4\xb1X\xa1A}\xf14\xc6u\xfd\x8e@3\xcbP\xdawv\x07A\xd2\x17\xc8y\xd8\xc2GA'
p2182
tp2183
bsg49
S'A0   |   Afit   |   Aerr   |   Fit Mask'
p2184
sg51
Fnan
sg52
F1000000000000000.0
sg53
F1000000000000000.0
sg54
g0
(g1
g2
(lp2185
I01
aI01
aI01
aI01
aI01
atp2186
Rp2187
(dp2188
g59
S'fit_mask_items'
p2189
sg61
g54
sbsg62
g27
(g28
(I0
tp2190
g30
tp2191
Rp2192
(I1
(I5
I1
tp2193
g34
(S'f8'
p2194
I0
I1
tp2195
Rp2196
(I3
S'<'
p2197
NNNI-1
I-1
I0
tp2198
bI00
S'\x00\x00\x00\x00\xc0\\%A\x00\x00\x00\x00\x00\x80Q\xc0\x9a\x99\x99\x99\x99\x99\x17@\x00\x00\x00\x00\x00\x00\x00\x00\x00\x00\x00\x00\x00\x00\x08@'
p2199
tp2200
bsg69
g2013
sg71
Fnan
sg72
S'DoubleLorentzian'
p2201
sg74
F-1000000000000000.0
sg75
F-1000000000000000.0
sg76
I00
sg77
I00
sbsg78
I01
sg79
S'Description:'
p2202
sg232
I00
sg81
I01
sg82
g503
sg84
g83
sg85
I00
sg86
I00
sg87
I00
sg88
V/lab/data/app3/2013/1305/130521/
p2203
sg90
g83
sg91
I00
sg92
I01
sg93
S'Mean                   = 5686.000000\nStd. deviation         =   3.162278\nStd. error of the mean =   1.000000\nPk-Pk                  =  10.000000\n\nMean                   =   0.259962\nStd. deviation         =   0.030390\nStd. error of the mean =   0.009610\nPk-Pk                  =   0.102379\n\n'
p2204
sg236
g83
sg94
Fnan
sg95
VHHH:andor2norm
p2205
sg97
VSEQ:shot
p2206
sg99
g83
sg100
F1.0
sg101
g2163
sg103
F0.0
sg61
VDivide
p2207
sg105
S'#\n# Column index\n#  0  SEQ:shot\n#  1  SEQ:shot\n#  2  HHH:andor2norm\n\n5681\t\t5681.0000\t\t0.2259\t\t\n5682\t\t5682.0000\t\t0.2748\t\t\n5683\t\t5683.0000\t\t0.1977\t\t\n5684\t\t5684.0000\t\t0.3001\t\t\n5685\t\t5685.0000\t\t0.2985\t\t\n5686\t\t5686.0000\t\t0.2494\t\t\n5687\t\t5687.0000\t\t0.2708\t\t\n5688\t\t5688.0000\t\t0.2923\t\t\n5689\t\t5689.0000\t\t0.2469\t\t\n5690\t\t5690.0000\t\t0.2410\t\t\n5691\t\t5691.0000\t\t0.2621\t\t'
p2208
sg106
S'o'
p2209
sg108
I01
sg109
V5681:5691
p2210
sg110
g83
sg111
F10.0
sg112
I01
sg113
Fnan
sg114
S'Title:'
p2211
sg116
I00
sbag4
(g14
tp2212
Rp2213
(dp2214
g9
g10
sg18
Vblue
p2215
sg20
Fnan
sg21
g4
(g22
tp2216
Rp2217
(dp2218
g26
g2169
sg9
g10
sg42
g2180
sg49
g2184
sg51
Fnan
sg52
F1000000000000000.0
sg53
F1000000000000000.0
sg54
g0
(g1
g2
(lp2219
I01
aI01
aI01
aI01
aI01
atp2220
Rp2221
(dp2222
g59
S'fit_mask_items'
p2223
sg61
g54
sbsg62
g2192
sg69
g2013
sg71
Fnan
sg72
g2201
sg74
F-1000000000000000.0
sg75
F-1000000000000000.0
sg76
I00
sg77
I00
sbsg78
I01
sg79
g2202
sg232
I00
sg81
I01
sg82
g503
sg84
g83
sg85
I00
sg86
I00
sg87
I00
sg88
V/lab/data/app3/2013/1305/130521/
p2224
sg90
g83
sg91
I00
sg92
I01
sg93
S'Mean                   = 5686.000000\nStd. deviation         =   3.162278\nStd. error of the mean =   1.000000\nPk-Pk                  =  10.000000\n\nMean                   = 9161.010813\nStd. deviation         = 2272.174519\nStd. error of the mean = 718.524672\nPk-Pk                  = 7678.733333\n\n'
p2225
sg236
g83
sg94
Fnan
sg95
VANDOR2:sum_net_24
p2226
sg97
g2206
sg99
g83
sg100
F1.0
sg101
g2215
sg103
Fnan
sg61
VAndor2
p2227
sg105
S'#\n# Column index\n#  0  SEQ:shot\n#  1  SEQ:shot\n#  2  ANDOR2:sum_net_24\n\n5681\t\t5681.0000\t\t7622.7333\t\t\n5682\t\t5682.0000\t\t9607.3333\t\t\n5683\t\t5683.0000\t\t4806.6667\t\t\n5684\t\t5684.0000\t\t12485.4000\t\t\n5685\t\t5685.0000\t\t11852.0667\t\t\n5686\t\t5686.0000\t\t8529.6000\t\t\n5687\t\t5687.0000\t\t10283.3333\t\t\n5688\t\t5688.0000\t\t9996.8667\t\t\n5689\t\t5689.0000\t\t5605.8000\t\t\n5690\t\t5690.0000\t\t10537.6000\t\t\n5691\t\t5691.0000\t\t9443.7189\t\t'
p2228
sg106
g2209
sg108
I00
sg109
V5681:5691
p2229
sg110
g83
sg111
F10.0
sg112
I01
sg113
Fnan
sg114
g2211
sg116
I00
sbag4
(g14
tp2230
Rp2231
(dp2232
g9
g10
sg18
Vred
p2233
sg20
Fnan
sg21
g4
(g22
tp2234
Rp2235
(dp2236
g26
g2169
sg9
g10
sg42
g2180
sg49
g2184
sg51
Fnan
sg52
F1000000000000000.0
sg53
F1000000000000000.0
sg54
g0
(g1
g2
(lp2237
I01
aI01
aI01
aI01
aI01
atp2238
Rp2239
(dp2240
g59
S'fit_mask_items'
p2241
sg61
g54
sbsg62
g2192
sg69
g2013
sg71
Fnan
sg72
g2201
sg74
F-1000000000000000.0
sg75
F-1000000000000000.0
sg76
I00
sg77
I00
sbsg78
I01
sg79
g2202
sg232
I00
sg81
I01
sg82
g503
sg84
g83
sg85
I00
sg86
I00
sg87
I00
sg88
g2224
sg90
g83
sg91
I00
sg92
I01
sg93
S'Mean                   = 5686.000000\nStd. deviation         =   3.162278\nStd. error of the mean =   1.000000\nPk-Pk                  =  10.000000\n\nMean                   = 34135.946958\nStd. deviation         = 4224.608456\nStd. error of the mean = 1335.938494\nPk-Pk                  = 14404.000000\n\n'
p2242
sg236
g83
sg94
Fnan
sg95
VANDOR1:sum_net_24 
p2243
sg97
g2206
sg99
g83
sg100
F1.0
sg101
g2233
sg103
Fnan
sg61
VANDOR1
p2244
sg105
S'#\n# Column index\n#  0  SEQ:shot\n#  1  SEQ:shot\n#  2  ANDOR1:sum_net_24 \n\n5681\t\t5681.0000\t\t33864.6667\t\t\n5682\t\t5682.0000\t\t30650.6000\t\t\n5683\t\t5683.0000\t\t28171.8000\t\t\n5684\t\t5684.0000\t\t38798.8667\t\t\n5685\t\t5685.0000\t\t35753.3333\t\t\n5686\t\t5686.0000\t\t37384.0000\t\t\n5687\t\t5687.0000\t\t34718.8000\t\t\n5688\t\t5688.0000\t\t36526.2000\t\t\n5689\t\t5689.0000\t\t25550.3333\t\t\n5690\t\t5690.0000\t\t39954.3333\t\t\n5691\t\t5691.0000\t\t34122.4832\t\t'
p2245
sg106
g2209
sg108
I00
sg109
V5681:5691
p2246
sg110
g83
sg111
F10.0
sg112
I01
sg113
Fnan
sg114
g2211
sg116
I00
sbatp2247
Rp2248
(dp2249
g59
S'datasets_items'
p2250
sg61
g12
sbsg81
I00
sg82
VBraggData_Gr3p1_LOCK_40Er_0p7ms_200a0
p2251
sg121
I3
sg122
g2213
sg123
g0
(g1
g2
(lp2252
I1
aI2
aI3
aI4
aI5
aI6
atp2253
Rp2254
(dp2255
g59
S'grids_items'
p2256
sg61
g123
sbsg129
I1
sg61
VBraggData_Gr3p1_LOCK_40Er_0p7ms_200a0
p2257
sbag4
(g5
tp2258
Rp2259
(dp2260
g9
g10
sg11
I2
sg12
g0
(g1
g2
(lp2261
g4
(g14
tp2262
Rp2263
(dp2264
g9
g10
sg18
g2163
sg20
F1.0
sg21
g4
(g22
tp2265
Rp2266
(dp2267
g26
g2169
sg9
g10
sg42
g2180
sg49
g2184
sg51
Fnan
sg52
F1000000000000000.0
sg53
F1000000000000000.0
sg54
g0
(g1
g2
(lp2268
I01
aI01
aI01
aI01
aI01
atp2269
Rp2270
(dp2271
g59
S'fit_mask_items'
p2272
sg61
g54
sbsg62
g2192
sg69
g2013
sg71
Fnan
sg72
g2201
sg74
F-1000000000000000.0
sg75
F-1000000000000000.0
sg76
I00
sg77
I00
sbsg78
I01
sg79
g2202
sg232
I00
sg81
I01
sg82
g503
sg84
g83
sg85
I00
sg86
I00
sg87
I00
sg88
V/lab/data/app3/2013/1305/130525/
p2273
sg90
g83
sg91
I00
sg92
I01
sg93
S'Mean                   = 7241.000000\nStd. deviation         =   5.744563\nStd. error of the mean =   1.914854\nPk-Pk                  =  18.000000\n\nMean                   =   0.452037\nStd. deviation         =   0.236460\nStd. error of the mean =   0.078820\nPk-Pk                  =   0.761843\n\n'
p2274
sg236
g83
sg94
Fnan
sg95
VHHH:andor2norm
p2275
sg97
g2206
sg99
g83
sg100
F1.0
sg101
g2163
sg103
F0.0
sg61
g2207
sg105
S'#\n# Column index\n#  0  SEQ:shot\n#  1  SEQ:shot\n#  2  HHH:andor2norm\n\n7232\t\t7232.0000\t\t0.4950\t\t\n7234\t\t7234.0000\t\t0.1431\t\t\n7236\t\t7236.0000\t\t0.6332\t\t\n7238\t\t7238.0000\t\t0.2992\t\t\n7240\t\t7240.0000\t\t0.7520\t\t\n7242\t\t7242.0000\t\t0.9049\t\t\n7244\t\t7244.0000\t\t0.4258\t\t\n7246\t\t7246.0000\t\t0.1520\t\t\n7248\t\t7248.0000\t\t0.3896\t\t\n7250\t\t7250.0000\t\t0.3255\t\t'
p2276
sg106
g2209
sg108
I01
sg109
Vnumpy.arange(7232;7252;2)
p2277
sg110
g83
sg111
F10.0
sg112
I01
sg113
Fnan
sg114
g2211
sg116
I00
sbag4
(g14
tp2278
Rp2279
(dp2280
g9
g10
sg18
g2215
sg20
F30000.0
sg21
g4
(g22
tp2281
Rp2282
(dp2283
g26
g2169
sg9
g10
sg42
g2180
sg49
g2184
sg51
Fnan
sg52
F1000000000000000.0
sg53
F1000000000000000.0
sg54
g0
(g1
g2
(lp2284
I01
aI01
aI01
aI01
aI01
atp2285
Rp2286
(dp2287
g59
S'fit_mask_items'
p2288
sg61
g54
sbsg62
g2192
sg69
g2013
sg71
Fnan
sg72
g2201
sg74
F-1000000000000000.0
sg75
F-1000000000000000.0
sg76
I00
sg77
I00
sbsg78
I01
sg79
g2202
sg232
I00
sg81
I01
sg82
g503
sg84
g83
sg85
I00
sg86
I00
sg87
I00
sg88
V/lab/data/app3/2013/1305/130525/
p2289
sg90
g83
sg91
I00
sg92
I01
sg93
S'Mean                   = 7241.000000\nStd. deviation         =   5.744563\nStd. error of the mean =   1.914854\nPk-Pk                  =  18.000000\n\nMean                   = 10677.255535\nStd. deviation         = 6110.754052\nStd. error of the mean = 2036.918017\nPk-Pk                  = 18203.078040\n\n'
p2290
sg236
g83
sg94
Fnan
sg95
VANDOR2:sum_net_5
p2291
sg97
g2206
sg99
g83
sg100
F1.0
sg101
g2215
sg103
F-2000.0
sg61
g2227
sg105
S'#\n# Column index\n#  0  SEQ:shot\n#  1  SEQ:shot\n#  2  ANDOR2:sum_net_5\n\n7232\t\t7232.0000\t\t12128.6370\t\t\n7234\t\t7234.0000\t\t3661.0817\t\t\n7236\t\t7236.0000\t\t17635.3721\t\t\n7238\t\t7238.0000\t\t6665.5227\t\t\n7240\t\t7240.0000\t\t18373.7441\t\t\n7242\t\t7242.0000\t\t21864.1597\t\t\n7244\t\t7244.0000\t\t7240.8766\t\t\n7246\t\t7246.0000\t\t4338.9274\t\t\n7248\t\t7248.0000\t\t7164.8639\t\t\n7250\t\t7250.0000\t\t7699.3702\t\t'
p2292
sg106
g2209
sg108
I00
sg109
Vnumpy.arange(7232;7252;2)
p2293
sg110
g83
sg111
F10.0
sg112
I01
sg113
Fnan
sg114
g2211
sg116
I00
sbag4
(g14
tp2294
Rp2295
(dp2296
g9
g10
sg18
g2233
sg20
Fnan
sg21
g4
(g22
tp2297
Rp2298
(dp2299
g26
g2169
sg9
g10
sg42
g2180
sg49
g2184
sg51
Fnan
sg52
F1000000000000000.0
sg53
F1000000000000000.0
sg54
g0
(g1
g2
(lp2300
I01
aI01
aI01
aI01
aI01
atp2301
Rp2302
(dp2303
g59
S'fit_mask_items'
p2304
sg61
g54
sbsg62
g2192
sg69
g2013
sg71
Fnan
sg72
g2201
sg74
F-1000000000000000.0
sg75
F-1000000000000000.0
sg76
I00
sg77
I00
sbsg78
I01
sg79
g2202
sg232
I00
sg81
I01
sg82
g503
sg84
g83
sg85
I00
sg86
I00
sg87
I00
sg88
V/lab/data/app3/2013/1305/130525/
p2305
sg90
g83
sg91
I00
sg92
I01
sg93
S'Mean                   = 7241.000000\nStd. deviation         =   5.744563\nStd. error of the mean =   1.914854\nPk-Pk                  =  18.000000\n\nMean                   = 23640.213333\nStd. deviation         = 3473.540884\nStd. error of the mean = 1157.846961\nPk-Pk                  = 11536.400000\n\n'
p2306
sg236
g83
sg94
Fnan
sg95
g2243
sg97
g2206
sg99
g83
sg100
F1.0
sg101
g2233
sg103
Fnan
sg61
g2244
sg105
S'#\n# Column index\n#  0  SEQ:shot\n#  1  SEQ:shot\n#  2  ANDOR1:sum_net_24 \n\n7232\t\t7232.0000\t\t24500.8667\t\t\n7234\t\t7234.0000\t\t25590.6000\t\t\n7236\t\t7236.0000\t\t27852.0667\t\t\n7238\t\t7238.0000\t\t22274.2000\t\t\n7240\t\t7240.0000\t\t24433.4000\t\t\n7242\t\t7242.0000\t\t24161.8000\t\t\n7244\t\t7244.0000\t\t17004.8667\t\t\n7246\t\t7246.0000\t\t28541.2667\t\t\n7248\t\t7248.0000\t\t18390.9333\t\t\n7250\t\t7250.0000\t\t23652.1333\t\t'
p2307
sg106
g2209
sg108
I00
sg109
Vnumpy.arange(7232;7252;2)
p2308
sg110
g83
sg111
F10.0
sg112
I01
sg113
Fnan
sg114
g2211
sg116
I00
sbatp2309
Rp2310
(dp2311
g59
S'datasets_items'
p2312
sg61
g12
sbsg81
I00
sg82
VBraggData_Gr3p1_LOCK_40Er_220a0_bin4
p2313
sg121
I3
sg122
g2295
sg123
g0
(g1
g2
(lp2314
I1
aI2
aI3
aI4
aI5
aI6
atp2315
Rp2316
(dp2317
g59
S'grids_items'
p2318
sg61
g123
sbsg129
I1
sg61
VBraggData_Gr3p1_LOCK_40Er_220a0_bin4
p2319
sbag4
(g5
tp2320
Rp2321
(dp2322
g9
g10
sg11
I0
sg12
g0
(g1
g2
(lp2323
g4
(g14
tp2324
Rp2325
(dp2326
g9
g10
sg18
g2163
sg20
F1.0
sg21
g4
(g22
tp2327
Rp2328
(dp2329
g26
g2169
sg9
g10
sg42
g2180
sg49
g2184
sg51
Fnan
sg52
F1000000000000000.0
sg53
F1000000000000000.0
sg54
g0
(g1
g2
(lp2330
I01
aI01
aI01
aI01
aI01
atp2331
Rp2332
(dp2333
g59
S'fit_mask_items'
p2334
sg61
g54
sbsg62
g2192
sg69
g2013
sg71
Fnan
sg72
g2201
sg74
F-1000000000000000.0
sg75
F-1000000000000000.0
sg76
I00
sg77
I00
sbsg78
I01
sg79
g2202
sg232
I00
sg81
I01
sg82
g503
sg84
g83
sg85
I00
sg86
I00
sg87
I00
sg88
g2273
sg90
g83
sg91
I00
sg92
I01
sg93
S'Mean                   = 7241.000000\nStd. deviation         =   6.324555\nStd. error of the mean =   2.000000\nPk-Pk                  =  20.000000\n\nMean                   =   0.305920\nStd. deviation         =   0.196751\nStd. error of the mean =   0.062218\nPk-Pk                  =   0.751914\n\n'
p2335
sg236
g83
sg94
Fnan
sg95
VHHH:andor2norm
p2336
sg97
g2206
sg99
g503
sg100
F1.0
sg101
g2163
sg103
F0.0
sg61
g2207
sg105
S'#\n# Column index\n#  0  SEQ:shot\n#  1  SEQ:shot\n#  2  HHH:andor2norm\n\n7231\t\t7231.0000\t\t0.5428\t\t\n7233\t\t7233.0000\t\t0.1945\t\t\n7235\t\t7235.0000\t\t-0.0110\t\t\n7237\t\t7237.0000\t\t0.7409\t\t\n7239\t\t7239.0000\t\t0.1317\t\t\n7241\t\t7241.0000\t\t0.4382\t\t\n7243\t\t7243.0000\t\t0.3504\t\t\n7245\t\t7245.0000\t\t0.2129\t\t\n7247\t\t7247.0000\t\t0.2823\t\t\n7249\t\t7249.0000\t\t0.2519\t\t\n7251\t\t7251.0000\t\t0.2305\t\t'
p2337
sg106
g2209
sg108
I01
sg109
Vnumpy.arange(7231;7253;2)
p2338
sg110
g83
sg111
F10.0
sg112
I01
sg113
Fnan
sg114
g2211
sg116
I00
sbag4
(g14
tp2339
Rp2340
(dp2341
g9
g10
sg18
g2215
sg20
F30000.0
sg21
g4
(g22
tp2342
Rp2343
(dp2344
g26
g2169
sg9
g10
sg42
g2180
sg49
g2184
sg51
Fnan
sg52
F1000000000000000.0
sg53
F1000000000000000.0
sg54
g0
(g1
g2
(lp2345
I01
aI01
aI01
aI01
aI01
atp2346
Rp2347
(dp2348
g59
S'fit_mask_items'
p2349
sg61
g54
sbsg62
g2192
sg69
g2013
sg71
Fnan
sg72
g2201
sg74
F-1000000000000000.0
sg75
F-1000000000000000.0
sg76
I00
sg77
I00
sbsg78
I01
sg79
g2202
sg232
I00
sg81
I01
sg82
g503
sg84
g83
sg85
I00
sg86
I00
sg87
I00
sg88
g2289
sg90
g83
sg91
I00
sg92
I01
sg93
S'Mean                   = 7241.000000\nStd. deviation         =   6.324555\nStd. error of the mean =   2.000000\nPk-Pk                  =  20.000000\n\nMean                   = 6568.242369\nStd. deviation         = 4247.068623\nStd. error of the mean = 1343.041023\nPk-Pk                  = 15232.362976\n\n'
p2350
sg236
g83
sg94
Fnan
sg95
g2291
sg97
g2206
sg99
g83
sg100
F1.0
sg101
g2215
sg103
F-2000.0
sg61
g2227
sg105
S'#\n# Column index\n#  0  SEQ:shot\n#  1  SEQ:shot\n#  2  ANDOR2:sum_net_5\n\n7231\t\t7231.0000\t\t13518.1996\t\t\n7233\t\t7233.0000\t\t4188.9528\t\t\n7235\t\t7235.0000\t\t-170.7786\t\t\n7237\t\t7237.0000\t\t15061.5844\t\t\n7239\t\t7239.0000\t\t2721.7151\t\t\n7241\t\t7241.0000\t\t5650.8403\t\t\n7243\t\t7243.0000\t\t7862.0926\t\t\n7245\t\t7245.0000\t\t4074.4465\t\t\n7247\t\t7247.0000\t\t7867.5154\t\t\n7249\t\t7249.0000\t\t6126.8330\t\t\n7251\t\t7251.0000\t\t5349.2650\t\t'
p2351
sg106
g2209
sg108
I00
sg109
Vnumpy.arange(7231;7253;2)
p2352
sg110
g83
sg111
F10.0
sg112
I01
sg113
Fnan
sg114
g2211
sg116
I00
sbag4
(g14
tp2353
Rp2354
(dp2355
g9
g10
sg18
g2233
sg20
Fnan
sg21
g4
(g22
tp2356
Rp2357
(dp2358
g26
g2169
sg9
g10
sg42
g2180
sg49
g2184
sg51
Fnan
sg52
F1000000000000000.0
sg53
F1000000000000000.0
sg54
g0
(g1
g2
(lp2359
I01
aI01
aI01
aI01
aI01
atp2360
Rp2361
(dp2362
g59
S'fit_mask_items'
p2363
sg61
g54
sbsg62
g2192
sg69
g2013
sg71
Fnan
sg72
g2201
sg74
F-1000000000000000.0
sg75
F-1000000000000000.0
sg76
I00
sg77
I00
sbsg78
I01
sg79
g2202
sg232
I00
sg81
I01
sg82
g503
sg84
g83
sg85
I00
sg86
I00
sg87
I00
sg88
g2305
sg90
g83
sg91
I00
sg92
I01
sg93
S'Mean                   = 7241.000000\nStd. deviation         =   6.324555\nStd. error of the mean =   2.000000\nPk-Pk                  =  20.000000\n\nMean                   = 21160.175758\nStd. deviation         = 4054.419522\nStd. error of the mean = 1282.120028\nPk-Pk                  = 14972.066667\n\n'
p2364
sg236
g83
sg94
Fnan
sg95
g2243
sg97
g2206
sg99
g83
sg100
F1.0
sg101
g2233
sg103
Fnan
sg61
g2244
sg105
S'#\n# Column index\n#  0  SEQ:shot\n#  1  SEQ:shot\n#  2  ANDOR1:sum_net_24 \n\n7231\t\t7231.0000\t\t24906.4000\t\t\n7233\t\t7233.0000\t\t21533.8667\t\t\n7235\t\t7235.0000\t\t15459.0000\t\t\n7237\t\t7237.0000\t\t20329.6667\t\t\n7239\t\t7239.0000\t\t20672.0667\t\t\n7241\t\t7241.0000\t\t12894.1333\t\t\n7243\t\t7243.0000\t\t22434.6667\t\t\n7245\t\t7245.0000\t\t19134.6667\t\t\n7247\t\t7247.0000\t\t27866.2000\t\t\n7249\t\t7249.0000\t\t24319.8000\t\t\n7251\t\t7251.0000\t\t23211.4667\t\t'
p2365
sg106
g2209
sg108
I00
sg109
Vnumpy.arange(7231;7253;2)
p2366
sg110
g83
sg111
F10.0
sg112
I01
sg113
Fnan
sg114
g2211
sg116
I00
sbatp2367
Rp2368
(dp2369
g59
S'datasets_items'
p2370
sg61
g12
sbsg81
I00
sg82
VBraggData_Gr3p1_LOCK_40Er_220a0_bin4_BG
p2371
sg121
I3
sg122
g2325
sg123
g0
(g1
g2
(lp2372
I1
aI2
aI3
aI4
aI5
aI6
atp2373
Rp2374
(dp2375
g59
S'grids_items'
p2376
sg61
g123
sbsg129
I1
sg61
VBraggData_Gr3p1_LOCK_40Er_220a0_bin4_BG
p2377
sbag4
(g5
tp2378
Rp2379
(dp2380
g9
g10
sg11
I2
sg12
g0
(g1
g2
(lp2381
g4
(g14
tp2382
Rp2383
(dp2384
g9
g10
sg18
g2163
sg20
Fnan
sg21
g4
(g22
tp2385
Rp2386
(dp2387
g26
g2169
sg9
g10
sg42
g2180
sg49
g2184
sg51
Fnan
sg52
F1000000000000000.0
sg53
F1000000000000000.0
sg54
g0
(g1
g2
(lp2388
I01
aI01
aI01
aI01
aI01
atp2389
Rp2390
(dp2391
g59
S'fit_mask_items'
p2392
sg61
g54
sbsg62
g2192
sg69
g2013
sg71
Fnan
sg72
g2201
sg74
F-1000000000000000.0
sg75
F-1000000000000000.0
sg76
I00
sg77
I00
sbsg78
I01
sg79
g2202
sg232
I00
sg81
I01
sg82
g503
sg84
g83
sg85
I00
sg86
I00
sg87
I00
sg88
g2273
sg90
g83
sg91
I00
sg92
I01
sg93
S'Mean                   =   2.350000\nStd. deviation         =   0.807775\nStd. error of the mean =   0.155456\nPk-Pk                  =   2.700000\n\nMean                   = 196994.414286\nStd. deviation         = 24009.841517\nStd. error of the mean = 4620.696154\nPk-Pk                  = 97101.400000\n\n'
p2393
sg236
g83
sg94
Fnan
sg95
VCPP:nfit
p2394
sg97
VDIMPLELATTICE:knob1
p2395
sg99
g503
sg100
F1.0
sg101
g2163
sg103
Fnan
sg61
VN
p2396
sg105
S'#\n# Column index\n#  0  SEQ:shot\n#  1  DIMPLELATTICE:knob1\n#  2  CPP:nfit\n\n7294\t\t1.0000\t\t2.015e+05\t\t\n7295\t\t1.1000\t\t2.159e+05\t\t\n7296\t\t1.2000\t\t1.824e+05\t\t\n7297\t\t1.3000\t\t2.115e+05\t\t\n7298\t\t1.4000\t\t1.520e+05\t\t\n7299\t\t1.5000\t\t1.731e+05\t\t\n7300\t\t1.6000\t\t1.792e+05\t\t\n7301\t\t1.7000\t\t2.069e+05\t\t\n7302\t\t1.8000\t\t2.117e+05\t\t\n7303\t\t1.9000\t\t2.032e+05\t\t\n7304\t\t2.0000\t\t1.636e+05\t\t\n7305\t\t2.1000\t\t2.345e+05\t\t\n7306\t\t2.2000\t\t1.974e+05\t\t\n7307\t\t2.3000\t\t1.379e+05\t\t\n7308\t\t2.4000\t\t2.050e+05\t\t\n7309\t\t2.5000\t\t2.111e+05\t\t\n7310\t\t2.6000\t\t2.350e+05\t\t\n7311\t\t2.7000\t\t1.997e+05\t\t\n7312\t\t2.8000\t\t2.057e+05\t\t\n7313\t\t2.9000\t\t2.086e+05\t\t\n7314\t\t3.0000\t\t2.063e+05\t\t\n7315\t\t3.1000\t\t1.954e+05\t\t\n7316\t\t3.2000\t\t1.778e+05\t\t\n7317\t\t3.3000\t\t1.984e+05\t\t\n7318\t\t3.4000\t\t2.022e+05\t\t\n7319\t\t3.5000\t\t2.201e+05\t\t\n7320\t\t3.6000\t\t1.511e+05\t\t\n7321\t\t3.7000\t\t2.288e+05\t\t'
p2397
sg106
g2209
sg108
I00
sg109
V7294:7321
p2398
sg110
VGrpow (Er)
p2399
sg111
F10.0
sg112
I01
sg113
Fnan
sg114
g2211
sg116
I00
sbag4
(g14
tp2400
Rp2401
(dp2402
g9
g10
sg18
g2215
sg20
Fnan
sg21
g4
(g22
tp2403
Rp2404
(dp2405
g26
g2169
sg9
g10
sg42
g2180
sg49
g2184
sg51
Fnan
sg52
F1000000000000000.0
sg53
F1000000000000000.0
sg54
g0
(g1
g2
(lp2406
I01
aI01
aI01
aI01
aI01
atp2407
Rp2408
(dp2409
g59
S'fit_mask_items'
p2410
sg61
g54
sbsg62
g2192
sg69
g2013
sg71
Fnan
sg72
g2201
sg74
F-1000000000000000.0
sg75
F-1000000000000000.0
sg76
I00
sg77
I00
sbsg78
I01
sg79
g2202
sg232
I00
sg81
I01
sg82
g503
sg84
g83
sg85
I00
sg86
I00
sg87
I00
sg88
g2289
sg90
g503
sg91
I00
sg92
I01
sg93
S'Mean                   =   2.350000\nStd. deviation         =   0.807775\nStd. error of the mean =   0.155456\nPk-Pk                  =   2.700000\n\nMean                   =   0.116846\nStd. deviation         =   0.054799\nStd. error of the mean =   0.010546\nPk-Pk                  =   0.213135\n\n'
p2411
sg236
g83
sg94
Fnan
sg95
VCPP:TF_2d
p2412
sg97
VDIMPLELATTICE:knob1
p2413
sg99
g83
sg100
F1.0
sg101
g2215
sg103
Fnan
sg61
VTF_2d
p2414
sg105
S'#\n# Column index\n#  0  SEQ:shot\n#  1  DIMPLELATTICE:knob1\n#  2  CPP:TF_2d\n\n7294\t\t1.0000\t\t0.1651\t\t\n7295\t\t1.1000\t\t0.1185\t\t\n7296\t\t1.2000\t\t0.1365\t\t\n7297\t\t1.3000\t\t0.1062\t\t\n7298\t\t1.4000\t\t0.2381\t\t\n7299\t\t1.5000\t\t0.0873\t\t\n7300\t\t1.6000\t\t0.1380\t\t\n7301\t\t1.7000\t\t0.0783\t\t\n7302\t\t1.8000\t\t0.1103\t\t\n7303\t\t1.9000\t\t0.2590\t\t\n7304\t\t2.0000\t\t0.0772\t\t\n7305\t\t2.1000\t\t0.0710\t\t\n7306\t\t2.2000\t\t0.0867\t\t\n7307\t\t2.3000\t\t0.1058\t\t\n7308\t\t2.4000\t\t0.0825\t\t\n7309\t\t2.5000\t\t0.0458\t\t\n7310\t\t2.6000\t\t0.0905\t\t\n7311\t\t2.7000\t\t0.0811\t\t\n7312\t\t2.8000\t\t0.0737\t\t\n7313\t\t2.9000\t\t0.0882\t\t\n7314\t\t3.0000\t\t0.1525\t\t\n7315\t\t3.1000\t\t0.0852\t\t\n7316\t\t3.2000\t\t0.2502\t\t\n7317\t\t3.3000\t\t0.1134\t\t\n7318\t\t3.4000\t\t0.1047\t\t\n7319\t\t3.5000\t\t0.0502\t\t\n7320\t\t3.6000\t\t0.1724\t\t\n7321\t\t3.7000\t\t0.1034\t\t'
p2415
sg106
g2209
sg108
I00
sg109
V7294:7321
p2416
sg110
VGrpow (Er)
p2417
sg111
F10.0
sg112
I01
sg113
Fnan
sg114
g2211
sg116
I00
sbag4
(g14
tp2418
Rp2419
(dp2420
g9
g10
sg18
g2233
sg20
Fnan
sg21
g4
(g22
tp2421
Rp2422
(dp2423
g26
g2169
sg9
g10
sg42
g2180
sg49
g2184
sg51
Fnan
sg52
F1000000000000000.0
sg53
F1000000000000000.0
sg54
g0
(g1
g2
(lp2424
I01
aI01
aI01
aI01
aI01
atp2425
Rp2426
(dp2427
g59
S'fit_mask_items'
p2428
sg61
g54
sbsg62
g2192
sg69
g2013
sg71
Fnan
sg72
g2201
sg74
F-1000000000000000.0
sg75
F-1000000000000000.0
sg76
I00
sg77
I00
sbsg78
I01
sg79
g2202
sg232
I00
sg81
I01
sg82
g503
sg84
g83
sg85
I00
sg86
I00
sg87
I00
sg88
g2305
sg90
g83
sg91
I01
sg92
I01
sg93
S'Mean                   =   2.350000\nStd. deviation         =   0.807775\nStd. error of the mean =   0.155456\nPk-Pk                  =   2.700000\n\nMean                   =   0.086282\nStd. deviation         =   0.047833\nStd. error of the mean =   0.009206\nPk-Pk                  =   0.204670\n\n'
p2429
sg236
g83
sg94
Fnan
sg95
VCPP:TF_az
p2430
sg97
VDIMPLELATTICE:knob1
p2431
sg99
g83
sg100
F1.0
sg101
g2233
sg103
Fnan
sg61
VTF_az
p2432
sg105
S'#\n# Column index\n#  0  SEQ:shot\n#  1  DIMPLELATTICE:knob1\n#  2  CPP:TF_az\n\n7294\t\t1.0000\t\t0.1208\t\t\n7295\t\t1.1000\t\t0.1143\t\t\n7296\t\t1.2000\t\t0.1391\t\t\n7297\t\t1.3000\t\t0.1239\t\t\n7298\t\t1.4000\t\t0.2455\t\t\n7299\t\t1.5000\t\t0.0907\t\t\n7300\t\t1.6000\t\t0.0463\t\t\n7301\t\t1.7000\t\t0.1022\t\t\n7302\t\t1.8000\t\t0.0478\t\t\n7303\t\t1.9000\t\t0.0447\t\t\n7304\t\t2.0000\t\t0.0932\t\t\n7305\t\t2.1000\t\t0.0546\t\t\n7306\t\t2.2000\t\t0.0410\t\t\n7307\t\t2.3000\t\t0.0926\t\t\n7308\t\t2.4000\t\t0.0745\t\t\n7309\t\t2.5000\t\t0.0449\t\t\n7310\t\t2.6000\t\t0.0428\t\t\n7311\t\t2.7000\t\t0.0496\t\t\n7312\t\t2.8000\t\t0.0418\t\t\n7313\t\t2.9000\t\t0.0408\t\t\n7314\t\t3.0000\t\t0.0643\t\t\n7315\t\t3.1000\t\t0.1105\t\t\n7316\t\t3.2000\t\t0.1536\t\t\n7317\t\t3.3000\t\t0.1427\t\t\n7318\t\t3.4000\t\t0.0696\t\t\n7319\t\t3.5000\t\t0.0443\t\t\n7320\t\t3.6000\t\t0.1364\t\t\n7321\t\t3.7000\t\t0.0433\t\t'
p2433
sg106
g2209
sg108
I00
sg109
V7294:7321
p2434
sg110
VGrpow (Er)
p2435
sg111
F10.0
sg112
I01
sg113
Fnan
sg114
g2211
sg116
I00
sbatp2436
Rp2437
(dp2438
g59
S'datasets_items'
p2439
sg61
g12
sbsg81
I01
sg82
Vroundtrips
p2440
sg121
I2
sg122
g2419
sg123
g0
(g1
g2
(lp2441
I1
aI2
aI3
aI4
aI5
aI6
atp2442
Rp2443
(dp2444
g59
S'grids_items'
p2445
sg61
g123
sbsg129
I1
sg61
Vroundtrips
p2446
sbatp2447
Rp2448
(dp2449
g59
S'subplots_items'
p2450
sg61
S'subplots'
p2451
sb.